
========================================================================

** ELF Header Information

    File Name: Code1_CreateProject\Code1_CreateProject.axf

    Machine class: ELFCLASS32 (32-bit)
    Data encoding: ELFDATA2LSB (Little endian)
    Header version: EV_CURRENT (Current version)
    Operating System ABI: none
    ABI Version: 0
    File Type: ET_EXEC (Executable) (2)
    Machine: EM_ARM (ARM)

    Image Entry point: 0x080000ed
    Flags: EF_ARM_HASENTRY + EF_ARM_ABI_FLOAT_SOFT (0x05000202)

    ARM ELF revision: 5 (ABI version 2)

    Conforms to Soft float procedure-call standard

    Built with
    Component: ARM Compiler 5.06 update 5 (build 528) Tool: armasm [4d35e1]
    Component: ARM Compiler 5.06 update 5 (build 528) Tool: armlink [4d35e2]

    Header size: 52 bytes (0x34)
    Program header entry size: 32 bytes (0x20)
    Section header entry size: 40 bytes (0x28)

    Program header entries: 1
    Section header entries: 16

    Program header offset: 909112 (0x000ddf38)
    Section header offset: 909144 (0x000ddf58)

    Section header string table index: 15

========================================================================

** Program header #0 (PT_LOAD) [PF_X + PF_W + PF_R + PF_ARM_ENTRY]
    Size : 45532 bytes (26156 bytes in file)
    Virtual address: 0x08000000 (Alignment 8)


========================================================================

** Section #1 'ER_IROM1' (SHT_PROGBITS) [SHF_ALLOC + SHF_EXECINSTR]
    Size   : 25964 bytes (alignment 4)
    Address: 0x08000000

    $d.realdata
    RESET
    __Vectors
        0x08000000:    20004c70    pL.     DCD    536890480
        0x08000004:    0800026d    m...    DCD    134218349
        0x08000008:    080021eb    .!..    DCD    134226411
        0x0800000c:    08001ac7    ....    DCD    134224583
        0x08000010:    080021e9    .!..    DCD    134226409
        0x08000014:    08000a2d    -...    DCD    134220333
        0x08000018:    08002615    .&..    DCD    134227477
        0x0800001c:    00000000    ....    DCD    0
        0x08000020:    00000000    ....    DCD    0
        0x08000024:    00000000    ....    DCD    0
        0x08000028:    00000000    ....    DCD    0
        0x0800002c:    080001a1    ....    DCD    134218145
        0x08000030:    08000a2f    /...    DCD    134220335
        0x08000034:    00000000    ....    DCD    0
        0x08000038:    080001e5    ....    DCD    134218213
        0x0800003c:    08002399    .#..    DCD    134226841
        0x08000040:    08000287    ....    DCD    134218375
        0x08000044:    08000287    ....    DCD    134218375
        0x08000048:    08000287    ....    DCD    134218375
        0x0800004c:    08000287    ....    DCD    134218375
        0x08000050:    08000287    ....    DCD    134218375
        0x08000054:    08000287    ....    DCD    134218375
        0x08000058:    08000da1    ....    DCD    134221217
        0x0800005c:    08000287    ....    DCD    134218375
        0x08000060:    08000287    ....    DCD    134218375
        0x08000064:    08000287    ....    DCD    134218375
        0x08000068:    08000287    ....    DCD    134218375
        0x0800006c:    08000287    ....    DCD    134218375
        0x08000070:    08000287    ....    DCD    134218375
        0x08000074:    08000287    ....    DCD    134218375
        0x08000078:    08000287    ....    DCD    134218375
        0x0800007c:    08000287    ....    DCD    134218375
        0x08000080:    08000287    ....    DCD    134218375
        0x08000084:    08000287    ....    DCD    134218375
        0x08000088:    08000287    ....    DCD    134218375
        0x0800008c:    08000287    ....    DCD    134218375
        0x08000090:    08000287    ....    DCD    134218375
        0x08000094:    08000287    ....    DCD    134218375
        0x08000098:    08000287    ....    DCD    134218375
        0x0800009c:    08000287    ....    DCD    134218375
        0x080000a0:    08000287    ....    DCD    134218375
        0x080000a4:    08002425    %$..    DCD    134226981
        0x080000a8:    08000287    ....    DCD    134218375
        0x080000ac:    08000287    ....    DCD    134218375
        0x080000b0:    08000287    ....    DCD    134218375
        0x080000b4:    08000287    ....    DCD    134218375
        0x080000b8:    08000287    ....    DCD    134218375
        0x080000bc:    08000287    ....    DCD    134218375
        0x080000c0:    08000287    ....    DCD    134218375
        0x080000c4:    08000287    ....    DCD    134218375
        0x080000c8:    08000287    ....    DCD    134218375
        0x080000cc:    08000287    ....    DCD    134218375
        0x080000d0:    08000287    ....    DCD    134218375
        0x080000d4:    08000287    ....    DCD    134218375
        0x080000d8:    080025d1    .%..    DCD    134227409
        0x080000dc:    08000287    ....    DCD    134218375
        0x080000e0:    08000287    ....    DCD    134218375
        0x080000e4:    08000287    ....    DCD    134218375
        0x080000e8:    08000287    ....    DCD    134218375
    $t
    !!!main
    __Vectors_End
    __main
        0x080000ec:    f000f802    ....    BL       __scatterload ; 0x80000f4
        0x080000f0:    f000f847    ..G.    BL       __rt_entry ; 0x8000182
    !!!scatter
    __scatterload
    __scatterload_rt2
    __scatterload_rt2_thumb_only
        0x080000f4:    a00a        ..      ADR      r0,{pc}+0x2c ; 0x8000120
        0x080000f6:    e8900c00    ....    LDM      r0,{r10,r11}
        0x080000fa:    4482        .D      ADD      r10,r10,r0
        0x080000fc:    4483        .D      ADD      r11,r11,r0
        0x080000fe:    f1aa0701    ....    SUB      r7,r10,#1
    __scatterload_null
        0x08000102:    45da        .E      CMP      r10,r11
        0x08000104:    d101        ..      BNE      0x800010a ; __scatterload_null + 8
        0x08000106:    f000f83c    ..<.    BL       __rt_entry ; 0x8000182
        0x0800010a:    f2af0e09    ....    ADR      lr,{pc}-7 ; 0x8000103
        0x0800010e:    e8ba000f    ....    LDM      r10!,{r0-r3}
        0x08000112:    f0130f01    ....    TST      r3,#1
        0x08000116:    bf18        ..      IT       NE
        0x08000118:    1afb        ..      SUBNE    r3,r7,r3
        0x0800011a:    f0430301    C...    ORR      r3,r3,#1
        0x0800011e:    4718        .G      BX       r3
    $d
        0x08000120:    0000642c    ,d..    DCD    25644
        0x08000124:    0000644c    Ld..    DCD    25676
    $t
    !!handler_copy
    __scatterload_copy
        0x08000128:    3a10        .:      SUBS     r2,r2,#0x10
        0x0800012a:    bf24        $.      ITT      CS
        0x0800012c:    c878        x.      LDMCS    r0!,{r3-r6}
        0x0800012e:    c178        x.      STMCS    r1!,{r3-r6}
        0x08000130:    d8fa        ..      BHI      __scatterload_copy ; 0x8000128
        0x08000132:    0752        R.      LSLS     r2,r2,#29
        0x08000134:    bf24        $.      ITT      CS
        0x08000136:    c830        0.      LDMCS    r0!,{r4,r5}
        0x08000138:    c130        0.      STMCS    r1!,{r4,r5}
        0x0800013a:    bf44        D.      ITT      MI
        0x0800013c:    6804        .h      LDRMI    r4,[r0,#0]
        0x0800013e:    600c        .`      STRMI    r4,[r1,#0]
        0x08000140:    4770        pG      BX       lr
        0x08000142:    0000        ..      MOVS     r0,r0
    !!handler_zi
    __scatterload_zeroinit
        0x08000144:    2300        .#      MOVS     r3,#0
        0x08000146:    2400        .$      MOVS     r4,#0
        0x08000148:    2500        .%      MOVS     r5,#0
        0x0800014a:    2600        .&      MOVS     r6,#0
        0x0800014c:    3a10        .:      SUBS     r2,r2,#0x10
        0x0800014e:    bf28        (.      IT       CS
        0x08000150:    c178        x.      STMCS    r1!,{r3-r6}
        0x08000152:    d8fb        ..      BHI      0x800014c ; __scatterload_zeroinit + 8
        0x08000154:    0752        R.      LSLS     r2,r2,#29
        0x08000156:    bf28        (.      IT       CS
        0x08000158:    c130        0.      STMCS    r1!,{r4,r5}
        0x0800015a:    bf48        H.      IT       MI
        0x0800015c:    600b        .`      STRMI    r3,[r1,#0]
        0x0800015e:    4770        pG      BX       lr
    .ARM.Collect$$_printf_percent$$00000009
    .ARM.Collect$$_printf_percent$$00000000
    _printf_d
    _printf_percent
        0x08000160:    2964        d)      CMP      r1,#0x64
        0x08000162:    f0008117    ....    BEQ.W    _printf_int_dec ; 0x8000394
    .ARM.Collect$$_printf_percent$$0000000C
    _printf_x
        0x08000166:    2978        x)      CMP      r1,#0x78
        0x08000168:    f0008150    ..P.    BEQ.W    _printf_int_hex ; 0x800040c
    .ARM.Collect$$_printf_percent$$00000014
    _printf_s
        0x0800016c:    2973        s)      CMP      r1,#0x73
        0x0800016e:    f0008410    ....    BEQ.W    _printf_string ; 0x8000992
    .ARM.Collect$$_printf_percent$$00000017
    _printf_percent_end
        0x08000172:    2000        .       MOVS     r0,#0
        0x08000174:    4770        pG      BX       lr
    .ARM.Collect$$libinit$$00000000
    __rt_lib_init
        0x08000176:    b51f        ..      PUSH     {r0-r4,lr}
    .ARM.Collect$$libinit$$00000002
    .ARM.Collect$$libinit$$00000004
    .ARM.Collect$$libinit$$0000000A
    .ARM.Collect$$libinit$$0000000C
    .ARM.Collect$$libinit$$0000000D
    __rt_lib_init_fp_1
    __rt_lib_init_heap_1
    __rt_lib_init_preinit_1
    __rt_lib_init_rand_2
    __rt_lib_init_user_alloc_1
        0x08000178:    f000fa25    ..%.    BL       _rand_init ; 0x80005c6
    .ARM.Collect$$libinit$$0000000E
    .ARM.Collect$$libinit$$00000011
    .ARM.Collect$$libinit$$00000013
    .ARM.Collect$$libinit$$00000015
    .ARM.Collect$$libinit$$00000017
    .ARM.Collect$$libinit$$00000019
    .ARM.Collect$$libinit$$0000001B
    .ARM.Collect$$libinit$$0000001D
    .ARM.Collect$$libinit$$0000001F
    .ARM.Collect$$libinit$$00000021
    .ARM.Collect$$libinit$$00000023
    .ARM.Collect$$libinit$$00000025
    .ARM.Collect$$libinit$$0000002C
    .ARM.Collect$$libinit$$0000002E
    .ARM.Collect$$libinit$$00000030
    .ARM.Collect$$libinit$$00000032
    .ARM.Collect$$libinit$$00000033
    __rt_lib_init_alloca_1
    __rt_lib_init_argv_1
    __rt_lib_init_atexit_1
    __rt_lib_init_clock_1
    __rt_lib_init_cpp_1
    __rt_lib_init_exceptions_1
    __rt_lib_init_fp_trap_1
    __rt_lib_init_getenv_1
    __rt_lib_init_lc_collate_1
    __rt_lib_init_lc_ctype_1
    __rt_lib_init_lc_monetary_1
    __rt_lib_init_lc_numeric_1
    __rt_lib_init_lc_time_1
    __rt_lib_init_rand_1
    __rt_lib_init_return
    __rt_lib_init_signal_1
    __rt_lib_init_stdio_1
        0x0800017c:    bd1f        ..      POP      {r0-r4,pc}
    .ARM.Collect$$libshutdown$$00000000
    __rt_lib_shutdown
        0x0800017e:    b510        ..      PUSH     {r4,lr}
    .ARM.Collect$$libshutdown$$00000002
    .ARM.Collect$$libshutdown$$00000004
    .ARM.Collect$$libshutdown$$00000007
    .ARM.Collect$$libshutdown$$0000000A
    .ARM.Collect$$libshutdown$$0000000C
    .ARM.Collect$$libshutdown$$0000000F
    .ARM.Collect$$libshutdown$$00000010
    __rt_lib_shutdown_cpp_1
    __rt_lib_shutdown_fp_trap_1
    __rt_lib_shutdown_heap_1
    __rt_lib_shutdown_return
    __rt_lib_shutdown_signal_1
    __rt_lib_shutdown_stdio_1
    __rt_lib_shutdown_user_alloc_1
        0x08000180:    bd10        ..      POP      {r4,pc}
    .ARM.Collect$$rtentry$$00000000
    .ARM.Collect$$rtentry$$00000002
    .ARM.Collect$$rtentry$$00000004
    __rt_entry
    __rt_entry_presh_1
    __rt_entry_sh
        0x08000182:    f000fc21    ..!.    BL       __user_setup_stackheap ; 0x80009c8
        0x08000186:    4611        .F      MOV      r1,r2
    .ARM.Collect$$rtentry$$00000009
    .ARM.Collect$$rtentry$$0000000A
    __rt_entry_li
    __rt_entry_postsh_1
        0x08000188:    f7fffff5    ....    BL       __rt_lib_init ; 0x8000176
    .ARM.Collect$$rtentry$$0000000C
    .ARM.Collect$$rtentry$$0000000D
    __rt_entry_main
    __rt_entry_postli_1
        0x0800018c:    f002fac8    ....    BL       main ; 0x8002720
        0x08000190:    f000fc3f    ..?.    BL       exit ; 0x8000a12
    .ARM.Collect$$rtexit$$00000000
    __rt_exit
        0x08000194:    b403        ..      PUSH     {r0,r1}
    .ARM.Collect$$rtexit$$00000002
    .ARM.Collect$$rtexit$$00000003
    __rt_exit_ls
    __rt_exit_prels_1
        0x08000196:    f7fffff2    ....    BL       __rt_lib_shutdown ; 0x800017e
    .ARM.Collect$$rtexit$$00000004
    __rt_exit_exit
        0x0800019a:    bc03        ..      POP      {r0,r1}
        0x0800019c:    f002fa57    ..W.    BL       _sys_exit ; 0x800264e
    .emb_text
    SVC_Handler
        0x080001a0:    4b22        "K      LDR      r3,[pc,#136] ; [0x800022c] = 0x2000003c
        0x080001a2:    6819        .h      LDR      r1,[r3,#0]
        0x080001a4:    6808        .h      LDR      r0,[r1,#0]
        0x080001a6:    e8b00ff0    ....    LDM      r0!,{r4-r11}
        0x080001aa:    f3808809    ....    MSR      PSP,r0
        0x080001ae:    f3bf8f6f    ..o.    ISB      
        0x080001b2:    f04f0000    O...    MOV      r0,#0
        0x080001b6:    f3808811    ....    MSR      BASEPRI,r0
        0x080001ba:    f04e0e0d    N...    ORR      lr,lr,#0xd
        0x080001be:    4770        pG      BX       lr
    $d
        0x080001c0:    00000000    ....    DCD    0
    $t
    __asm___6_port_c_39a90d8d__prvStartFirstTask
        0x080001c4:    4806        .H      LDR      r0,[pc,#24] ; [0x80001e0] = 0xe000ed08
        0x080001c6:    6800        .h      LDR      r0,[r0,#0]
        0x080001c8:    6800        .h      LDR      r0,[r0,#0]
        0x080001ca:    f3808808    ....    MSR      MSP,r0
        0x080001ce:    b662        b.      CPSIE    i
        0x080001d0:    b661        a.      CPSIE    f
        0x080001d2:    f3bf8f4f    ..O.    DSB      
        0x080001d6:    f3bf8f6f    ..o.    ISB      
        0x080001da:    df00        ..      SVC      #0x0 ; formerly SWI
        0x080001dc:    bf00        ..      NOP      
        0x080001de:    bf00        ..      NOP      
    $d
        0x080001e0:    e000ed08    ....    DCD    3758157064
    $t
    PendSV_Handler
        0x080001e4:    f3ef8009    ....    MRS      r0,PSP
        0x080001e8:    f3bf8f6f    ..o.    ISB      
        0x080001ec:    4b0f        .K      LDR      r3,[pc,#60] ; [0x800022c] = 0x2000003c
        0x080001ee:    681a        .h      LDR      r2,[r3,#0]
        0x080001f0:    e9200ff0     ...    STMDB    r0!,{r4-r11}
        0x080001f4:    6010        .`      STR      r0,[r2,#0]
        0x080001f6:    b508        ..      PUSH     {r3,lr}
        0x080001f8:    f04f0050    O.P.    MOV      r0,#0x50
        0x080001fc:    f3808811    ....    MSR      BASEPRI,r0
        0x08000200:    f3bf8f4f    ..O.    DSB      
        0x08000204:    f3bf8f6f    ..o.    ISB      
        0x08000208:    f005f95c    ..\.    BL       vTaskSwitchContext ; 0x80054c4
        0x0800020c:    f04f0000    O...    MOV      r0,#0
        0x08000210:    f3808811    ....    MSR      BASEPRI,r0
        0x08000214:    e8bd4008    ...@    POP      {r3,lr}
        0x08000218:    6819        .h      LDR      r1,[r3,#0]
        0x0800021a:    6808        .h      LDR      r0,[r1,#0]
        0x0800021c:    e8b00ff0    ....    LDM      r0!,{r4-r11}
        0x08000220:    f3808809    ....    MSR      PSP,r0
        0x08000224:    f3bf8f6f    ..o.    ISB      
        0x08000228:    4770        pG      BX       lr
        0x0800022a:    bf00        ..      NOP      
    $d
        0x0800022c:    2000003c    <..     DCD    536870972
    $t
    vPortGetIPSR
        0x08000230:    f3ef8005    ....    MRS      r0,IPSR
        0x08000234:    4770        pG      BX       lr
        0x08000236:    0000        ..      MOVS     r0,r0
    .emb_text
    rand
        0x08000238:    490b        .I      LDR      r1,[pc,#44] ; [0x8000268] = 0x20004608
        0x0800023a:    f8d1c000    ....    LDR      r12,[r1,#0]
        0x0800023e:    684a        Jh      LDR      r2,[r1,#4]
        0x08000240:    f85c3b04    \..;    LDR      r3,[r12],#4
        0x08000244:    6810        .h      LDR      r0,[r2,#0]
        0x08000246:    4418        .D      ADD      r0,r0,r3
        0x08000248:    f8420b04    B...    STR      r0,[r2],#4
        0x0800024c:    458c        .E      CMP      r12,r1
        0x0800024e:    bf28        (.      IT       CS
        0x08000250:    f1a10cdc    ....    SUBCS    r12,r1,#0xdc
        0x08000254:    428a        .B      CMP      r2,r1
        0x08000256:    bf28        (.      IT       CS
        0x08000258:    f1a102dc    ....    SUBCS    r2,r1,#0xdc
        0x0800025c:    f8c1c000    ....    STR      r12,[r1,#0]
        0x08000260:    604a        J`      STR      r2,[r1,#4]
        0x08000262:    f0204000     ..@    BIC      r0,r0,#0x80000000
        0x08000266:    4770        pG      BX       lr
    $d
        0x08000268:    20004608    .F.     DCD    536888840
    $t
    .text
    Reset_Handler
        0x0800026c:    4809        .H      LDR      r0,[pc,#36] ; [0x8000294] = 0x8002423
        0x0800026e:    4780        .G      BLX      r0
        0x08000270:    4809        .H      LDR      r0,[pc,#36] ; [0x8000298] = 0x80000ed
        0x08000272:    4700        .G      BX       r0
        0x08000274:    e7fe        ..      B        0x8000274 ; Reset_Handler + 8
        0x08000276:    e7fe        ..      B        0x8000276 ; Reset_Handler + 10
        0x08000278:    e7fe        ..      B        0x8000278 ; Reset_Handler + 12
        0x0800027a:    e7fe        ..      B        0x800027a ; Reset_Handler + 14
        0x0800027c:    e7fe        ..      B        0x800027c ; Reset_Handler + 16
        0x0800027e:    e7fe        ..      B        0x800027e ; Reset_Handler + 18
        0x08000280:    e7fe        ..      B        0x8000280 ; Reset_Handler + 20
        0x08000282:    e7fe        ..      B        0x8000282 ; Reset_Handler + 22
        0x08000284:    e7fe        ..      B        0x8000284 ; Reset_Handler + 24
    ADC1_2_IRQHandler
    CAN1_RX1_IRQHandler
    CAN1_SCE_IRQHandler
    DMA1_Channel1_IRQHandler
    DMA1_Channel2_IRQHandler
    DMA1_Channel3_IRQHandler
    DMA1_Channel4_IRQHandler
    DMA1_Channel5_IRQHandler
    DMA1_Channel6_IRQHandler
    DMA1_Channel7_IRQHandler
    EXTI15_10_IRQHandler
    EXTI1_IRQHandler
    EXTI2_IRQHandler
    EXTI3_IRQHandler
    EXTI4_IRQHandler
    EXTI9_5_IRQHandler
    FLASH_IRQHandler
    I2C1_ER_IRQHandler
    I2C1_EV_IRQHandler
    I2C2_ER_IRQHandler
    I2C2_EV_IRQHandler
    PVD_IRQHandler
    RCC_IRQHandler
    RTC_Alarm_IRQHandler
    RTC_IRQHandler
    SPI1_IRQHandler
    SPI2_IRQHandler
    TAMPER_IRQHandler
    TIM1_BRK_IRQHandler
    TIM1_CC_IRQHandler
    TIM1_TRG_COM_IRQHandler
    TIM2_IRQHandler
    TIM3_IRQHandler
    TIM4_IRQHandler
    USART1_IRQHandler
    USART3_IRQHandler
    USBWakeUp_IRQHandler
    USB_HP_CAN1_TX_IRQHandler
    USB_LP_CAN1_RX0_IRQHandler
    WWDG_IRQHandler
        0x08000286:    e7fe        ..      B        ADC1_2_IRQHandler ; 0x8000286
    __user_initial_stackheap
        0x08000288:    4804        .H      LDR      r0,[pc,#16] ; [0x800029c] = 0x20004670
        0x0800028a:    4905        .I      LDR      r1,[pc,#20] ; [0x80002a0] = 0x20004c70
        0x0800028c:    4a05        .J      LDR      r2,[pc,#20] ; [0x80002a4] = 0x20004870
        0x0800028e:    4b06        .K      LDR      r3,[pc,#24] ; [0x80002a8] = 0x20004870
        0x08000290:    4770        pG      BX       lr
    $d
        0x08000292:    0000        ..      DCW    0
        0x08000294:    08002423    #$..    DCD    134226979
        0x08000298:    080000ed    ....    DCD    134217965
        0x0800029c:    20004670    pF.     DCD    536888944
        0x080002a0:    20004c70    pL.     DCD    536890480
        0x080002a4:    20004870    pH.     DCD    536889456
        0x080002a8:    20004870    pH.     DCD    536889456
    $t
    .text
    __use_no_semihosting
        0x080002ac:    4770        pG      BX       lr
        0x080002ae:    0000        ..      MOVS     r0,r0
    .text
    __2printf
        0x080002b0:    b40f        ..      PUSH     {r0-r3}
        0x080002b2:    4904        .I      LDR      r1,[pc,#16] ; [0x80002c4] = 0x20000028
        0x080002b4:    b510        ..      PUSH     {r4,lr}
        0x080002b6:    aa03        ..      ADD      r2,sp,#0xc
        0x080002b8:    9802        ..      LDR      r0,[sp,#8]
        0x080002ba:    f000fb6f    ..o.    BL       _printf_char_file ; 0x800099c
        0x080002be:    bc10        ..      POP      {r4}
        0x080002c0:    f85dfb14    ]...    LDR      pc,[sp],#0x14
    $d
        0x080002c4:    20000028    (..     DCD    536870952
    $t
    .text
    __2sprintf
        0x080002c8:    b40f        ..      PUSH     {r0-r3}
        0x080002ca:    b51c        ..      PUSH     {r2-r4,lr}
        0x080002cc:    4b08        .K      LDR      r3,[pc,#32] ; [0x80002f0] = 0x691
        0x080002ce:    aa06        ..      ADD      r2,sp,#0x18
        0x080002d0:    447b        {D      ADD      r3,r3,pc
        0x080002d2:    4669        iF      MOV      r1,sp
        0x080002d4:    9000        ..      STR      r0,[sp,#0]
        0x080002d6:    9805        ..      LDR      r0,[sp,#0x14]
        0x080002d8:    f000fb31    ..1.    BL       _printf_char_common ; 0x800093e
        0x080002dc:    4604        .F      MOV      r4,r0
        0x080002de:    2000        .       MOVS     r0,#0
        0x080002e0:    4669        iF      MOV      r1,sp
        0x080002e2:    f000fb3f    ..?.    BL       _sputc ; 0x8000964
        0x080002e6:    4620         F      MOV      r0,r4
        0x080002e8:    bc1c        ..      POP      {r2-r4}
        0x080002ea:    f85dfb14    ]...    LDR      pc,[sp],#0x14
    $d
        0x080002ee:    0000        ..      DCW    0
        0x080002f0:    00000691    ....    DCD    1681
    $t
    .text
    _printf_pre_padding
        0x080002f4:    b570        p.      PUSH     {r4-r6,lr}
        0x080002f6:    4604        .F      MOV      r4,r0
        0x080002f8:    6985        .i      LDR      r5,[r0,#0x18]
        0x080002fa:    6800        .h      LDR      r0,[r0,#0]
        0x080002fc:    06c1        ..      LSLS     r1,r0,#27
        0x080002fe:    d501        ..      BPL      0x8000304 ; _printf_pre_padding + 16
        0x08000300:    2630        0&      MOVS     r6,#0x30
        0x08000302:    e000        ..      B        0x8000306 ; _printf_pre_padding + 18
        0x08000304:    2620         &      MOVS     r6,#0x20
        0x08000306:    07c0        ..      LSLS     r0,r0,#31
        0x08000308:    d007        ..      BEQ      0x800031a ; _printf_pre_padding + 38
        0x0800030a:    bd70        p.      POP      {r4-r6,pc}
        0x0800030c:    e9d42101    ...!    LDRD     r2,r1,[r4,#4]
        0x08000310:    4630        0F      MOV      r0,r6
        0x08000312:    4790        .G      BLX      r2
        0x08000314:    6a20         j      LDR      r0,[r4,#0x20]
        0x08000316:    1c40        @.      ADDS     r0,r0,#1
        0x08000318:    6220         b      STR      r0,[r4,#0x20]
        0x0800031a:    1e6d        m.      SUBS     r5,r5,#1
        0x0800031c:    d5f6        ..      BPL      0x800030c ; _printf_pre_padding + 24
        0x0800031e:    bd70        p.      POP      {r4-r6,pc}
    _printf_post_padding
        0x08000320:    b570        p.      PUSH     {r4-r6,lr}
        0x08000322:    4604        .F      MOV      r4,r0
        0x08000324:    6985        .i      LDR      r5,[r0,#0x18]
        0x08000326:    7800        .x      LDRB     r0,[r0,#0]
        0x08000328:    07c0        ..      LSLS     r0,r0,#31
        0x0800032a:    d107        ..      BNE      0x800033c ; _printf_post_padding + 28
        0x0800032c:    bd70        p.      POP      {r4-r6,pc}
        0x0800032e:    e9d42101    ...!    LDRD     r2,r1,[r4,#4]
        0x08000332:    2020                MOVS     r0,#0x20
        0x08000334:    4790        .G      BLX      r2
        0x08000336:    6a20         j      LDR      r0,[r4,#0x20]
        0x08000338:    1c40        @.      ADDS     r0,r0,#1
        0x0800033a:    6220         b      STR      r0,[r4,#0x20]
        0x0800033c:    1e6d        m.      SUBS     r5,r5,#1
        0x0800033e:    d5f6        ..      BPL      0x800032e ; _printf_post_padding + 14
        0x08000340:    bd70        p.      POP      {r4-r6,pc}
    .text
    _printf_str
        0x08000342:    b570        p.      PUSH     {r4-r6,lr}
        0x08000344:    460c        .F      MOV      r4,r1
        0x08000346:    4605        .F      MOV      r5,r0
        0x08000348:    2a01        .*      CMP      r2,#1
        0x0800034a:    d005        ..      BEQ      0x8000358 ; _printf_str + 22
        0x0800034c:    7828        (x      LDRB     r0,[r5,#0]
        0x0800034e:    0680        ..      LSLS     r0,r0,#26
        0x08000350:    d500        ..      BPL      0x8000354 ; _printf_str + 18
        0x08000352:    69ea        .i      LDR      r2,[r5,#0x1c]
        0x08000354:    2300        .#      MOVS     r3,#0
        0x08000356:    e002        ..      B        0x800035e ; _printf_str + 28
        0x08000358:    2301        .#      MOVS     r3,#1
        0x0800035a:    e005        ..      B        0x8000368 ; _printf_str + 38
        0x0800035c:    1c5b        [.      ADDS     r3,r3,#1
        0x0800035e:    4293        .B      CMP      r3,r2
        0x08000360:    d202        ..      BCS      0x8000368 ; _printf_str + 38
        0x08000362:    5ce0        .\      LDRB     r0,[r4,r3]
        0x08000364:    2800        .(      CMP      r0,#0
        0x08000366:    d1f9        ..      BNE      0x800035c ; _printf_str + 26
        0x08000368:    69a8        .i      LDR      r0,[r5,#0x18]
        0x0800036a:    18e6        ..      ADDS     r6,r4,r3
        0x0800036c:    1ac0        ..      SUBS     r0,r0,r3
        0x0800036e:    61a8        .a      STR      r0,[r5,#0x18]
        0x08000370:    6a28        (j      LDR      r0,[r5,#0x20]
        0x08000372:    4418        .D      ADD      r0,r0,r3
        0x08000374:    6228        (b      STR      r0,[r5,#0x20]
        0x08000376:    4628        (F      MOV      r0,r5
        0x08000378:    f7ffffbc    ....    BL       _printf_pre_padding ; 0x80002f4
        0x0800037c:    e004        ..      B        0x8000388 ; _printf_str + 70
        0x0800037e:    e9d52101    ...!    LDRD     r2,r1,[r5,#4]
        0x08000382:    f8140b01    ....    LDRB     r0,[r4],#1
        0x08000386:    4790        .G      BLX      r2
        0x08000388:    42b4        .B      CMP      r4,r6
        0x0800038a:    d3f8        ..      BCC      0x800037e ; _printf_str + 60
        0x0800038c:    4628        (F      MOV      r0,r5
        0x0800038e:    f7ffffc7    ....    BL       _printf_post_padding ; 0x8000320
        0x08000392:    bd70        p.      POP      {r4-r6,pc}
    .text
    _printf_int_dec
        0x08000394:    e92d41f0    -..A    PUSH     {r4-r8,lr}
        0x08000398:    4606        .F      MOV      r6,r0
        0x0800039a:    2400        .$      MOVS     r4,#0
        0x0800039c:    6810        .h      LDR      r0,[r2,#0]
        0x0800039e:    2975        u)      CMP      r1,#0x75
        0x080003a0:    4631        1F      MOV      r1,r6
        0x080003a2:    a516        ..      ADR      r5,{pc}+0x5a ; 0x80003fc
        0x080003a4:    d010        ..      BEQ      0x80003c8 ; _printf_int_dec + 52
        0x080003a6:    f3af8000    ....    NOP.W    
        0x080003aa:    2800        .(      CMP      r0,#0
        0x080003ac:    da02        ..      BGE      0x80003b4 ; _printf_int_dec + 32
        0x080003ae:    4240        @B      RSBS     r0,r0,#0
        0x080003b0:    a513        ..      ADR      r5,{pc}+0x50 ; 0x8000400
        0x080003b2:    e007        ..      B        0x80003c4 ; _printf_int_dec + 48
        0x080003b4:    6831        1h      LDR      r1,[r6,#0]
        0x080003b6:    078a        ..      LSLS     r2,r1,#30
        0x080003b8:    d501        ..      BPL      0x80003be ; _printf_int_dec + 42
        0x080003ba:    a512        ..      ADR      r5,{pc}+0x4a ; 0x8000404
        0x080003bc:    e002        ..      B        0x80003c4 ; _printf_int_dec + 48
        0x080003be:    0749        I.      LSLS     r1,r1,#29
        0x080003c0:    d504        ..      BPL      0x80003cc ; _printf_int_dec + 56
        0x080003c2:    a511        ..      ADR      r5,{pc}+0x46 ; 0x8000408
        0x080003c4:    2401        .$      MOVS     r4,#1
        0x080003c6:    e001        ..      B        0x80003cc ; _printf_int_dec + 56
        0x080003c8:    f3af8000    ....    NOP.W    
        0x080003cc:    2100        .!      MOVS     r1,#0
        0x080003ce:    220a        ."      MOVS     r2,#0xa
        0x080003d0:    f1060724    ..$.    ADD      r7,r6,#0x24
        0x080003d4:    e009        ..      B        0x80003ea ; _printf_int_dec + 86
        0x080003d6:    fbb0fcf2    ....    UDIV     r12,r0,r2
        0x080003da:    fbb0f3f2    ....    UDIV     r3,r0,r2
        0x080003de:    fb02001c    ....    MLS      r0,r2,r12,r0
        0x080003e2:    3030        00      ADDS     r0,r0,#0x30
        0x080003e4:    5478        xT      STRB     r0,[r7,r1]
        0x080003e6:    4618        .F      MOV      r0,r3
        0x080003e8:    1c49        I.      ADDS     r1,r1,#1
        0x080003ea:    2800        .(      CMP      r0,#0
        0x080003ec:    d1f3        ..      BNE      0x80003d6 ; _printf_int_dec + 66
        0x080003ee:    4623        #F      MOV      r3,r4
        0x080003f0:    462a        *F      MOV      r2,r5
        0x080003f2:    4630        0F      MOV      r0,r6
        0x080003f4:    e8bd41f0    ...A    POP      {r4-r8,lr}
        0x080003f8:    f000ba42    ..B.    B.W      _printf_int_common ; 0x8000880
    $d
        0x080003fc:    00000000    ....    DCD    0
        0x08000400:    0000002d    -...    DCD    45
        0x08000404:    0000002b    +...    DCD    43
        0x08000408:    00000020     ...    DCD    32
    $t
    .text
    _printf_int_hex
    _printf_longlong_hex
        0x0800040c:    b570        p.      PUSH     {r4-r6,lr}
        0x0800040e:    4604        .F      MOV      r4,r0
        0x08000410:    460d        .F      MOV      r5,r1
        0x08000412:    4621        !F      MOV      r1,r4
        0x08000414:    6810        .h      LDR      r0,[r2,#0]
        0x08000416:    f3af8000    ....    NOP.W    
        0x0800041a:    8821        !.      LDRH     r1,[r4,#0]
        0x0800041c:    0509        ..      LSLS     r1,r1,#20
        0x0800041e:    d502        ..      BPL      0x8000426 ; _printf_int_hex + 26
        0x08000420:    4a0f        .J      LDR      r2,[pc,#60] ; [0x8000460] = 0x609a
        0x08000422:    447a        zD      ADD      r2,r2,pc
        0x08000424:    e002        ..      B        0x800042c ; _printf_int_hex + 32
        0x08000426:    4a0e        .J      LDR      r2,[pc,#56] ; [0x8000460] = 0x609a
        0x08000428:    447a        zD      ADD      r2,r2,pc
        0x0800042a:    320e        .2      ADDS     r2,r2,#0xe
        0x0800042c:    2100        .!      MOVS     r1,#0
        0x0800042e:    f1040324    ..$.    ADD      r3,r4,#0x24
        0x08000432:    e005        ..      B        0x8000440 ; _printf_int_hex + 52
        0x08000434:    f000060f    ....    AND      r6,r0,#0xf
        0x08000438:    0900        ..      LSRS     r0,r0,#4
        0x0800043a:    5d96        .]      LDRB     r6,[r2,r6]
        0x0800043c:    545e        ^T      STRB     r6,[r3,r1]
        0x0800043e:    1c49        I.      ADDS     r1,r1,#1
        0x08000440:    2800        .(      CMP      r0,#0
        0x08000442:    d1f7        ..      BNE      0x8000434 ; _printf_int_hex + 40
        0x08000444:    7820         x      LDRB     r0,[r4,#0]
        0x08000446:    2300        .#      MOVS     r3,#0
        0x08000448:    0700        ..      LSLS     r0,r0,#28
        0x0800044a:    d504        ..      BPL      0x8000456 ; _printf_int_hex + 74
        0x0800044c:    2d70        p-      CMP      r5,#0x70
        0x0800044e:    d002        ..      BEQ      0x8000456 ; _printf_int_hex + 74
        0x08000450:    b109        ..      CBZ      r1,0x8000456 ; _printf_int_hex + 74
        0x08000452:    2302        .#      MOVS     r3,#2
        0x08000454:    3211        .2      ADDS     r2,r2,#0x11
        0x08000456:    4620         F      MOV      r0,r4
        0x08000458:    e8bd4070    ..p@    POP      {r4-r6,lr}
        0x0800045c:    f000ba10    ....    B.W      _printf_int_common ; 0x8000880
    $d
        0x08000460:    0000609a    .`..    DCD    24730
    $t
    .text
    __printf
        0x08000464:    e92d5ff0    -.._    PUSH     {r4-r12,lr}
        0x08000468:    4689        .F      MOV      r9,r1
        0x0800046a:    4604        .F      MOV      r4,r0
        0x0800046c:    f04f0a00    O...    MOV      r10,#0
        0x08000470:    f8dfb124    ..$.    LDR      r11,[pc,#292] ; [0x8000598] = 0x6070
        0x08000474:    44fb        .D      ADD      r11,r11,pc
        0x08000476:    f8c0a020    .. .    STR      r10,[r0,#0x20]
        0x0800047a:    4620         F      MOV      r0,r4
        0x0800047c:    68e1        .h      LDR      r1,[r4,#0xc]
        0x0800047e:    4788        .G      BLX      r1
        0x08000480:    2800        .(      CMP      r0,#0
        0x08000482:    d07d        }.      BEQ      0x8000580 ; __printf + 284
        0x08000484:    2825        %(      CMP      r0,#0x25
        0x08000486:    d006        ..      BEQ      0x8000496 ; __printf + 50
        0x08000488:    e9d42101    ...!    LDRD     r2,r1,[r4,#4]
        0x0800048c:    4790        .G      BLX      r2
        0x0800048e:    6a20         j      LDR      r0,[r4,#0x20]
        0x08000490:    1c40        @.      ADDS     r0,r0,#1
        0x08000492:    6220         b      STR      r0,[r4,#0x20]
        0x08000494:    e7f1        ..      B        0x800047a ; __printf + 22
        0x08000496:    2500        .%      MOVS     r5,#0
        0x08000498:    465f        _F      MOV      r7,r11
        0x0800049a:    4620         F      MOV      r0,r4
        0x0800049c:    68e1        .h      LDR      r1,[r4,#0xc]
        0x0800049e:    4788        .G      BLX      r1
        0x080004a0:    2820         (      CMP      r0,#0x20
        0x080004a2:    4606        .F      MOV      r6,r0
        0x080004a4:    db07        ..      BLT      0x80004b6 ; __printf + 82
        0x080004a6:    2e31        1.      CMP      r6,#0x31
        0x080004a8:    d205        ..      BCS      0x80004b6 ; __printf + 82
        0x080004aa:    19b8        ..      ADDS     r0,r7,r6
        0x080004ac:    f8100c20    .. .    LDRB     r0,[r0,#-0x20]
        0x080004b0:    b108        ..      CBZ      r0,0x80004b6 ; __printf + 82
        0x080004b2:    4305        .C      ORRS     r5,r5,r0
        0x080004b4:    e7f1        ..      B        0x800049a ; __printf + 54
        0x080004b6:    07a8        ..      LSLS     r0,r5,#30
        0x080004b8:    d501        ..      BPL      0x80004be ; __printf + 90
        0x080004ba:    f0250504    %...    BIC      r5,r5,#4
        0x080004be:    f8c4a01c    ....    STR      r10,[r4,#0x1c]
        0x080004c2:    2700        .'      MOVS     r7,#0
        0x080004c4:    f8c4a018    ....    STR      r10,[r4,#0x18]
        0x080004c8:    2e2a        *.      CMP      r6,#0x2a
        0x080004ca:    d009        ..      BEQ      0x80004e0 ; __printf + 124
        0x080004cc:    4630        0F      MOV      r0,r6
        0x080004ce:    f002f8b2    ....    BL       _is_digit ; 0x8002636
        0x080004d2:    b338        8.      CBZ      r0,0x8000524 ; __printf + 192
        0x080004d4:    eb040887    ....    ADD      r8,r4,r7,LSL #2
        0x080004d8:    3e30        0>      SUBS     r6,r6,#0x30
        0x080004da:    f8c86018    ...`    STR      r6,[r8,#0x18]
        0x080004de:    e019        ..      B        0x8000514 ; __printf + 176
        0x080004e0:    f8591b04    Y...    LDR      r1,[r9],#4
        0x080004e4:    4620         F      MOV      r0,r4
        0x080004e6:    eb040287    ....    ADD      r2,r4,r7,LSL #2
        0x080004ea:    6191        .a      STR      r1,[r2,#0x18]
        0x080004ec:    68e1        .h      LDR      r1,[r4,#0xc]
        0x080004ee:    4788        .G      BLX      r1
        0x080004f0:    2f01        ./      CMP      r7,#1
        0x080004f2:    4606        .F      MOV      r6,r0
        0x080004f4:    d118        ..      BNE      0x8000528 ; __printf + 196
        0x080004f6:    69e0        .i      LDR      r0,[r4,#0x1c]
        0x080004f8:    2800        .(      CMP      r0,#0
        0x080004fa:    da20         .      BGE      0x800053e ; __printf + 218
        0x080004fc:    f0250520    %. .    BIC      r5,r5,#0x20
        0x08000500:    e01d        ..      B        0x800053e ; __printf + 218
        0x08000502:    f8d80018    ....    LDR      r0,[r8,#0x18]
        0x08000506:    eb000080    ....    ADD      r0,r0,r0,LSL #2
        0x0800050a:    eb060040    ..@.    ADD      r0,r6,r0,LSL #1
        0x0800050e:    3830        08      SUBS     r0,r0,#0x30
        0x08000510:    f8c80018    ....    STR      r0,[r8,#0x18]
        0x08000514:    4620         F      MOV      r0,r4
        0x08000516:    68e1        .h      LDR      r1,[r4,#0xc]
        0x08000518:    4788        .G      BLX      r1
        0x0800051a:    4606        .F      MOV      r6,r0
        0x0800051c:    f002f88b    ....    BL       _is_digit ; 0x8002636
        0x08000520:    2800        .(      CMP      r0,#0
        0x08000522:    d1ee        ..      BNE      0x8000502 ; __printf + 158
        0x08000524:    2f01        ./      CMP      r7,#1
        0x08000526:    d00a        ..      BEQ      0x800053e ; __printf + 218
        0x08000528:    2e2e        ..      CMP      r6,#0x2e
        0x0800052a:    d108        ..      BNE      0x800053e ; __printf + 218
        0x0800052c:    4620         F      MOV      r0,r4
        0x0800052e:    68e1        .h      LDR      r1,[r4,#0xc]
        0x08000530:    4788        .G      BLX      r1
        0x08000532:    1c7f        ..      ADDS     r7,r7,#1
        0x08000534:    4606        .F      MOV      r6,r0
        0x08000536:    2f02        ./      CMP      r7,#2
        0x08000538:    f0450520    E. .    ORR      r5,r5,#0x20
        0x0800053c:    dbc4        ..      BLT      0x80004c8 ; __printf + 100
        0x0800053e:    69a0        .i      LDR      r0,[r4,#0x18]
        0x08000540:    2800        .(      CMP      r0,#0
        0x08000542:    da03        ..      BGE      0x800054c ; __printf + 232
        0x08000544:    4240        @B      RSBS     r0,r0,#0
        0x08000546:    f0450501    E...    ORR      r5,r5,#1
        0x0800054a:    61a0        .a      STR      r0,[r4,#0x18]
        0x0800054c:    07e8        ..      LSLS     r0,r5,#31
        0x0800054e:    d001        ..      BEQ      0x8000554 ; __printf + 240
        0x08000550:    f0250510    %...    BIC      r5,r5,#0x10
        0x08000554:    b1a6        ..      CBZ      r6,0x8000580 ; __printf + 284
        0x08000556:    f1a60041    ..A.    SUB      r0,r6,#0x41
        0x0800055a:    2819        .(      CMP      r0,#0x19
        0x0800055c:    d802        ..      BHI      0x8000564 ; __printf + 256
        0x0800055e:    3620         6      ADDS     r6,r6,#0x20
        0x08000560:    f4456500    E..e    ORR      r5,r5,#0x800
        0x08000564:    464a        JF      MOV      r2,r9
        0x08000566:    4631        1F      MOV      r1,r6
        0x08000568:    4620         F      MOV      r0,r4
        0x0800056a:    6025        %`      STR      r5,[r4,#0]
        0x0800056c:    464d        MF      MOV      r5,r9
        0x0800056e:    f7fffdf7    ....    BL       _printf_d ; 0x8000160
        0x08000572:    b160        `.      CBZ      r0,0x800058e ; __printf + 298
        0x08000574:    2801        .(      CMP      r0,#1
        0x08000576:    d007        ..      BEQ      0x8000588 ; __printf + 292
        0x08000578:    1ded        ..      ADDS     r5,r5,#7
        0x0800057a:    f0250007    %...    BIC      r0,r5,#7
        0x0800057e:    e000        ..      B        0x8000582 ; __printf + 286
        0x08000580:    e007        ..      B        0x8000592 ; __printf + 302
        0x08000582:    f1000908    ....    ADD      r9,r0,#8
        0x08000586:    e778        x.      B        0x800047a ; __printf + 22
        0x08000588:    f1050904    ....    ADD      r9,r5,#4
        0x0800058c:    e775        u.      B        0x800047a ; __printf + 22
        0x0800058e:    4630        0F      MOV      r0,r6
        0x08000590:    e77a        z.      B        0x8000488 ; __printf + 36
        0x08000592:    6a20         j      LDR      r0,[r4,#0x20]
        0x08000594:    e8bd9ff0    ....    POP      {r4-r12,pc}
    $d
        0x08000598:    00006070    p`..    DCD    24688
    $t
    .text
    srand
        0x0800059c:    490b        .I      LDR      r1,[pc,#44] ; [0x80005cc] = 0x200045a8
        0x0800059e:    b510        ..      PUSH     {r4,lr}
        0x080005a0:    f1a1027c    ..|.    SUB      r2,r1,#0x7c
        0x080005a4:    4c0a        .L      LDR      r4,[pc,#40] ; [0x80005d0] = 0x66d619e1
        0x080005a6:    e9c21237    ..7.    STRD     r1,r2,[r2,#0xdc]
        0x080005aa:    2137        7!      MOVS     r1,#0x37
        0x080005ac:    e006        ..      B        0x80005bc ; srand + 32
        0x080005ae:    eb004310    ...C    ADD      r3,r0,r0,LSR #16
        0x080005b2:    f8423021    B.!0    STR      r3,[r2,r1,LSL #2]
        0x080005b6:    4b07        .K      LDR      r3,[pc,#28] ; [0x80005d4] = 0x10dcd
        0x080005b8:    fb004003    ...@    MLA      r0,r0,r3,r4
        0x080005bc:    1e0b        ..      SUBS     r3,r1,#0
        0x080005be:    f1a10101    ....    SUB      r1,r1,#1
        0x080005c2:    dcf4        ..      BGT      0x80005ae ; srand + 18
        0x080005c4:    bd10        ..      POP      {r4,pc}
    _rand_init
        0x080005c6:    2001        .       MOVS     r0,#1
        0x080005c8:    e7e8        ..      B        srand ; 0x800059c
    $d
        0x080005ca:    0000        ..      DCW    0
        0x080005cc:    200045a8    .E.     DCD    536888744
        0x080005d0:    66d619e1    ...f    DCD    1725307361
        0x080005d4:    00010dcd    ....    DCD    69069
    $t
    .text
    strstr
        0x080005d8:    b530        0.      PUSH     {r4,r5,lr}
        0x080005da:    4605        .F      MOV      r5,r0
        0x080005dc:    460b        .F      MOV      r3,r1
        0x080005de:    462a        *F      MOV      r2,r5
        0x080005e0:    f8134b01    ...K    LDRB     r4,[r3],#1
        0x080005e4:    f8120b01    ....    LDRB     r0,[r2],#1
        0x080005e8:    b108        ..      CBZ      r0,0x80005ee ; strstr + 22
        0x080005ea:    42a0        .B      CMP      r0,r4
        0x080005ec:    d0f8        ..      BEQ      0x80005e0 ; strstr + 8
        0x080005ee:    b11c        ..      CBZ      r4,0x80005f8 ; strstr + 32
        0x080005f0:    2800        .(      CMP      r0,#0
        0x080005f2:    d002        ..      BEQ      0x80005fa ; strstr + 34
        0x080005f4:    1c6d        m.      ADDS     r5,r5,#1
        0x080005f6:    e7f1        ..      B        0x80005dc ; strstr + 4
        0x080005f8:    4628        (F      MOV      r0,r5
        0x080005fa:    bd30        0.      POP      {r4,r5,pc}
    .text
    strlen
        0x080005fc:    b510        ..      PUSH     {r4,lr}
        0x080005fe:    1c43        C.      ADDS     r3,r0,#1
        0x08000600:    e002        ..      B        0x8000608 ; strlen + 12
        0x08000602:    f8101b01    ....    LDRB     r1,[r0],#1
        0x08000606:    b171        q.      CBZ      r1,0x8000626 ; strlen + 42
        0x08000608:    0781        ..      LSLS     r1,r0,#30
        0x0800060a:    d1fa        ..      BNE      0x8000602 ; strlen + 6
        0x0800060c:    f04f3201    O..2    MOV      r2,#0x1010101
        0x08000610:    c802        ..      LDM      r0!,{r1}
        0x08000612:    1a8c        ..      SUBS     r4,r1,r2
        0x08000614:    438c        .C      BICS     r4,r4,r1
        0x08000616:    ea1411c2    ....    ANDS     r1,r4,r2,LSL #7
        0x0800061a:    d0f9        ..      BEQ      0x8000610 ; strlen + 20
        0x0800061c:    1ac0        ..      SUBS     r0,r0,r3
        0x0800061e:    060a        ..      LSLS     r2,r1,#24
        0x08000620:    d003        ..      BEQ      0x800062a ; strlen + 46
        0x08000622:    1ec0        ..      SUBS     r0,r0,#3
        0x08000624:    bd10        ..      POP      {r4,pc}
        0x08000626:    1ac0        ..      SUBS     r0,r0,r3
        0x08000628:    bd10        ..      POP      {r4,pc}
        0x0800062a:    040a        ..      LSLS     r2,r1,#16
        0x0800062c:    d001        ..      BEQ      0x8000632 ; strlen + 54
        0x0800062e:    1e80        ..      SUBS     r0,r0,#2
        0x08000630:    bd10        ..      POP      {r4,pc}
        0x08000632:    0209        ..      LSLS     r1,r1,#8
        0x08000634:    d0fc        ..      BEQ      0x8000630 ; strlen + 52
        0x08000636:    1e40        @.      SUBS     r0,r0,#1
        0x08000638:    bd10        ..      POP      {r4,pc}
    .text
    strncmp
        0x0800063a:    ea400301    @...    ORR      r3,r0,r1
        0x0800063e:    b570        p.      PUSH     {r4-r6,lr}
        0x08000640:    079b        ..      LSLS     r3,r3,#30
        0x08000642:    d12e        ..      BNE      0x80006a2 ; strncmp + 104
        0x08000644:    f04f3601    O..6    MOV      r6,#0x1010101
        0x08000648:    2a04        .*      CMP      r2,#4
        0x0800064a:    d32a        *.      BCC      0x80006a2 ; strncmp + 104
        0x0800064c:    c808        ..      LDM      r0!,{r3}
        0x0800064e:    c910        ..      LDM      r1!,{r4}
        0x08000650:    1b9d        ..      SUBS     r5,r3,r6
        0x08000652:    439d        .C      BICS     r5,r5,r3
        0x08000654:    1f12        ..      SUBS     r2,r2,#4
        0x08000656:    ea1515c6    ....    ANDS     r5,r5,r6,LSL #7
        0x0800065a:    d017        ..      BEQ      0x800068c ; strncmp + 82
        0x0800065c:    b2d8        ..      UXTB     r0,r3
        0x0800065e:    b2e1        ..      UXTB     r1,r4
        0x08000660:    1a40        @.      SUBS     r0,r0,r1
        0x08000662:    ea506105    P..a    ORRS     r1,r0,r5,LSL #24
        0x08000666:    d110        ..      BNE      0x800068a ; strncmp + 80
        0x08000668:    b298        ..      UXTH     r0,r3
        0x0800066a:    b2a1        ..      UXTH     r1,r4
        0x0800066c:    1a40        @.      SUBS     r0,r0,r1
        0x0800066e:    ea504105    P..A    ORRS     r1,r0,r5,LSL #16
        0x08000672:    d10a        ..      BNE      0x800068a ; strncmp + 80
        0x08000674:    f023407f    #..@    BIC      r0,r3,#0xff000000
        0x08000678:    f024417f    $..A    BIC      r1,r4,#0xff000000
        0x0800067c:    1a40        @.      SUBS     r0,r0,r1
        0x0800067e:    ea502105    P..!    ORRS     r1,r0,r5,LSL #8
        0x08000682:    d102        ..      BNE      0x800068a ; strncmp + 80
        0x08000684:    0e18        ..      LSRS     r0,r3,#24
        0x08000686:    eba06014    ...`    SUB      r0,r0,r4,LSR #24
        0x0800068a:    bd70        p.      POP      {r4-r6,pc}
        0x0800068c:    42a3        .B      CMP      r3,r4
        0x0800068e:    d0db        ..      BEQ      0x8000648 ; strncmp + 14
        0x08000690:    ba18        ..      REV      r0,r3
        0x08000692:    ba21        !.      REV      r1,r4
        0x08000694:    4288        .B      CMP      r0,r1
        0x08000696:    d901        ..      BLS      0x800069c ; strncmp + 98
        0x08000698:    2001        .       MOVS     r0,#1
        0x0800069a:    bd70        p.      POP      {r4-r6,pc}
        0x0800069c:    f04f30ff    O..0    MOV      r0,#0xffffffff
        0x080006a0:    bd70        p.      POP      {r4-r6,pc}
        0x080006a2:    b90a        ..      CBNZ     r2,0x80006a8 ; strncmp + 110
        0x080006a4:    2000        .       MOVS     r0,#0
        0x080006a6:    bd70        p.      POP      {r4-r6,pc}
        0x080006a8:    f8103b01    ...;    LDRB     r3,[r0],#1
        0x080006ac:    f8114b01    ...K    LDRB     r4,[r1],#1
        0x080006b0:    b163        c.      CBZ      r3,0x80006cc ; strncmp + 146
        0x080006b2:    42a3        .B      CMP      r3,r4
        0x080006b4:    d10a        ..      BNE      0x80006cc ; strncmp + 146
        0x080006b6:    1e52        R.      SUBS     r2,r2,#1
        0x080006b8:    d008        ..      BEQ      0x80006cc ; strncmp + 146
        0x080006ba:    f8103b01    ...;    LDRB     r3,[r0],#1
        0x080006be:    f8114b01    ...K    LDRB     r4,[r1],#1
        0x080006c2:    b11b        ..      CBZ      r3,0x80006cc ; strncmp + 146
        0x080006c4:    42a3        .B      CMP      r3,r4
        0x080006c6:    d101        ..      BNE      0x80006cc ; strncmp + 146
        0x080006c8:    1e52        R.      SUBS     r2,r2,#1
        0x080006ca:    d1ed        ..      BNE      0x80006a8 ; strncmp + 110
        0x080006cc:    1b18        ..      SUBS     r0,r3,r4
        0x080006ce:    bd70        p.      POP      {r4-r6,pc}
    .text
    strcat
        0x080006d0:    1e42        B.      SUBS     r2,r0,#1
        0x080006d2:    f8123f01    ...?    LDRB     r3,[r2,#1]!
        0x080006d6:    2b00        .+      CMP      r3,#0
        0x080006d8:    d1fb        ..      BNE      0x80006d2 ; strcat + 2
        0x080006da:    f8113b01    ...;    LDRB     r3,[r1],#1
        0x080006de:    2b00        .+      CMP      r3,#0
        0x080006e0:    f8023b01    ...;    STRB     r3,[r2],#1
        0x080006e4:    d1f9        ..      BNE      0x80006da ; strcat + 10
        0x080006e6:    4770        pG      BX       lr
    .text
    __aeabi_memcpy
    __rt_memcpy
        0x080006e8:    2a03        .*      CMP      r2,#3
        0x080006ea:    f2408030    @.0.    BLS.W    _memcpy_lastbytes ; 0x800074e
        0x080006ee:    f0100c03    ....    ANDS     r12,r0,#3
        0x080006f2:    f0008015    ....    BEQ.W    0x8000720 ; __aeabi_memcpy + 56
        0x080006f6:    f8113b01    ...;    LDRB     r3,[r1],#1
        0x080006fa:    f1bc0f02    ....    CMP      r12,#2
        0x080006fe:    4462        bD      ADD      r2,r2,r12
        0x08000700:    bf98        ..      IT       LS
        0x08000702:    f811cb01    ....    LDRBLS   r12,[r1],#1
        0x08000706:    f8003b01    ...;    STRB     r3,[r0],#1
        0x0800070a:    bf38        8.      IT       CC
        0x0800070c:    f8113b01    ...;    LDRBCC   r3,[r1],#1
        0x08000710:    f1a20204    ....    SUB      r2,r2,#4
        0x08000714:    bf98        ..      IT       LS
        0x08000716:    f800cb01    ....    STRBLS   r12,[r0],#1
        0x0800071a:    bf38        8.      IT       CC
        0x0800071c:    f8003b01    ...;    STRBCC   r3,[r0],#1
        0x08000720:    f0110303    ....    ANDS     r3,r1,#3
        0x08000724:    f0008025    ..%.    BEQ.W    __aeabi_memcpy4 ; 0x8000772
        0x08000728:    3a08        .:      SUBS     r2,r2,#8
        0x0800072a:    f0c08008    ....    BCC.W    0x800073e ; __aeabi_memcpy + 86
        0x0800072e:    f8513b04    Q..;    LDR      r3,[r1],#4
        0x08000732:    3a08        .:      SUBS     r2,r2,#8
        0x08000734:    f851cb04    Q...    LDR      r12,[r1],#4
        0x08000738:    e8a01008    ....    STM      r0!,{r3,r12}
        0x0800073c:    e7f5        ..      B        0x800072a ; __aeabi_memcpy + 66
        0x0800073e:    1d12        ..      ADDS     r2,r2,#4
        0x08000740:    bf5c        \.      ITT      PL
        0x08000742:    f8513b04    Q..;    LDRPL    r3,[r1],#4
        0x08000746:    f8403b04    @..;    STRPL    r3,[r0],#4
        0x0800074a:    f3af8000    ....    NOP.W    
    _memcpy_lastbytes
        0x0800074e:    07d2        ..      LSLS     r2,r2,#31
        0x08000750:    bf24        $.      ITT      CS
        0x08000752:    f8113b01    ...;    LDRBCS   r3,[r1],#1
        0x08000756:    f811cb01    ....    LDRBCS   r12,[r1],#1
        0x0800075a:    bf48        H.      IT       MI
        0x0800075c:    f8112b01    ...+    LDRBMI   r2,[r1],#1
        0x08000760:    bf24        $.      ITT      CS
        0x08000762:    f8003b01    ...;    STRBCS   r3,[r0],#1
        0x08000766:    f800cb01    ....    STRBCS   r12,[r0],#1
        0x0800076a:    bf48        H.      IT       MI
        0x0800076c:    f8002b01    ...+    STRBMI   r2,[r0],#1
        0x08000770:    4770        pG      BX       lr
    .text
    __aeabi_memcpy4
    __aeabi_memcpy8
    __rt_memcpy_w
        0x08000772:    b510        ..      PUSH     {r4,lr}
        0x08000774:    3a20         :      SUBS     r2,r2,#0x20
        0x08000776:    f0c0800b    ....    BCC.W    0x8000790 ; __aeabi_memcpy4 + 30
        0x0800077a:    e8b15018    ...P    LDM      r1!,{r3,r4,r12,lr}
        0x0800077e:    3a20         :      SUBS     r2,r2,#0x20
        0x08000780:    e8a05018    ...P    STM      r0!,{r3,r4,r12,lr}
        0x08000784:    e8b15018    ...P    LDM      r1!,{r3,r4,r12,lr}
        0x08000788:    e8a05018    ...P    STM      r0!,{r3,r4,r12,lr}
        0x0800078c:    f4bfaff5    ....    BCS.W    0x800077a ; __aeabi_memcpy4 + 8
        0x08000790:    ea5f7c02    _..|    LSLS     r12,r2,#28
        0x08000794:    bf24        $.      ITT      CS
        0x08000796:    e8b15018    ...P    LDMCS    r1!,{r3,r4,r12,lr}
        0x0800079a:    e8a05018    ...P    STMCS    r0!,{r3,r4,r12,lr}
        0x0800079e:    bf44        D.      ITT      MI
        0x080007a0:    c918        ..      LDMMI    r1!,{r3,r4}
        0x080007a2:    c018        ..      STMMI    r0!,{r3,r4}
        0x080007a4:    e8bd4010    ...@    POP      {r4,lr}
        0x080007a8:    ea5f7c82    _..|    LSLS     r12,r2,#30
        0x080007ac:    bf24        $.      ITT      CS
        0x080007ae:    f8513b04    Q..;    LDRCS    r3,[r1],#4
        0x080007b2:    f8403b04    @..;    STRCS    r3,[r0],#4
        0x080007b6:    bf08        ..      IT       EQ
        0x080007b8:    4770        pG      BXEQ     lr
    _memcpy_lastbytes_aligned
        0x080007ba:    07d2        ..      LSLS     r2,r2,#31
        0x080007bc:    bf28        (.      IT       CS
        0x080007be:    f8313b02    1..;    LDRHCS   r3,[r1],#2
        0x080007c2:    bf48        H.      IT       MI
        0x080007c4:    f8112b01    ...+    LDRBMI   r2,[r1],#1
        0x080007c8:    bf28        (.      IT       CS
        0x080007ca:    f8203b02     ..;    STRHCS   r3,[r0],#2
        0x080007ce:    bf48        H.      IT       MI
        0x080007d0:    f8002b01    ...+    STRBMI   r2,[r0],#1
        0x080007d4:    4770        pG      BX       lr
    .text
    __aeabi_memset
        0x080007d6:    f00203ff    ....    AND      r3,r2,#0xff
        0x080007da:    ea432203    C.."    ORR      r2,r3,r3,LSL #8
        0x080007de:    ea424202    B..B    ORR      r2,r2,r2,LSL #16
        0x080007e2:    f000b802    ....    B.W      _memset ; 0x80007ea
    .text
    __aeabi_memclr
    __rt_memclr
        0x080007e6:    f04f0200    O...    MOV      r2,#0
    _memset
        0x080007ea:    2904        .)      CMP      r1,#4
        0x080007ec:    f0c08012    ....    BCC.W    0x8000814 ; _memset + 42
        0x080007f0:    f0100c03    ....    ANDS     r12,r0,#3
        0x080007f4:    f000801b    ....    BEQ.W    _memset_w ; 0x800082e
        0x080007f8:    f1cc0c04    ....    RSB      r12,r12,#4
        0x080007fc:    f1bc0f02    ....    CMP      r12,#2
        0x08000800:    bf18        ..      IT       NE
        0x08000802:    f8002b01    ...+    STRBNE   r2,[r0],#1
        0x08000806:    bfa8        ..      IT       GE
        0x08000808:    f8202b02     ..+    STRHGE   r2,[r0],#2
        0x0800080c:    eba1010c    ....    SUB      r1,r1,r12
        0x08000810:    f000b80d    ....    B.W      _memset_w ; 0x800082e
        0x08000814:    ea5f7cc1    _..|    LSLS     r12,r1,#31
        0x08000818:    bf24        $.      ITT      CS
        0x0800081a:    f8002b01    ...+    STRBCS   r2,[r0],#1
        0x0800081e:    f8002b01    ...+    STRBCS   r2,[r0],#1
        0x08000822:    bf48        H.      IT       MI
        0x08000824:    f8002b01    ...+    STRBMI   r2,[r0],#1
        0x08000828:    4770        pG      BX       lr
    .text
    __aeabi_memclr4
    __aeabi_memclr8
    __rt_memclr_w
        0x0800082a:    f04f0200    O...    MOV      r2,#0
    _memset_w
        0x0800082e:    b500        ..      PUSH     {lr}
        0x08000830:    4613        .F      MOV      r3,r2
        0x08000832:    4694        .F      MOV      r12,r2
        0x08000834:    4696        .F      MOV      lr,r2
        0x08000836:    3920         9      SUBS     r1,r1,#0x20
        0x08000838:    bf22        ".      ITTT     CS
        0x0800083a:    e8a0500c    ...P    STMCS    r0!,{r2,r3,r12,lr}
        0x0800083e:    e8a0500c    ...P    STMCS    r0!,{r2,r3,r12,lr}
        0x08000842:    f1b10120    .. .    SUBSCS   r1,r1,#0x20
        0x08000846:    f4bfaff7    ....    BCS.W    0x8000838 ; _memset_w + 10
        0x0800084a:    0709        ..      LSLS     r1,r1,#28
        0x0800084c:    bf28        (.      IT       CS
        0x0800084e:    e8a0500c    ...P    STMCS    r0!,{r2,r3,r12,lr}
        0x08000852:    bf48        H.      IT       MI
        0x08000854:    c00c        ..      STMMI    r0!,{r2,r3}
        0x08000856:    f85deb04    ]...    POP      {lr}
        0x0800085a:    0089        ..      LSLS     r1,r1,#2
        0x0800085c:    bf28        (.      IT       CS
        0x0800085e:    f8402b04    @..+    STRCS    r2,[r0],#4
        0x08000862:    bf08        ..      IT       EQ
        0x08000864:    4770        pG      BXEQ     lr
        0x08000866:    bf48        H.      IT       MI
        0x08000868:    f8202b02     ..+    STRHMI   r2,[r0],#2
        0x0800086c:    f0114f80    ...O    TST      r1,#0x40000000
        0x08000870:    bf18        ..      IT       NE
        0x08000872:    f8002b01    ...+    STRBNE   r2,[r0],#1
        0x08000876:    4770        pG      BX       lr
    .text
    __use_two_region_memory
        0x08000878:    4770        pG      BX       lr
    __rt_heap_escrow$2region
        0x0800087a:    4770        pG      BX       lr
    __rt_heap_expand$2region
        0x0800087c:    4770        pG      BX       lr
    .text
    __I$use$semihosting
    __use_no_semihosting_swi
        0x0800087e:    4770        pG      BX       lr
    .text
    _printf_int_common
        0x08000880:    e92d47f0    -..G    PUSH     {r4-r10,lr}
        0x08000884:    460d        .F      MOV      r5,r1
        0x08000886:    4699        .F      MOV      r9,r3
        0x08000888:    4692        .F      MOV      r10,r2
        0x0800088a:    4604        .F      MOV      r4,r0
        0x0800088c:    f1000824    ..$.    ADD      r8,r0,#0x24
        0x08000890:    6801        .h      LDR      r1,[r0,#0]
        0x08000892:    0688        ..      LSLS     r0,r1,#26
        0x08000894:    d504        ..      BPL      0x80008a0 ; _printf_int_common + 32
        0x08000896:    69e0        .i      LDR      r0,[r4,#0x1c]
        0x08000898:    f0210110    !...    BIC      r1,r1,#0x10
        0x0800089c:    6021        !`      STR      r1,[r4,#0]
        0x0800089e:    e000        ..      B        0x80008a2 ; _printf_int_common + 34
        0x080008a0:    2001        .       MOVS     r0,#1
        0x080008a2:    42a8        .B      CMP      r0,r5
        0x080008a4:    dd01        ..      BLE      0x80008aa ; _printf_int_common + 42
        0x080008a6:    1b47        G.      SUBS     r7,r0,r5
        0x080008a8:    e000        ..      B        0x80008ac ; _printf_int_common + 44
        0x080008aa:    2700        .'      MOVS     r7,#0
        0x080008ac:    69a1        .i      LDR      r1,[r4,#0x18]
        0x080008ae:    197a        z.      ADDS     r2,r7,r5
        0x080008b0:    eb020009    ....    ADD      r0,r2,r9
        0x080008b4:    1a08        ..      SUBS     r0,r1,r0
        0x080008b6:    61a0        .a      STR      r0,[r4,#0x18]
        0x080008b8:    7820         x      LDRB     r0,[r4,#0]
        0x080008ba:    06c0        ..      LSLS     r0,r0,#27
        0x080008bc:    d402        ..      BMI      0x80008c4 ; _printf_int_common + 68
        0x080008be:    4620         F      MOV      r0,r4
        0x080008c0:    f7fffd18    ....    BL       _printf_pre_padding ; 0x80002f4
        0x080008c4:    2600        .&      MOVS     r6,#0
        0x080008c6:    e008        ..      B        0x80008da ; _printf_int_common + 90
        0x080008c8:    e9d42101    ...!    LDRD     r2,r1,[r4,#4]
        0x080008cc:    f81a0006    ....    LDRB     r0,[r10,r6]
        0x080008d0:    4790        .G      BLX      r2
        0x080008d2:    6a20         j      LDR      r0,[r4,#0x20]
        0x080008d4:    1c40        @.      ADDS     r0,r0,#1
        0x080008d6:    1c76        v.      ADDS     r6,r6,#1
        0x080008d8:    6220         b      STR      r0,[r4,#0x20]
        0x080008da:    454e        NE      CMP      r6,r9
        0x080008dc:    dbf4        ..      BLT      0x80008c8 ; _printf_int_common + 72
        0x080008de:    7820         x      LDRB     r0,[r4,#0]
        0x080008e0:    06c0        ..      LSLS     r0,r0,#27
        0x080008e2:    d50a        ..      BPL      0x80008fa ; _printf_int_common + 122
        0x080008e4:    4620         F      MOV      r0,r4
        0x080008e6:    f7fffd05    ....    BL       _printf_pre_padding ; 0x80002f4
        0x080008ea:    e006        ..      B        0x80008fa ; _printf_int_common + 122
        0x080008ec:    e9d42101    ...!    LDRD     r2,r1,[r4,#4]
        0x080008f0:    2030        0       MOVS     r0,#0x30
        0x080008f2:    4790        .G      BLX      r2
        0x080008f4:    6a20         j      LDR      r0,[r4,#0x20]
        0x080008f6:    1c40        @.      ADDS     r0,r0,#1
        0x080008f8:    6220         b      STR      r0,[r4,#0x20]
        0x080008fa:    1e38        8.      SUBS     r0,r7,#0
        0x080008fc:    f1a70701    ....    SUB      r7,r7,#1
        0x08000900:    dcf4        ..      BGT      0x80008ec ; _printf_int_common + 108
        0x08000902:    e007        ..      B        0x8000914 ; _printf_int_common + 148
        0x08000904:    e9d42101    ...!    LDRD     r2,r1,[r4,#4]
        0x08000908:    f8180005    ....    LDRB     r0,[r8,r5]
        0x0800090c:    4790        .G      BLX      r2
        0x0800090e:    6a20         j      LDR      r0,[r4,#0x20]
        0x08000910:    1c40        @.      ADDS     r0,r0,#1
        0x08000912:    6220         b      STR      r0,[r4,#0x20]
        0x08000914:    1e28        (.      SUBS     r0,r5,#0
        0x08000916:    f1a50501    ....    SUB      r5,r5,#1
        0x0800091a:    dcf3        ..      BGT      0x8000904 ; _printf_int_common + 132
        0x0800091c:    4620         F      MOV      r0,r4
        0x0800091e:    f7fffcff    ....    BL       _printf_post_padding ; 0x8000320
        0x08000922:    7820         x      LDRB     r0,[r4,#0]
        0x08000924:    0600        ..      LSLS     r0,r0,#24
        0x08000926:    d502        ..      BPL      0x800092e ; _printf_int_common + 174
        0x08000928:    2002        .       MOVS     r0,#2
        0x0800092a:    e8bd87f0    ....    POP      {r4-r10,pc}
        0x0800092e:    2001        .       MOVS     r0,#1
        0x08000930:    e7fb        ..      B        0x800092a ; _printf_int_common + 170
        0x08000932:    0000        ..      MOVS     r0,r0
    .text
    _printf_input_char
        0x08000934:    6901        .i      LDR      r1,[r0,#0x10]
        0x08000936:    1c4a        J.      ADDS     r2,r1,#1
        0x08000938:    6102        .a      STR      r2,[r0,#0x10]
        0x0800093a:    7808        .x      LDRB     r0,[r1,#0]
        0x0800093c:    4770        pG      BX       lr
    _printf_char_common
        0x0800093e:    b500        ..      PUSH     {lr}
        0x08000940:    b08f        ..      SUB      sp,sp,#0x3c
        0x08000942:    e9cd3101    ...1    STRD     r3,r1,[sp,#4]
        0x08000946:    2100        .!      MOVS     r1,#0
        0x08000948:    9105        ..      STR      r1,[sp,#0x14]
        0x0800094a:    4905        .I      LDR      r1,[pc,#20] ; [0x8000960] = 0xffffffe5
        0x0800094c:    4479        yD      ADD      r1,r1,pc
        0x0800094e:    e9cd1003    ....    STRD     r1,r0,[sp,#0xc]
        0x08000952:    4611        .F      MOV      r1,r2
        0x08000954:    4668        hF      MOV      r0,sp
        0x08000956:    f7fffd85    ....    BL       __printf ; 0x8000464
        0x0800095a:    b00f        ..      ADD      sp,sp,#0x3c
        0x0800095c:    bd00        ..      POP      {pc}
    $d
        0x0800095e:    0000        ..      DCW    0
        0x08000960:    ffffffe5    ....    DCD    4294967269
    $t
    .text
    _sputc
        0x08000964:    680a        .h      LDR      r2,[r1,#0]
        0x08000966:    f8020b01    ....    STRB     r0,[r2],#1
        0x0800096a:    600a        .`      STR      r2,[r1,#0]
        0x0800096c:    4770        pG      BX       lr
    .text
    _printf_cs_common
        0x0800096e:    b510        ..      PUSH     {r4,lr}
        0x08000970:    6943        Ci      LDR      r3,[r0,#0x14]
        0x08000972:    b113        ..      CBZ      r3,0x800097a ; _printf_cs_common + 12
        0x08000974:    f3af8000    ....    NOP.W    
        0x08000978:    e001        ..      B        0x800097e ; _printf_cs_common + 16
        0x0800097a:    f7fffce2    ....    BL       _printf_str ; 0x8000342
        0x0800097e:    2001        .       MOVS     r0,#1
        0x08000980:    bd10        ..      POP      {r4,pc}
    _printf_char
        0x08000982:    7812        .x      LDRB     r2,[r2,#0]
        0x08000984:    f1000124    ..$.    ADD      r1,r0,#0x24
        0x08000988:    700a        .p      STRB     r2,[r1,#0]
        0x0800098a:    2200        ."      MOVS     r2,#0
        0x0800098c:    704a        Jp      STRB     r2,[r1,#1]
        0x0800098e:    2201        ."      MOVS     r2,#1
        0x08000990:    e7ed        ..      B        _printf_cs_common ; 0x800096e
    _printf_string
        0x08000992:    6811        .h      LDR      r1,[r2,#0]
        0x08000994:    f04f32ff    O..2    MOV      r2,#0xffffffff
        0x08000998:    e7e9        ..      B        _printf_cs_common ; 0x800096e
        0x0800099a:    0000        ..      MOVS     r0,r0
    .text
    _printf_char_file
        0x0800099c:    4b07        .K      LDR      r3,[pc,#28] ; [0x80009bc] = 0x1d63
        0x0800099e:    b570        p.      PUSH     {r4-r6,lr}
        0x080009a0:    460d        .F      MOV      r5,r1
        0x080009a2:    447b        {D      ADD      r3,r3,pc
        0x080009a4:    f7ffffcb    ....    BL       _printf_char_common ; 0x800093e
        0x080009a8:    4604        .F      MOV      r4,r0
        0x080009aa:    4628        (F      MOV      r0,r5
        0x080009ac:    f000f808    ....    BL       ferror ; 0x80009c0
        0x080009b0:    b110        ..      CBZ      r0,0x80009b8 ; _printf_char_file + 28
        0x080009b2:    f04f30ff    O..0    MOV      r0,#0xffffffff
        0x080009b6:    bd70        p.      POP      {r4-r6,pc}
        0x080009b8:    4620         F      MOV      r0,r4
        0x080009ba:    bd70        p.      POP      {r4-r6,pc}
    $d
        0x080009bc:    00001d63    c...    DCD    7523
    $t
    .text
    ferror
        0x080009c0:    7b00        .{      LDRB     r0,[r0,#0xc]
        0x080009c2:    f0000080    ....    AND      r0,r0,#0x80
        0x080009c6:    4770        pG      BX       lr
    .text
    __user_setup_stackheap
        0x080009c8:    4675        uF      MOV      r5,lr
        0x080009ca:    f000f82b    ..+.    BL       __user_libspace ; 0x8000a24
        0x080009ce:    46ae        .F      MOV      lr,r5
        0x080009d0:    0005        ..      MOVS     r5,r0
        0x080009d2:    4669        iF      MOV      r1,sp
        0x080009d4:    4653        SF      MOV      r3,r10
        0x080009d6:    f0200007     ...    BIC      r0,r0,#7
        0x080009da:    4685        .F      MOV      sp,r0
        0x080009dc:    b018        ..      ADD      sp,sp,#0x60
        0x080009de:    b520         .      PUSH     {r5,lr}
        0x080009e0:    f7fffc52    ..R.    BL       __user_initial_stackheap ; 0x8000288
        0x080009e4:    e8bd4020    .. @    POP      {r5,lr}
        0x080009e8:    f04f0600    O...    MOV      r6,#0
        0x080009ec:    f04f0700    O...    MOV      r7,#0
        0x080009f0:    f04f0800    O...    MOV      r8,#0
        0x080009f4:    f04f0b00    O...    MOV      r11,#0
        0x080009f8:    f0210107    !...    BIC      r1,r1,#7
        0x080009fc:    46ac        .F      MOV      r12,r5
        0x080009fe:    e8ac09c0    ....    STM      r12!,{r6-r8,r11}
        0x08000a02:    e8ac09c0    ....    STM      r12!,{r6-r8,r11}
        0x08000a06:    e8ac09c0    ....    STM      r12!,{r6-r8,r11}
        0x08000a0a:    e8ac09c0    ....    STM      r12!,{r6-r8,r11}
        0x08000a0e:    468d        .F      MOV      sp,r1
        0x08000a10:    4770        pG      BX       lr
    .text
    exit
        0x08000a12:    b510        ..      PUSH     {r4,lr}
        0x08000a14:    4604        .F      MOV      r4,r0
        0x08000a16:    f3af8000    ....    NOP.W    
        0x08000a1a:    4620         F      MOV      r0,r4
        0x08000a1c:    e8bd4010    ...@    POP      {r4,lr}
        0x08000a20:    f7ffbbb8    ....    B        __rt_exit ; 0x8000194
    .text
    __user_libspace
    __user_perproc_libspace
    __user_perthread_libspace
        0x08000a24:    4800        .H      LDR      r0,[pc,#0] ; [0x8000a28] = 0x20004610
        0x08000a26:    4770        pG      BX       lr
    $d
        0x08000a28:    20004610    .F.     DCD    536888848
    $t
    i.BusFault_Handler
    BusFault_Handler
        0x08000a2c:    e7fe        ..      B        BusFault_Handler ; 0x8000a2c
    i.DebugMon_Handler
    DebugMon_Handler
        0x08000a2e:    4770        pG      BX       lr
    i.ESP8266DataProcessCallback
    ESP8266DataProcessCallback
        0x08000a30:    e92d47f0    -..G    PUSH     {r4-r10,lr}
        0x08000a34:    4c41        AL      LDR      r4,[pc,#260] ; [0x8000b3c] = 0x2000000c
        0x08000a36:    4680        .F      MOV      r8,r0
        0x08000a38:    4601        .F      MOV      r1,r0
        0x08000a3a:    7860        `x      LDRB     r0,[r4,#1]
        0x08000a3c:    4e3e        >N      LDR      r6,[pc,#248] ; [0x8000b38] = 0x20000210
        0x08000a3e:    6867        gh      LDR      r7,[r4,#4]
        0x08000a40:    28c8        .(      CMP      r0,#0xc8
        0x08000a42:    d204        ..      BCS      0x8000a4e ; ESP8266DataProcessCallback + 30
        0x08000a44:    f5a672a8    ...r    SUB      r2,r6,#0x150
        0x08000a48:    5411        .T      STRB     r1,[r2,r0]
        0x08000a4a:    1c40        @.      ADDS     r0,r0,#1
        0x08000a4c:    7060        `p      STRB     r0,[r4,#1]
        0x08000a4e:    6960        `i      LDR      r0,[r4,#0x14]
        0x08000a50:    2500        .%      MOVS     r5,#0
        0x08000a52:    b150        P.      CBZ      r0,0x8000a6a ; ESP8266DataProcessCallback + 58
        0x08000a54:    f005f9ac    ....    BL       xTaskGetTickCount ; 0x8005db0
        0x08000a58:    6961        ai      LDR      r1,[r4,#0x14]
        0x08000a5a:    1a40        @.      SUBS     r0,r0,r1
        0x08000a5c:    f5b07f7a    ..z.    CMP      r0,#0x3e8
        0x08000a60:    d903        ..      BLS      0x8000a6a ; ESP8266DataProcessCallback + 58
        0x08000a62:    6065        e`      STR      r5,[r4,#4]
        0x08000a64:    70a5        .p      STRB     r5,[r4,#2]
        0x08000a66:    462f        /F      MOV      r7,r5
        0x08000a68:    6165        ea      STR      r5,[r4,#0x14]
        0x08000a6a:    f8068007    ....    STRB     r8,[r6,r7]
        0x08000a6e:    6860        `h      LDR      r0,[r4,#4]
        0x08000a70:    4641        AF      MOV      r1,r8
        0x08000a72:    1c40        @.      ADDS     r0,r0,#1
        0x08000a74:    6060        ``      STR      r0,[r4,#4]
        0x08000a76:    78a2        .x      LDRB     r2,[r4,#2]
        0x08000a78:    b15a        Z.      CBZ      r2,0x8000a92 ; ESP8266DataProcessCallback + 98
        0x08000a7a:    2a01        .*      CMP      r2,#1
        0x08000a7c:    d01b        ..      BEQ      0x8000ab6 ; ESP8266DataProcessCallback + 134
        0x08000a7e:    2a02        .*      CMP      r2,#2
        0x08000a80:    d10b        ..      BNE      0x8000a9a ; ESP8266DataProcessCallback + 106
        0x08000a82:    68a1        .h      LDR      r1,[r4,#8]
        0x08000a84:    4288        .B      CMP      r0,r1
        0x08000a86:    d108        ..      BNE      0x8000a9a ; ESP8266DataProcessCallback + 106
        0x08000a88:    46b1        .F      MOV      r9,r6
        0x08000a8a:    2000        .       MOVS     r0,#0
        0x08000a8c:    4f2c        ,O      LDR      r7,[pc,#176] ; [0x8000b40] = 0x20000410
        0x08000a8e:    68e3        .h      LDR      r3,[r4,#0xc]
        0x08000a90:    e03a        :.      B        0x8000b08 ; ESP8266DataProcessCallback + 216
        0x08000a92:    7830        0x      LDRB     r0,[r6,#0]
        0x08000a94:    282b        +(      CMP      r0,#0x2b
        0x08000a96:    d002        ..      BEQ      0x8000a9e ; ESP8266DataProcessCallback + 110
        0x08000a98:    6065        e`      STR      r5,[r4,#4]
        0x08000a9a:    e8bd87f0    ....    POP      {r4-r10,pc}
        0x08000a9e:    2f04        ./      CMP      r7,#4
        0x08000aa0:    d1fb        ..      BNE      0x8000a9a ; ESP8266DataProcessCallback + 106
        0x08000aa2:    2205        ."      MOVS     r2,#5
        0x08000aa4:    a127        '.      ADR      r1,{pc}+0xa0 ; 0x8000b44
        0x08000aa6:    4630        0F      MOV      r0,r6
        0x08000aa8:    f7fffdc7    ....    BL       strncmp ; 0x800063a
        0x08000aac:    2800        .(      CMP      r0,#0
        0x08000aae:    d1f3        ..      BNE      0x8000a98 ; ESP8266DataProcessCallback + 104
        0x08000ab0:    2001        .       MOVS     r0,#1
        0x08000ab2:    70a0        .p      STRB     r0,[r4,#2]
        0x08000ab4:    e7f0        ..      B        0x8000a98 ; ESP8266DataProcessCallback + 104
        0x08000ab6:    293a        :)      CMP      r1,#0x3a
        0x08000ab8:    d003        ..      BEQ      0x8000ac2 ; ESP8266DataProcessCallback + 146
        0x08000aba:    2f09        ./      CMP      r7,#9
        0x08000abc:    dbed        ..      BLT      0x8000a9a ; ESP8266DataProcessCallback + 106
        0x08000abe:    70a5        .p      STRB     r5,[r4,#2]
        0x08000ac0:    e7ea        ..      B        0x8000a98 ; ESP8266DataProcessCallback + 104
        0x08000ac2:    2000        .       MOVS     r0,#0
        0x08000ac4:    f06f022f    o./.    MVN      r2,#0x2f
        0x08000ac8:    68a1        .h      LDR      r1,[r4,#8]
        0x08000aca:    e006        ..      B        0x8000ada ; ESP8266DataProcessCallback + 170
        0x08000acc:    5c33        3\      LDRB     r3,[r6,r0]
        0x08000ace:    eb010181    ....    ADD      r1,r1,r1,LSL #2
        0x08000ad2:    eb020141    ..A.    ADD      r1,r2,r1,LSL #1
        0x08000ad6:    4419        .D      ADD      r1,r1,r3
        0x08000ad8:    1c40        @.      ADDS     r0,r0,#1
        0x08000ada:    42b8        .B      CMP      r0,r7
        0x08000adc:    dbf6        ..      BLT      0x8000acc ; ESP8266DataProcessCallback + 156
        0x08000ade:    2002        .       MOVS     r0,#2
        0x08000ae0:    60a1        .`      STR      r1,[r4,#8]
        0x08000ae2:    70a0        .p      STRB     r0,[r4,#2]
        0x08000ae4:    6065        e`      STR      r5,[r4,#4]
        0x08000ae6:    f005f963    ..c.    BL       xTaskGetTickCount ; 0x8005db0
        0x08000aea:    6160        `a      STR      r0,[r4,#0x14]
        0x08000aec:    e7d5        ..      B        0x8000a9a ; ESP8266DataProcessCallback + 106
        0x08000aee:    6922        "i      LDR      r2,[r4,#0x10]
        0x08000af0:    4694        .F      MOV      r12,r2
        0x08000af2:    1c52        R.      ADDS     r2,r2,#1
        0x08000af4:    f3c20208    ....    UBFX     r2,r2,#0,#9
        0x08000af8:    429a        .B      CMP      r2,r3
        0x08000afa:    d007        ..      BEQ      0x8000b0c ; ESP8266DataProcessCallback + 220
        0x08000afc:    f8198000    ....    LDRB     r8,[r9,r0]
        0x08000b00:    f807800c    ....    STRB     r8,[r7,r12]
        0x08000b04:    1c40        @.      ADDS     r0,r0,#1
        0x08000b06:    6122        "a      STR      r2,[r4,#0x10]
        0x08000b08:    4288        .B      CMP      r0,r1
        0x08000b0a:    dbf0        ..      BLT      0x8000aee ; ESP8266DataProcessCallback + 190
        0x08000b0c:    2902        .)      CMP      r1,#2
        0x08000b0e:    d00f        ..      BEQ      0x8000b30 ; ESP8266DataProcessCallback + 256
        0x08000b10:    a00e        ..      ADR      r0,{pc}+0x3c ; 0x8000b4c
        0x08000b12:    f7fffbcd    ....    BL       __2printf ; 0x80002b0
        0x08000b16:    2700        .'      MOVS     r7,#0
        0x08000b18:    e004        ..      B        0x8000b24 ; ESP8266DataProcessCallback + 244
        0x08000b1a:    5df1        .]      LDRB     r1,[r6,r7]
        0x08000b1c:    a00f        ..      ADR      r0,{pc}+0x40 ; 0x8000b5c
        0x08000b1e:    f7fffbc7    ....    BL       __2printf ; 0x80002b0
        0x08000b22:    1c7f        ..      ADDS     r7,r7,#1
        0x08000b24:    68a0        .h      LDR      r0,[r4,#8]
        0x08000b26:    4287        .B      CMP      r7,r0
        0x08000b28:    dbf7        ..      BLT      0x8000b1a ; ESP8266DataProcessCallback + 234
        0x08000b2a:    a00e        ..      ADR      r0,{pc}+0x3a ; 0x8000b64
        0x08000b2c:    f7fffbc0    ....    BL       __2printf ; 0x80002b0
        0x08000b30:    70a5        .p      STRB     r5,[r4,#2]
        0x08000b32:    6065        e`      STR      r5,[r4,#4]
        0x08000b34:    60a5        .`      STR      r5,[r4,#8]
        0x08000b36:    e7b0        ..      B        0x8000a9a ; ESP8266DataProcessCallback + 106
    $d
        0x08000b38:    20000210    ...     DCD    536871440
        0x08000b3c:    2000000c    ...     DCD    536870924
        0x08000b40:    20000410    ...     DCD    536871952
        0x08000b44:    4450492b    +IPD    DCD    1146112299
        0x08000b48:    0000002c    ,...    DCD    44
        0x08000b4c:    20525349    ISR     DCD    542266185
        0x08000b50:    20746547    Get     DCD    544499015
        0x08000b54:    61746144    Data    DCD    1635017028
        0x08000b58:    0000203a    : ..    DCD    8250
        0x08000b5c:    78323025    %02x    DCD    2016555045
        0x08000b60:    00000020     ...    DCD    32
        0x08000b64:    00000a0d    ....    DCD    2573
    $t
    i.ESP8266ReadPacket
    ESP8266ReadPacket
        0x08000b68:    b5f0        ..      PUSH     {r4-r7,lr}
        0x08000b6a:    4a09        .J      LDR      r2,[pc,#36] ; [0x8000b90] = 0x2000000c
        0x08000b6c:    4605        .F      MOV      r5,r0
        0x08000b6e:    2000        .       MOVS     r0,#0
        0x08000b70:    4e08        .N      LDR      r6,[pc,#32] ; [0x8000b94] = 0x20000410
        0x08000b72:    6914        .i      LDR      r4,[r2,#0x10]
        0x08000b74:    e009        ..      B        0x8000b8a ; ESP8266ReadPacket + 34
        0x08000b76:    68d3        .h      LDR      r3,[r2,#0xc]
        0x08000b78:    42a3        .B      CMP      r3,r4
        0x08000b7a:    d008        ..      BEQ      0x8000b8e ; ESP8266ReadPacket + 38
        0x08000b7c:    5cf7        .\      LDRB     r7,[r6,r3]
        0x08000b7e:    1c5b        [.      ADDS     r3,r3,#1
        0x08000b80:    542f        /T      STRB     r7,[r5,r0]
        0x08000b82:    f3c30308    ....    UBFX     r3,r3,#0,#9
        0x08000b86:    1c40        @.      ADDS     r0,r0,#1
        0x08000b88:    60d3        .`      STR      r3,[r2,#0xc]
        0x08000b8a:    4288        .B      CMP      r0,r1
        0x08000b8c:    dbf3        ..      BLT      0x8000b76 ; ESP8266ReadPacket + 14
        0x08000b8e:    bdf0        ..      POP      {r4-r7,pc}
    $d
        0x08000b90:    2000000c    ...     DCD    536870924
        0x08000b94:    20000410    ...     DCD    536871952
    $t
    i.ESP8266_GetIP
    ESP8266_GetIP
        0x08000b98:    b530        0.      PUSH     {r4,r5,lr}
        0x08000b9a:    b0c1        ..      SUB      sp,sp,#0x104
        0x08000b9c:    f44f7580    O..u    MOV      r5,#0x100
        0x08000ba0:    f44f74fa    O..t    MOV      r4,#0x1f4
        0x08000ba4:    4629        )F      MOV      r1,r5
        0x08000ba6:    4668        hF      MOV      r0,sp
        0x08000ba8:    f7fffe3f    ..?.    BL       __aeabi_memclr4 ; 0x800082a
        0x08000bac:    a116        ..      ADR      r1,{pc}+0x5c ; 0x8000c08
        0x08000bae:    4668        hF      MOV      r0,sp
        0x08000bb0:    f7fffd8e    ....    BL       strcat ; 0x80006d0
        0x08000bb4:    f001fd00    ....    BL       USART2_ClearBuf ; 0x80025b8
        0x08000bb8:    4668        hF      MOV      r0,sp
        0x08000bba:    f7fffd1f    ....    BL       strlen ; 0x80005fc
        0x08000bbe:    b281        ..      UXTH     r1,r0
        0x08000bc0:    4622        "F      MOV      r2,r4
        0x08000bc2:    4668        hF      MOV      r0,sp
        0x08000bc4:    f001fd1e    ....    BL       USART2_Transmit ; 0x8002604
        0x08000bc8:    4629        )F      MOV      r1,r5
        0x08000bca:    4668        hF      MOV      r0,sp
        0x08000bcc:    f7fffe2d    ..-.    BL       __aeabi_memclr4 ; 0x800082a
        0x08000bd0:    4668        hF      MOV      r0,sp
        0x08000bd2:    f001fd0b    ....    BL       USART2_Receive ; 0x80025ec
        0x08000bd6:    b178        x.      CBZ      r0,0x8000bf8 ; ESP8266_GetIP + 96
        0x08000bd8:    a10e        ..      ADR      r1,{pc}+0x3c ; 0x8000c14
        0x08000bda:    4668        hF      MOV      r0,sp
        0x08000bdc:    f7fffcfc    ....    BL       strstr ; 0x80005d8
        0x08000be0:    b128        (.      CBZ      r0,0x8000bee ; ESP8266_GetIP + 86
        0x08000be2:    4668        hF      MOV      r0,sp
        0x08000be4:    f001fb02    ....    BL       Show_IP ; 0x80021ec
        0x08000be8:    2000        .       MOVS     r0,#0
        0x08000bea:    b041        A.      ADD      sp,sp,#0x104
        0x08000bec:    bd30        0.      POP      {r4,r5,pc}
        0x08000bee:    1e64        d.      SUBS     r4,r4,#1
        0x08000bf0:    b2a4        ..      UXTH     r4,r4
        0x08000bf2:    2001        .       MOVS     r0,#1
        0x08000bf4:    f000f8ec    ....    BL       HAL_Delay ; 0x8000dd0
        0x08000bf8:    2c00        .,      CMP      r4,#0
        0x08000bfa:    d1e9        ..      BNE      0x8000bd0 ; ESP8266_GetIP + 56
        0x08000bfc:    a006        ..      ADR      r0,{pc}+0x1c ; 0x8000c18
        0x08000bfe:    f7fffb57    ..W.    BL       __2printf ; 0x80002b0
        0x08000c02:    2001        .       MOVS     r0,#1
        0x08000c04:    e7f1        ..      B        0x8000bea ; ESP8266_GetIP + 82
    $d
        0x08000c06:    0000        ..      DCW    0
        0x08000c08:    432b5441    AT+C    DCD    1126913089
        0x08000c0c:    52534649    IFSR    DCD    1381189193
        0x08000c10:    00000a0d    ....    DCD    2573
        0x08000c14:    00004b4f    OK..    DCD    19279
        0x08000c18:    20746547    Get     DCD    544499015
        0x08000c1c:    46205049    IP F    DCD    1176522825
        0x08000c20:    656c6961    aile    DCD    1701603681
        0x08000c24:    0d202164    d! .    DCD    220209508
        0x08000c28:    0000000a    ....    DCD    10
    $t
    i.ESP8266_SendCommand
    ESP8266_SendCommand
        0x08000c2c:    b5f0        ..      PUSH     {r4-r7,lr}
        0x08000c2e:    b0c1        ..      SUB      sp,sp,#0x104
        0x08000c30:    460f        .F      MOV      r7,r1
        0x08000c32:    4606        .F      MOV      r6,r0
        0x08000c34:    f44f7580    O..u    MOV      r5,#0x100
        0x08000c38:    4614        .F      MOV      r4,r2
        0x08000c3a:    4629        )F      MOV      r1,r5
        0x08000c3c:    4668        hF      MOV      r0,sp
        0x08000c3e:    f7fffdf4    ....    BL       __aeabi_memclr4 ; 0x800082a
        0x08000c42:    4631        1F      MOV      r1,r6
        0x08000c44:    4668        hF      MOV      r0,sp
        0x08000c46:    f7fffd43    ..C.    BL       strcat ; 0x80006d0
        0x08000c4a:    a11b        ..      ADR      r1,{pc}+0x6e ; 0x8000cb8
        0x08000c4c:    4668        hF      MOV      r0,sp
        0x08000c4e:    f7fffcc3    ....    BL       strstr ; 0x80005d8
        0x08000c52:    b918        ..      CBNZ     r0,0x8000c5c ; ESP8266_SendCommand + 48
        0x08000c54:    a118        ..      ADR      r1,{pc}+0x64 ; 0x8000cb8
        0x08000c56:    4668        hF      MOV      r0,sp
        0x08000c58:    f7fffd3a    ..:.    BL       strcat ; 0x80006d0
        0x08000c5c:    f001fcac    ....    BL       USART2_ClearBuf ; 0x80025b8
        0x08000c60:    4668        hF      MOV      r0,sp
        0x08000c62:    f7fffccb    ....    BL       strlen ; 0x80005fc
        0x08000c66:    b281        ..      UXTH     r1,r0
        0x08000c68:    f44f72fa    O..r    MOV      r2,#0x1f4
        0x08000c6c:    4668        hF      MOV      r0,sp
        0x08000c6e:    f001fcc9    ....    BL       USART2_Transmit ; 0x8002604
        0x08000c72:    4629        )F      MOV      r1,r5
        0x08000c74:    4668        hF      MOV      r0,sp
        0x08000c76:    f7fffdd8    ....    BL       __aeabi_memclr4 ; 0x800082a
        0x08000c7a:    e014        ..      B        0x8000ca6 ; ESP8266_SendCommand + 122
        0x08000c7c:    4668        hF      MOV      r0,sp
        0x08000c7e:    f001fcb5    ....    BL       USART2_Receive ; 0x80025ec
        0x08000c82:    b158        X.      CBZ      r0,0x8000c9c ; ESP8266_SendCommand + 112
        0x08000c84:    4639        9F      MOV      r1,r7
        0x08000c86:    4668        hF      MOV      r0,sp
        0x08000c88:    f7fffca6    ....    BL       strstr ; 0x80005d8
        0x08000c8c:    b130        0.      CBZ      r0,0x8000c9c ; ESP8266_SendCommand + 112
        0x08000c8e:    4631        1F      MOV      r1,r6
        0x08000c90:    a00a        ..      ADR      r0,{pc}+0x2c ; 0x8000cbc
        0x08000c92:    f7fffb0d    ....    BL       __2printf ; 0x80002b0
        0x08000c96:    2000        .       MOVS     r0,#0
        0x08000c98:    b041        A.      ADD      sp,sp,#0x104
        0x08000c9a:    bdf0        ..      POP      {r4-r7,pc}
        0x08000c9c:    1e64        d.      SUBS     r4,r4,#1
        0x08000c9e:    b2a4        ..      UXTH     r4,r4
        0x08000ca0:    2001        .       MOVS     r0,#1
        0x08000ca2:    f000f895    ....    BL       HAL_Delay ; 0x8000dd0
        0x08000ca6:    2c00        .,      CMP      r4,#0
        0x08000ca8:    d1e8        ..      BNE      0x8000c7c ; ESP8266_SendCommand + 80
        0x08000caa:    4631        1F      MOV      r1,r6
        0x08000cac:    a007        ..      ADR      r0,{pc}+0x20 ; 0x8000ccc
        0x08000cae:    f7fffaff    ....    BL       __2printf ; 0x80002b0
        0x08000cb2:    2001        .       MOVS     r0,#1
        0x08000cb4:    e7f0        ..      B        0x8000c98 ; ESP8266_SendCommand + 108
    $d
        0x08000cb6:    0000        ..      DCW    0
        0x08000cb8:    00000a0d    ....    DCD    2573
        0x08000cbc:    53207325    %s S    DCD    1394635557
        0x08000cc0:    20646e65    end     DCD    543452773
        0x08000cc4:    0d216b6f    ok!.    DCD    220293999
        0x08000cc8:    0000000a    ....    DCD    10
        0x08000ccc:    53207325    %s S    DCD    1394635557
        0x08000cd0:    20646e65    end     DCD    543452773
        0x08000cd4:    6f727265    erro    DCD    1869771365
        0x08000cd8:    0a0d2172    r!..    DCD    168632690
        0x08000cdc:    00000000    ....    DCD    0
    $t
    i.ESP8266_SendRawData
    ESP8266_SendRawData
        0x08000ce0:    e92d41f0    -..A    PUSH     {r4-r8,lr}
        0x08000ce4:    b0c0        ..      SUB      sp,sp,#0x100
        0x08000ce6:    460d        .F      MOV      r5,r1
        0x08000ce8:    4607        .F      MOV      r7,r0
        0x08000cea:    f44f7680    O..v    MOV      r6,#0x100
        0x08000cee:    461c        .F      MOV      r4,r3
        0x08000cf0:    4690        .F      MOV      r8,r2
        0x08000cf2:    4631        1F      MOV      r1,r6
        0x08000cf4:    4668        hF      MOV      r0,sp
        0x08000cf6:    f7fffd98    ....    BL       __aeabi_memclr4 ; 0x800082a
        0x08000cfa:    f001fc5d    ..].    BL       USART2_ClearBuf ; 0x80025b8
        0x08000cfe:    b2a9        ..      UXTH     r1,r5
        0x08000d00:    f44f72fa    O..r    MOV      r2,#0x1f4
        0x08000d04:    4638        8F      MOV      r0,r7
        0x08000d06:    f001fc7d    ..}.    BL       USART2_Transmit ; 0x8002604
        0x08000d0a:    4631        1F      MOV      r1,r6
        0x08000d0c:    4668        hF      MOV      r0,sp
        0x08000d0e:    f7fffd8c    ....    BL       __aeabi_memclr4 ; 0x800082a
        0x08000d12:    e011        ..      B        0x8000d38 ; ESP8266_SendRawData + 88
        0x08000d14:    4668        hF      MOV      r0,sp
        0x08000d16:    f001fc69    ..i.    BL       USART2_Receive ; 0x80025ec
        0x08000d1a:    b168        h.      CBZ      r0,0x8000d38 ; ESP8266_SendRawData + 88
        0x08000d1c:    4641        AF      MOV      r1,r8
        0x08000d1e:    4668        hF      MOV      r0,sp
        0x08000d20:    f7fffc5a    ..Z.    BL       strstr ; 0x80005d8
        0x08000d24:    b118        ..      CBZ      r0,0x8000d2e ; ESP8266_SendRawData + 78
        0x08000d26:    2000        .       MOVS     r0,#0
        0x08000d28:    b040        @.      ADD      sp,sp,#0x100
        0x08000d2a:    e8bd81f0    ....    POP      {r4-r8,pc}
        0x08000d2e:    1e64        d.      SUBS     r4,r4,#1
        0x08000d30:    b2a4        ..      UXTH     r4,r4
        0x08000d32:    2001        .       MOVS     r0,#1
        0x08000d34:    f000f84c    ..L.    BL       HAL_Delay ; 0x8000dd0
        0x08000d38:    2c00        .,      CMP      r4,#0
        0x08000d3a:    d1eb        ..      BNE      0x8000d14 ; ESP8266_SendRawData + 52
        0x08000d3c:    2001        .       MOVS     r0,#1
        0x08000d3e:    e7f3        ..      B        0x8000d28 ; ESP8266_SendRawData + 72
    i.ESP8266_Send_Packet
    ESP8266_Send_Packet
        0x08000d40:    b530        0.      PUSH     {r4,r5,lr}
        0x08000d42:    b0c1        ..      SUB      sp,sp,#0x104
        0x08000d44:    460c        .F      MOV      r4,r1
        0x08000d46:    4605        .F      MOV      r5,r0
        0x08000d48:    f44f7180    O..q    MOV      r1,#0x100
        0x08000d4c:    4668        hF      MOV      r0,sp
        0x08000d4e:    f7fffd6c    ..l.    BL       __aeabi_memclr4 ; 0x800082a
        0x08000d52:    4622        "F      MOV      r2,r4
        0x08000d54:    a10b        ..      ADR      r1,{pc}+0x30 ; 0x8000d84
        0x08000d56:    4668        hF      MOV      r0,sp
        0x08000d58:    f7fffab6    ....    BL       __2sprintf ; 0x80002c8
        0x08000d5c:    f44f72fa    O..r    MOV      r2,#0x1f4
        0x08000d60:    a10c        ..      ADR      r1,{pc}+0x34 ; 0x8000d94
        0x08000d62:    4668        hF      MOV      r0,sp
        0x08000d64:    f7ffff62    ..b.    BL       ESP8266_SendCommand ; 0x8000c2c
        0x08000d68:    b110        ..      CBZ      r0,0x8000d70 ; ESP8266_Send_Packet + 48
        0x08000d6a:    2000        .       MOVS     r0,#0
        0x08000d6c:    b041        A.      ADD      sp,sp,#0x104
        0x08000d6e:    bd30        0.      POP      {r4,r5,pc}
        0x08000d70:    f44f737a    O.zs    MOV      r3,#0x3e8
        0x08000d74:    a208        ..      ADR      r2,{pc}+0x24 ; 0x8000d98
        0x08000d76:    4621        !F      MOV      r1,r4
        0x08000d78:    4628        (F      MOV      r0,r5
        0x08000d7a:    f7ffffb1    ....    BL       ESP8266_SendRawData ; 0x8000ce0
        0x08000d7e:    4620         F      MOV      r0,r4
        0x08000d80:    e7f4        ..      B        0x8000d6c ; ESP8266_Send_Packet + 44
    $d
        0x08000d82:    0000        ..      DCW    0
        0x08000d84:    432b5441    AT+C    DCD    1126913089
        0x08000d88:    45535049    IPSE    DCD    1163087945
        0x08000d8c:    253d444e    ND=%    DCD    624772174
        0x08000d90:    000a0d64    d...    DCD    658788
        0x08000d94:    00004b4f    OK..    DCD    19279
        0x08000d98:    444e4553    SEND    DCD    1145980243
        0x08000d9c:    004b4f20     OK.    DCD    4935456
    $t
    i.EXTI0_IRQHandler
    EXTI0_IRQHandler
        0x08000da0:    2001        .       MOVS     r0,#1
        0x08000da2:    f000b82f    ../.    B.W      HAL_GPIO_EXTI_IRQHandler ; 0x8000e04
        0x08000da6:    0000        ..      MOVS     r0,r0
    i.EnableUART2IRQ
    EnableUART2IRQ
        0x08000da8:    b510        ..      PUSH     {r4,lr}
        0x08000daa:    2201        ."      MOVS     r2,#1
        0x08000dac:    2100        .!      MOVS     r1,#0
        0x08000dae:    2026        &       MOVS     r0,#0x26
        0x08000db0:    f000f9be    ....    BL       HAL_NVIC_SetPriority ; 0x8001130
        0x08000db4:    2026        &       MOVS     r0,#0x26
        0x08000db6:    f000f9ad    ....    BL       HAL_NVIC_EnableIRQ ; 0x8001114
        0x08000dba:    4803        .H      LDR      r0,[pc,#12] ; [0x8000dc8] = 0x200001cc
        0x08000dbc:    6800        .h      LDR      r0,[r0,#0]
        0x08000dbe:    68c1        .h      LDR      r1,[r0,#0xc]
        0x08000dc0:    f0410120    A. .    ORR      r1,r1,#0x20
        0x08000dc4:    60c1        .`      STR      r1,[r0,#0xc]
        0x08000dc6:    bd10        ..      POP      {r4,pc}
    $d
        0x08000dc8:    200001cc    ...     DCD    536871372
    $t
    i.Error_Handler
    Error_Handler
        0x08000dcc:    b672        r.      CPSID    i
        0x08000dce:    e7fe        ..      B        0x8000dce ; Error_Handler + 2
    i.HAL_Delay
    HAL_Delay
        0x08000dd0:    b570        p.      PUSH     {r4-r6,lr}
        0x08000dd2:    4604        .F      MOV      r4,r0
        0x08000dd4:    f000f920    .. .    BL       HAL_GetTick ; 0x8001018
        0x08000dd8:    4605        .F      MOV      r5,r0
        0x08000dda:    1c60        `.      ADDS     r0,r4,#1
        0x08000ddc:    d002        ..      BEQ      0x8000de4 ; HAL_Delay + 20
        0x08000dde:    4804        .H      LDR      r0,[pc,#16] ; [0x8000df0] = 0x2000002c
        0x08000de0:    7800        .x      LDRB     r0,[r0,#0]
        0x08000de2:    4404        .D      ADD      r4,r4,r0
        0x08000de4:    f000f918    ....    BL       HAL_GetTick ; 0x8001018
        0x08000de8:    1b40        @.      SUBS     r0,r0,r5
        0x08000dea:    42a0        .B      CMP      r0,r4
        0x08000dec:    d3fa        ..      BCC      0x8000de4 ; HAL_Delay + 20
        0x08000dee:    bd70        p.      POP      {r4-r6,pc}
    $d
        0x08000df0:    2000002c    ,..     DCD    536870956
    $t
    i.HAL_GPIO_EXTI_Callback
    HAL_GPIO_EXTI_Callback
        0x08000df4:    2801        .(      CMP      r0,#1
        0x08000df6:    d101        ..      BNE      0x8000dfc ; HAL_GPIO_EXTI_Callback + 8
        0x08000df8:    4901        .I      LDR      r1,[pc,#4] ; [0x8000e00] = 0x20000004
        0x08000dfa:    7008        .p      STRB     r0,[r1,#0]
        0x08000dfc:    4770        pG      BX       lr
    $d
        0x08000dfe:    0000        ..      DCW    0
        0x08000e00:    20000004    ...     DCD    536870916
    $t
    i.HAL_GPIO_EXTI_IRQHandler
    HAL_GPIO_EXTI_IRQHandler
        0x08000e04:    4904        .I      LDR      r1,[pc,#16] ; [0x8000e18] = 0x40010414
        0x08000e06:    b510        ..      PUSH     {r4,lr}
        0x08000e08:    680a        .h      LDR      r2,[r1,#0]
        0x08000e0a:    4202        .B      TST      r2,r0
        0x08000e0c:    d002        ..      BEQ      0x8000e14 ; HAL_GPIO_EXTI_IRQHandler + 16
        0x08000e0e:    6008        .`      STR      r0,[r1,#0]
        0x08000e10:    f7fffff0    ....    BL       HAL_GPIO_EXTI_Callback ; 0x8000df4
        0x08000e14:    bd10        ..      POP      {r4,pc}
    $d
        0x08000e16:    0000        ..      DCW    0
        0x08000e18:    40010414    ...@    DCD    1073808404
    $t
    i.HAL_GPIO_Init
    HAL_GPIO_Init
        0x08000e1c:    e92d4ff8    -..O    PUSH     {r3-r11,lr}
        0x08000e20:    f8df91b8    ....    LDR      r9,[pc,#440] ; [0x8000fdc] = 0x40010400
        0x08000e24:    2400        .$      MOVS     r4,#0
        0x08000e26:    f1090a04    ....    ADD      r10,r9,#4
        0x08000e2a:    f10a0b04    ....    ADD      r11,r10,#4
        0x08000e2e:    4623        #F      MOV      r3,r4
        0x08000e30:    270f        .'      MOVS     r7,#0xf
        0x08000e32:    f10b0e04    ....    ADD      lr,r11,#4
        0x08000e36:    e0c9        ..      B        0x8000fcc ; HAL_GPIO_Init + 432
        0x08000e38:    2501        .%      MOVS     r5,#1
        0x08000e3a:    40a5        .@      LSLS     r5,r5,r4
        0x08000e3c:    402a        *@      ANDS     r2,r2,r5
        0x08000e3e:    42aa        .B      CMP      r2,r5
        0x08000e40:    d17d        }.      BNE      0x8000f3e ; HAL_GPIO_Init + 290
        0x08000e42:    4e67        gN      LDR      r6,[pc,#412] ; [0x8000fe0] = 0x10110000
        0x08000e44:    f8d1c004    ....    LDR      r12,[r1,#4]
        0x08000e48:    ebac0806    ....    SUB      r8,r12,r6
        0x08000e4c:    45b4        .E      CMP      r12,r6
        0x08000e4e:    d032        2.      BEQ      0x8000eb6 ; HAL_GPIO_Init + 154
        0x08000e50:    dc14        ..      BGT      0x8000e7c ; HAL_GPIO_Init + 96
        0x08000e52:    f1bc0f03    ....    CMP      r12,#3
        0x08000e56:    d03a        :.      BEQ      0x8000ece ; HAL_GPIO_Init + 178
        0x08000e58:    dc09        ..      BGT      0x8000e6e ; HAL_GPIO_Init + 82
        0x08000e5a:    f1bc0f00    ....    CMP      r12,#0
        0x08000e5e:    d02a        *.      BEQ      0x8000eb6 ; HAL_GPIO_Init + 154
        0x08000e60:    f1bc0f01    ....    CMP      r12,#1
        0x08000e64:    d01c        ..      BEQ      0x8000ea0 ; HAL_GPIO_Init + 132
        0x08000e66:    f1bc0f02    ....    CMP      r12,#2
        0x08000e6a:    d131        1.      BNE      0x8000ed0 ; HAL_GPIO_Init + 180
        0x08000e6c:    e01d        ..      B        0x8000eaa ; HAL_GPIO_Init + 142
        0x08000e6e:    f1bc0f11    ....    CMP      r12,#0x11
        0x08000e72:    d017        ..      BEQ      0x8000ea4 ; HAL_GPIO_Init + 136
        0x08000e74:    f1bc0f12    ....    CMP      r12,#0x12
        0x08000e78:    d12a        *.      BNE      0x8000ed0 ; HAL_GPIO_Init + 180
        0x08000e7a:    e019        ..      B        0x8000eb0 ; HAL_GPIO_Init + 148
        0x08000e7c:    f5b81f88    ....    CMP      r8,#0x110000
        0x08000e80:    d019        ..      BEQ      0x8000eb6 ; HAL_GPIO_Init + 154
        0x08000e82:    dc06        ..      BGT      0x8000e92 ; HAL_GPIO_Init + 118
        0x08000e84:    f5b83f80    ...?    CMP      r8,#0x10000
        0x08000e88:    d015        ..      BEQ      0x8000eb6 ; HAL_GPIO_Init + 154
        0x08000e8a:    f5b81f80    ....    CMP      r8,#0x100000
        0x08000e8e:    d11f        ..      BNE      0x8000ed0 ; HAL_GPIO_Init + 180
        0x08000e90:    e011        ..      B        0x8000eb6 ; HAL_GPIO_Init + 154
        0x08000e92:    f5b81f00    ....    CMP      r8,#0x200000
        0x08000e96:    d00e        ..      BEQ      0x8000eb6 ; HAL_GPIO_Init + 154
        0x08000e98:    f5b81f04    ....    CMP      r8,#0x210000
        0x08000e9c:    d118        ..      BNE      0x8000ed0 ; HAL_GPIO_Init + 180
        0x08000e9e:    e00a        ..      B        0x8000eb6 ; HAL_GPIO_Init + 154
        0x08000ea0:    68cb        .h      LDR      r3,[r1,#0xc]
        0x08000ea2:    e015        ..      B        0x8000ed0 ; HAL_GPIO_Init + 180
        0x08000ea4:    68cb        .h      LDR      r3,[r1,#0xc]
        0x08000ea6:    1d1b        ..      ADDS     r3,r3,#4
        0x08000ea8:    e012        ..      B        0x8000ed0 ; HAL_GPIO_Init + 180
        0x08000eaa:    68cb        .h      LDR      r3,[r1,#0xc]
        0x08000eac:    3308        .3      ADDS     r3,r3,#8
        0x08000eae:    e00f        ..      B        0x8000ed0 ; HAL_GPIO_Init + 180
        0x08000eb0:    68cb        .h      LDR      r3,[r1,#0xc]
        0x08000eb2:    330c        .3      ADDS     r3,r3,#0xc
        0x08000eb4:    e00c        ..      B        0x8000ed0 ; HAL_GPIO_Init + 180
        0x08000eb6:    688b        .h      LDR      r3,[r1,#8]
        0x08000eb8:    b12b        +.      CBZ      r3,0x8000ec6 ; HAL_GPIO_Init + 170
        0x08000eba:    2b01        .+      CMP      r3,#1
        0x08000ebc:    f04f0308    O...    MOV      r3,#8
        0x08000ec0:    d003        ..      BEQ      0x8000eca ; HAL_GPIO_Init + 174
        0x08000ec2:    6145        Ea      STR      r5,[r0,#0x14]
        0x08000ec4:    e004        ..      B        0x8000ed0 ; HAL_GPIO_Init + 180
        0x08000ec6:    2304        .#      MOVS     r3,#4
        0x08000ec8:    e002        ..      B        0x8000ed0 ; HAL_GPIO_Init + 180
        0x08000eca:    6105        .a      STR      r5,[r0,#0x10]
        0x08000ecc:    e000        ..      B        0x8000ed0 ; HAL_GPIO_Init + 180
        0x08000ece:    2300        .#      MOVS     r3,#0
        0x08000ed0:    2aff        .*      CMP      r2,#0xff
        0x08000ed2:    d801        ..      BHI      0x8000ed8 ; HAL_GPIO_Init + 188
        0x08000ed4:    4606        .F      MOV      r6,r0
        0x08000ed6:    e001        ..      B        0x8000edc ; HAL_GPIO_Init + 192
        0x08000ed8:    f1000604    ....    ADD      r6,r0,#4
        0x08000edc:    ea4f0584    O...    LSL      r5,r4,#2
        0x08000ee0:    d901        ..      BLS      0x8000ee6 ; HAL_GPIO_Init + 202
        0x08000ee2:    f1a50520    .. .    SUB      r5,r5,#0x20
        0x08000ee6:    f8d68000    ....    LDR      r8,[r6,#0]
        0x08000eea:    fa07fc05    ....    LSL      r12,r7,r5
        0x08000eee:    ea28080c    (...    BIC      r8,r8,r12
        0x08000ef2:    fa03f505    ....    LSL      r5,r3,r5
        0x08000ef6:    ea480805    H...    ORR      r8,r8,r5
        0x08000efa:    f8c68000    ....    STR      r8,[r6,#0]
        0x08000efe:    684d        Mh      LDR      r5,[r1,#4]
        0x08000f00:    00ed        ..      LSLS     r5,r5,#3
        0x08000f02:    d562        b.      BPL      0x8000fca ; HAL_GPIO_Init + 430
        0x08000f04:    4d37        7M      LDR      r5,[pc,#220] ; [0x8000fe4] = 0x40021000
        0x08000f06:    69ae        .i      LDR      r6,[r5,#0x18]
        0x08000f08:    f0460601    F...    ORR      r6,r6,#1
        0x08000f0c:    61ae        .a      STR      r6,[r5,#0x18]
        0x08000f0e:    69ad        .i      LDR      r5,[r5,#0x18]
        0x08000f10:    f0240603    $...    BIC      r6,r4,#3
        0x08000f14:    f0050501    ....    AND      r5,r5,#1
        0x08000f18:    9500        ..      STR      r5,[sp,#0]
        0x08000f1a:    4d33        3M      LDR      r5,[pc,#204] ; [0x8000fe8] = 0x40010000
        0x08000f1c:    eb060c05    ....    ADD      r12,r6,r5
        0x08000f20:    f8dc5008    ...P    LDR      r5,[r12,#8]
        0x08000f24:    07a6        ..      LSLS     r6,r4,#30
        0x08000f26:    0f36        6.      LSRS     r6,r6,#28
        0x08000f28:    fa07f806    ....    LSL      r8,r7,r6
        0x08000f2c:    ea250508    %...    BIC      r5,r5,r8
        0x08000f30:    f8df80b8    ....    LDR      r8,[pc,#184] ; [0x8000fec] = 0x40010800
        0x08000f34:    4540        @E      CMP      r0,r8
        0x08000f36:    d103        ..      BNE      0x8000f40 ; HAL_GPIO_Init + 292
        0x08000f38:    f04f0800    O...    MOV      r8,#0
        0x08000f3c:    e017        ..      B        0x8000f6e ; HAL_GPIO_Init + 338
        0x08000f3e:    e044        D.      B        0x8000fca ; HAL_GPIO_Init + 430
        0x08000f40:    f8df80ac    ....    LDR      r8,[pc,#172] ; [0x8000ff0] = 0x40010c00
        0x08000f44:    4540        @E      CMP      r0,r8
        0x08000f46:    d102        ..      BNE      0x8000f4e ; HAL_GPIO_Init + 306
        0x08000f48:    f04f0801    O...    MOV      r8,#1
        0x08000f4c:    e00f        ..      B        0x8000f6e ; HAL_GPIO_Init + 338
        0x08000f4e:    f8df80a4    ....    LDR      r8,[pc,#164] ; [0x8000ff4] = 0x40011000
        0x08000f52:    4540        @E      CMP      r0,r8
        0x08000f54:    d102        ..      BNE      0x8000f5c ; HAL_GPIO_Init + 320
        0x08000f56:    f04f0802    O...    MOV      r8,#2
        0x08000f5a:    e008        ..      B        0x8000f6e ; HAL_GPIO_Init + 338
        0x08000f5c:    f8df8098    ....    LDR      r8,[pc,#152] ; [0x8000ff8] = 0x40011400
        0x08000f60:    4540        @E      CMP      r0,r8
        0x08000f62:    d102        ..      BNE      0x8000f6a ; HAL_GPIO_Init + 334
        0x08000f64:    f04f0803    O...    MOV      r8,#3
        0x08000f68:    e001        ..      B        0x8000f6e ; HAL_GPIO_Init + 338
        0x08000f6a:    f04f0804    O...    MOV      r8,#4
        0x08000f6e:    fa08f806    ....    LSL      r8,r8,r6
        0x08000f72:    ea480805    H...    ORR      r8,r8,r5
        0x08000f76:    f8cc8008    ....    STR      r8,[r12,#8]
        0x08000f7a:    684d        Mh      LDR      r5,[r1,#4]
        0x08000f7c:    f8d96000    ...`    LDR      r6,[r9,#0]
        0x08000f80:    03ed        ..      LSLS     r5,r5,#15
        0x08000f82:    464d        MF      MOV      r5,r9
        0x08000f84:    d501        ..      BPL      0x8000f8a ; HAL_GPIO_Init + 366
        0x08000f86:    4316        .C      ORRS     r6,r6,r2
        0x08000f88:    e000        ..      B        0x8000f8c ; HAL_GPIO_Init + 368
        0x08000f8a:    4396        .C      BICS     r6,r6,r2
        0x08000f8c:    602e        .`      STR      r6,[r5,#0]
        0x08000f8e:    684d        Mh      LDR      r5,[r1,#4]
        0x08000f90:    f8da6000    ...`    LDR      r6,[r10,#0]
        0x08000f94:    03ad        ..      LSLS     r5,r5,#14
        0x08000f96:    4655        UF      MOV      r5,r10
        0x08000f98:    d501        ..      BPL      0x8000f9e ; HAL_GPIO_Init + 386
        0x08000f9a:    4316        .C      ORRS     r6,r6,r2
        0x08000f9c:    e000        ..      B        0x8000fa0 ; HAL_GPIO_Init + 388
        0x08000f9e:    4396        .C      BICS     r6,r6,r2
        0x08000fa0:    602e        .`      STR      r6,[r5,#0]
        0x08000fa2:    684d        Mh      LDR      r5,[r1,#4]
        0x08000fa4:    f8db6000    ...`    LDR      r6,[r11,#0]
        0x08000fa8:    02ed        ..      LSLS     r5,r5,#11
        0x08000faa:    465d        ]F      MOV      r5,r11
        0x08000fac:    d501        ..      BPL      0x8000fb2 ; HAL_GPIO_Init + 406
        0x08000fae:    4316        .C      ORRS     r6,r6,r2
        0x08000fb0:    e000        ..      B        0x8000fb4 ; HAL_GPIO_Init + 408
        0x08000fb2:    4396        .C      BICS     r6,r6,r2
        0x08000fb4:    602e        .`      STR      r6,[r5,#0]
        0x08000fb6:    684d        Mh      LDR      r5,[r1,#4]
        0x08000fb8:    f8de6000    ...`    LDR      r6,[lr,#0]
        0x08000fbc:    02ad        ..      LSLS     r5,r5,#10
        0x08000fbe:    4675        uF      MOV      r5,lr
        0x08000fc0:    d501        ..      BPL      0x8000fc6 ; HAL_GPIO_Init + 426
        0x08000fc2:    4316        .C      ORRS     r6,r6,r2
        0x08000fc4:    e000        ..      B        0x8000fc8 ; HAL_GPIO_Init + 428
        0x08000fc6:    4396        .C      BICS     r6,r6,r2
        0x08000fc8:    602e        .`      STR      r6,[r5,#0]
        0x08000fca:    1c64        d.      ADDS     r4,r4,#1
        0x08000fcc:    680d        .h      LDR      r5,[r1,#0]
        0x08000fce:    462a        *F      MOV      r2,r5
        0x08000fd0:    40e5        .@      LSRS     r5,r5,r4
        0x08000fd2:    f47faf31    ..1.    BNE      0x8000e38 ; HAL_GPIO_Init + 28
        0x08000fd6:    e8bd8ff8    ....    POP      {r3-r11,pc}
    $d
        0x08000fda:    0000        ..      DCW    0
        0x08000fdc:    40010400    ...@    DCD    1073808384
        0x08000fe0:    10110000    ....    DCD    269549568
        0x08000fe4:    40021000    ...@    DCD    1073876992
        0x08000fe8:    40010000    ...@    DCD    1073807360
        0x08000fec:    40010800    ...@    DCD    1073809408
        0x08000ff0:    40010c00    ...@    DCD    1073810432
        0x08000ff4:    40011000    ...@    DCD    1073811456
        0x08000ff8:    40011400    ...@    DCD    1073812480
    $t
    i.HAL_GPIO_TogglePin
    HAL_GPIO_TogglePin
        0x08000ffc:    68c2        .h      LDR      r2,[r0,#0xc]
        0x08000ffe:    ea210302    !...    BIC      r3,r1,r2
        0x08001002:    400a        .@      ANDS     r2,r2,r1
        0x08001004:    ea434102    C..A    ORR      r1,r3,r2,LSL #16
        0x08001008:    6101        .a      STR      r1,[r0,#0x10]
        0x0800100a:    4770        pG      BX       lr
    i.HAL_GPIO_WritePin
    HAL_GPIO_WritePin
        0x0800100c:    b10a        ..      CBZ      r2,0x8001012 ; HAL_GPIO_WritePin + 6
        0x0800100e:    6101        .a      STR      r1,[r0,#0x10]
        0x08001010:    4770        pG      BX       lr
        0x08001012:    0409        ..      LSLS     r1,r1,#16
        0x08001014:    e7fb        ..      B        0x800100e ; HAL_GPIO_WritePin + 2
        0x08001016:    0000        ..      MOVS     r0,r0
    i.HAL_GetTick
    HAL_GetTick
        0x08001018:    4801        .H      LDR      r0,[pc,#4] ; [0x8001020] = 0x2000002c
        0x0800101a:    6880        .h      LDR      r0,[r0,#8]
        0x0800101c:    4770        pG      BX       lr
    $d
        0x0800101e:    0000        ..      DCW    0
        0x08001020:    2000002c    ,..     DCD    536870956
    $t
    i.HAL_IncTick
    HAL_IncTick
        0x08001024:    4802        .H      LDR      r0,[pc,#8] ; [0x8001030] = 0x2000002c
        0x08001026:    6881        .h      LDR      r1,[r0,#8]
        0x08001028:    7802        .x      LDRB     r2,[r0,#0]
        0x0800102a:    4411        .D      ADD      r1,r1,r2
        0x0800102c:    6081        .`      STR      r1,[r0,#8]
        0x0800102e:    4770        pG      BX       lr
    $d
        0x08001030:    2000002c    ,..     DCD    536870956
    $t
    i.HAL_Init
    HAL_Init
        0x08001034:    4807        .H      LDR      r0,[pc,#28] ; [0x8001054] = 0x40022000
        0x08001036:    b510        ..      PUSH     {r4,lr}
        0x08001038:    6801        .h      LDR      r1,[r0,#0]
        0x0800103a:    f0410110    A...    ORR      r1,r1,#0x10
        0x0800103e:    6001        .`      STR      r1,[r0,#0]
        0x08001040:    2003        .       MOVS     r0,#3
        0x08001042:    f000f895    ....    BL       HAL_NVIC_SetPriorityGrouping ; 0x8001170
        0x08001046:    200f        .       MOVS     r0,#0xf
        0x08001048:    f000f806    ....    BL       HAL_InitTick ; 0x8001058
        0x0800104c:    f000f83e    ..>.    BL       HAL_MspInit ; 0x80010cc
        0x08001050:    2000        .       MOVS     r0,#0
        0x08001052:    bd10        ..      POP      {r4,pc}
    $d
        0x08001054:    40022000    . .@    DCD    1073881088
    $t
    i.HAL_InitTick
    HAL_InitTick
        0x08001058:    b500        ..      PUSH     {lr}
        0x0800105a:    4601        .F      MOV      r1,r0
        0x0800105c:    b087        ..      SUB      sp,sp,#0x1c
        0x0800105e:    2200        ."      MOVS     r2,#0
        0x08001060:    2019        .       MOVS     r0,#0x19
        0x08001062:    f000f865    ..e.    BL       HAL_NVIC_SetPriority ; 0x8001130
        0x08001066:    2019        .       MOVS     r0,#0x19
        0x08001068:    f000f854    ..T.    BL       HAL_NVIC_EnableIRQ ; 0x8001114
        0x0800106c:    4813        .H      LDR      r0,[pc,#76] ; [0x80010bc] = 0x40021000
        0x0800106e:    6981        .i      LDR      r1,[r0,#0x18]
        0x08001070:    f4416100    A..a    ORR      r1,r1,#0x800
        0x08001074:    6181        .a      STR      r1,[r0,#0x18]
        0x08001076:    6980        .i      LDR      r0,[r0,#0x18]
        0x08001078:    a905        ..      ADD      r1,sp,#0x14
        0x0800107a:    f4006000    ...`    AND      r0,r0,#0x800
        0x0800107e:    9006        ..      STR      r0,[sp,#0x18]
        0x08001080:    4668        hF      MOV      r0,sp
        0x08001082:    f000f91d    ....    BL       HAL_RCC_GetClockConfig ; 0x80012c0
        0x08001086:    f000f94b    ..K.    BL       HAL_RCC_GetPCLK2Freq ; 0x8001320
        0x0800108a:    490d        .I      LDR      r1,[pc,#52] ; [0x80010c0] = 0xf4240
        0x0800108c:    4a0d        .J      LDR      r2,[pc,#52] ; [0x80010c4] = 0x40012c00
        0x0800108e:    fbb0f1f1    ....    UDIV     r1,r0,r1
        0x08001092:    480d        .H      LDR      r0,[pc,#52] ; [0x80010c8] = 0x20000610
        0x08001094:    1e49        I.      SUBS     r1,r1,#1
        0x08001096:    6002        .`      STR      r2,[r0,#0]
        0x08001098:    6041        A`      STR      r1,[r0,#4]
        0x0800109a:    f24032e7    @..2    MOV      r2,#0x3e7
        0x0800109e:    2100        .!      MOVS     r1,#0
        0x080010a0:    e9c02103    ...!    STRD     r2,r1,[r0,#0xc]
        0x080010a4:    6081        .`      STR      r1,[r0,#8]
        0x080010a6:    f000fb13    ....    BL       HAL_TIM_Base_Init ; 0x80016d0
        0x080010aa:    b110        ..      CBZ      r0,0x80010b2 ; HAL_InitTick + 90
        0x080010ac:    2001        .       MOVS     r0,#1
        0x080010ae:    b007        ..      ADD      sp,sp,#0x1c
        0x080010b0:    bd00        ..      POP      {pc}
        0x080010b2:    4805        .H      LDR      r0,[pc,#20] ; [0x80010c8] = 0x20000610
        0x080010b4:    f000fb3a    ..:.    BL       HAL_TIM_Base_Start_IT ; 0x800172c
        0x080010b8:    e7f9        ..      B        0x80010ae ; HAL_InitTick + 86
    $d
        0x080010ba:    0000        ..      DCW    0
        0x080010bc:    40021000    ...@    DCD    1073876992
        0x080010c0:    000f4240    @B..    DCD    1000000
        0x080010c4:    40012c00    .,.@    DCD    1073818624
        0x080010c8:    20000610    ...     DCD    536872464
    $t
    i.HAL_MspInit
    HAL_MspInit
        0x080010cc:    480f        .H      LDR      r0,[pc,#60] ; [0x800110c] = 0x40021000
        0x080010ce:    b508        ..      PUSH     {r3,lr}
        0x080010d0:    6981        .i      LDR      r1,[r0,#0x18]
        0x080010d2:    f0410101    A...    ORR      r1,r1,#1
        0x080010d6:    6181        .a      STR      r1,[r0,#0x18]
        0x080010d8:    6981        .i      LDR      r1,[r0,#0x18]
        0x080010da:    f0010101    ....    AND      r1,r1,#1
        0x080010de:    9100        ..      STR      r1,[sp,#0]
        0x080010e0:    69c1        .i      LDR      r1,[r0,#0x1c]
        0x080010e2:    f0415180    A..Q    ORR      r1,r1,#0x10000000
        0x080010e6:    61c1        .a      STR      r1,[r0,#0x1c]
        0x080010e8:    69c0        .i      LDR      r0,[r0,#0x1c]
        0x080010ea:    2200        ."      MOVS     r2,#0
        0x080010ec:    f0005080    ...P    AND      r0,r0,#0x10000000
        0x080010f0:    9000        ..      STR      r0,[sp,#0]
        0x080010f2:    210f        .!      MOVS     r1,#0xf
        0x080010f4:    1e90        ..      SUBS     r0,r2,#2
        0x080010f6:    f000f81b    ....    BL       HAL_NVIC_SetPriority ; 0x8001130
        0x080010fa:    4805        .H      LDR      r0,[pc,#20] ; [0x8001110] = 0x40010000
        0x080010fc:    6841        Ah      LDR      r1,[r0,#4]
        0x080010fe:    f02161e0    !..a    BIC      r1,r1,#0x7000000
        0x08001102:    f0417100    A..q    ORR      r1,r1,#0x2000000
        0x08001106:    6041        A`      STR      r1,[r0,#4]
        0x08001108:    bd08        ..      POP      {r3,pc}
    $d
        0x0800110a:    0000        ..      DCW    0
        0x0800110c:    40021000    ...@    DCD    1073876992
        0x08001110:    40010000    ...@    DCD    1073807360
    $t
    i.HAL_NVIC_EnableIRQ
    HAL_NVIC_EnableIRQ
        0x08001114:    2800        .(      CMP      r0,#0
        0x08001116:    db09        ..      BLT      0x800112c ; HAL_NVIC_EnableIRQ + 24
        0x08001118:    f000021f    ....    AND      r2,r0,#0x1f
        0x0800111c:    2101        .!      MOVS     r1,#1
        0x0800111e:    4091        .@      LSLS     r1,r1,r2
        0x08001120:    0940        @.      LSRS     r0,r0,#5
        0x08001122:    0080        ..      LSLS     r0,r0,#2
        0x08001124:    f10020e0    ...     ADD      r0,r0,#0xe000e000
        0x08001128:    f8c01100    ....    STR      r1,[r0,#0x100]
        0x0800112c:    4770        pG      BX       lr
        0x0800112e:    0000        ..      MOVS     r0,r0
    i.HAL_NVIC_SetPriority
    HAL_NVIC_SetPriority
        0x08001130:    b4f0        ..      PUSH     {r4-r7}
        0x08001132:    4b0e        .K      LDR      r3,[pc,#56] ; [0x800116c] = 0xe000ed0c
        0x08001134:    681b        .h      LDR      r3,[r3,#0]
        0x08001136:    460c        .F      MOV      r4,r1
        0x08001138:    f3c32302    ...#    UBFX     r3,r3,#8,#3
        0x0800113c:    f1c30507    ....    RSB      r5,r3,#7
        0x08001140:    2d04        .-      CMP      r5,#4
        0x08001142:    d900        ..      BLS      0x8001146 ; HAL_NVIC_SetPriority + 22
        0x08001144:    2504        .%      MOVS     r5,#4
        0x08001146:    1d19        ..      ADDS     r1,r3,#4
        0x08001148:    2907        .)      CMP      r1,#7
        0x0800114a:    d201        ..      BCS      0x8001150 ; HAL_NVIC_SetPriority + 32
        0x0800114c:    2300        .#      MOVS     r3,#0
        0x0800114e:    e000        ..      B        0x8001152 ; HAL_NVIC_SetPriority + 34
        0x08001150:    1edb        ..      SUBS     r3,r3,#3
        0x08001152:    2601        .&      MOVS     r6,#1
        0x08001154:    fa06f105    ....    LSL      r1,r6,r5
        0x08001158:    1e49        I.      SUBS     r1,r1,#1
        0x0800115a:    4021        !@      ANDS     r1,r1,r4
        0x0800115c:    4099        .@      LSLS     r1,r1,r3
        0x0800115e:    409e        .@      LSLS     r6,r6,r3
        0x08001160:    1e76        v.      SUBS     r6,r6,#1
        0x08001162:    4016        .@      ANDS     r6,r6,r2
        0x08001164:    4331        1C      ORRS     r1,r1,r6
        0x08001166:    bcf0        ..      POP      {r4-r7}
        0x08001168:    f001ba55    ..U.    B.W      __NVIC_SetPriority ; 0x8002616
    $d
        0x0800116c:    e000ed0c    ....    DCD    3758157068
    $t
    i.HAL_NVIC_SetPriorityGrouping
    HAL_NVIC_SetPriorityGrouping
        0x08001170:    4906        .I      LDR      r1,[pc,#24] ; [0x800118c] = 0xe000ed0c
        0x08001172:    f0000207    ....    AND      r2,r0,#7
        0x08001176:    6808        .h      LDR      r0,[r1,#0]
        0x08001178:    f64f03ff    O...    MOV      r3,#0xf8ff
        0x0800117c:    4018        .@      ANDS     r0,r0,r3
        0x0800117e:    ea402002    @..     ORR      r0,r0,r2,LSL #8
        0x08001182:    4a03        .J      LDR      r2,[pc,#12] ; [0x8001190] = 0x5fa0000
        0x08001184:    4310        .C      ORRS     r0,r0,r2
        0x08001186:    6008        .`      STR      r0,[r1,#0]
        0x08001188:    4770        pG      BX       lr
    $d
        0x0800118a:    0000        ..      DCW    0
        0x0800118c:    e000ed0c    ....    DCD    3758157068
        0x08001190:    05fa0000    ....    DCD    100270080
    $t
    i.HAL_RCC_ClockConfig
    HAL_RCC_ClockConfig
        0x08001194:    e92d47f0    -..G    PUSH     {r4-r10,lr}
        0x08001198:    460f        .F      MOV      r7,r1
        0x0800119a:    0005        ..      MOVS     r5,r0
        0x0800119c:    d061        a.      BEQ      0x8001262 ; HAL_RCC_ClockConfig + 206
        0x0800119e:    4e43        CN      LDR      r6,[pc,#268] ; [0x80012ac] = 0x40022000
        0x080011a0:    6830        0h      LDR      r0,[r6,#0]
        0x080011a2:    f0000007    ....    AND      r0,r0,#7
        0x080011a6:    42b8        .B      CMP      r0,r7
        0x080011a8:    d209        ..      BCS      0x80011be ; HAL_RCC_ClockConfig + 42
        0x080011aa:    6830        0h      LDR      r0,[r6,#0]
        0x080011ac:    f0200007     ...    BIC      r0,r0,#7
        0x080011b0:    4338        8C      ORRS     r0,r0,r7
        0x080011b2:    6030        0`      STR      r0,[r6,#0]
        0x080011b4:    6830        0h      LDR      r0,[r6,#0]
        0x080011b6:    f0000007    ....    AND      r0,r0,#7
        0x080011ba:    42b8        .B      CMP      r0,r7
        0x080011bc:    d151        Q.      BNE      0x8001262 ; HAL_RCC_ClockConfig + 206
        0x080011be:    6828        (h      LDR      r0,[r5,#0]
        0x080011c0:    4c3b        ;L      LDR      r4,[pc,#236] ; [0x80012b0] = 0x40021000
        0x080011c2:    0781        ..      LSLS     r1,r0,#30
        0x080011c4:    d512        ..      BPL      0x80011ec ; HAL_RCC_ClockConfig + 88
        0x080011c6:    0740        @.      LSLS     r0,r0,#29
        0x080011c8:    d503        ..      BPL      0x80011d2 ; HAL_RCC_ClockConfig + 62
        0x080011ca:    6860        `h      LDR      r0,[r4,#4]
        0x080011cc:    f44060e0    @..`    ORR      r0,r0,#0x700
        0x080011d0:    6060        ``      STR      r0,[r4,#4]
        0x080011d2:    7828        (x      LDRB     r0,[r5,#0]
        0x080011d4:    0700        ..      LSLS     r0,r0,#28
        0x080011d6:    d503        ..      BPL      0x80011e0 ; HAL_RCC_ClockConfig + 76
        0x080011d8:    6860        `h      LDR      r0,[r4,#4]
        0x080011da:    f4405060    @.`P    ORR      r0,r0,#0x3800
        0x080011de:    6060        ``      STR      r0,[r4,#4]
        0x080011e0:    6860        `h      LDR      r0,[r4,#4]
        0x080011e2:    68a9        .h      LDR      r1,[r5,#8]
        0x080011e4:    f02000f0     ...    BIC      r0,r0,#0xf0
        0x080011e8:    4308        .C      ORRS     r0,r0,r1
        0x080011ea:    6060        ``      STR      r0,[r4,#4]
        0x080011ec:    7828        (x      LDRB     r0,[r5,#0]
        0x080011ee:    07c0        ..      LSLS     r0,r0,#31
        0x080011f0:    d028        (.      BEQ      0x8001244 ; HAL_RCC_ClockConfig + 176
        0x080011f2:    6868        hh      LDR      r0,[r5,#4]
        0x080011f4:    2801        .(      CMP      r0,#1
        0x080011f6:    d010        ..      BEQ      0x800121a ; HAL_RCC_ClockConfig + 134
        0x080011f8:    6821        !h      LDR      r1,[r4,#0]
        0x080011fa:    2802        .(      CMP      r0,#2
        0x080011fc:    d010        ..      BEQ      0x8001220 ; HAL_RCC_ClockConfig + 140
        0x080011fe:    0789        ..      LSLS     r1,r1,#30
        0x08001200:    2900        .)      CMP      r1,#0
        0x08001202:    da2e        ..      BGE      0x8001262 ; HAL_RCC_ClockConfig + 206
        0x08001204:    6861        ah      LDR      r1,[r4,#4]
        0x08001206:    f0210103    !...    BIC      r1,r1,#3
        0x0800120a:    4301        .C      ORRS     r1,r1,r0
        0x0800120c:    6061        a`      STR      r1,[r4,#4]
        0x0800120e:    f7ffff03    ....    BL       HAL_GetTick ; 0x8001018
        0x08001212:    4680        .F      MOV      r8,r0
        0x08001214:    f2413988    A..9    MOV      r9,#0x1388
        0x08001218:    e00d        ..      B        0x8001236 ; HAL_RCC_ClockConfig + 162
        0x0800121a:    6821        !h      LDR      r1,[r4,#0]
        0x0800121c:    0389        ..      LSLS     r1,r1,#14
        0x0800121e:    e7ef        ..      B        0x8001200 ; HAL_RCC_ClockConfig + 108
        0x08001220:    0189        ..      LSLS     r1,r1,#6
        0x08001222:    e7ed        ..      B        0x8001200 ; HAL_RCC_ClockConfig + 108
        0x08001224:    f7fffef8    ....    BL       HAL_GetTick ; 0x8001018
        0x08001228:    eba00108    ....    SUB      r1,r0,r8
        0x0800122c:    4549        IE      CMP      r1,r9
        0x0800122e:    d902        ..      BLS      0x8001236 ; HAL_RCC_ClockConfig + 162
        0x08001230:    2003        .       MOVS     r0,#3
        0x08001232:    e8bd87f0    ....    POP      {r4-r10,pc}
        0x08001236:    6860        `h      LDR      r0,[r4,#4]
        0x08001238:    6869        ih      LDR      r1,[r5,#4]
        0x0800123a:    f000000c    ....    AND      r0,r0,#0xc
        0x0800123e:    ebb00f81    ....    CMP      r0,r1,LSL #2
        0x08001242:    d1ef        ..      BNE      0x8001224 ; HAL_RCC_ClockConfig + 144
        0x08001244:    6830        0h      LDR      r0,[r6,#0]
        0x08001246:    f0000007    ....    AND      r0,r0,#7
        0x0800124a:    42b8        .B      CMP      r0,r7
        0x0800124c:    d90b        ..      BLS      0x8001266 ; HAL_RCC_ClockConfig + 210
        0x0800124e:    6830        0h      LDR      r0,[r6,#0]
        0x08001250:    f0200007     ...    BIC      r0,r0,#7
        0x08001254:    4338        8C      ORRS     r0,r0,r7
        0x08001256:    6030        0`      STR      r0,[r6,#0]
        0x08001258:    6830        0h      LDR      r0,[r6,#0]
        0x0800125a:    f0000007    ....    AND      r0,r0,#7
        0x0800125e:    42b8        .B      CMP      r0,r7
        0x08001260:    d001        ..      BEQ      0x8001266 ; HAL_RCC_ClockConfig + 210
        0x08001262:    2001        .       MOVS     r0,#1
        0x08001264:    e7e5        ..      B        0x8001232 ; HAL_RCC_ClockConfig + 158
        0x08001266:    7828        (x      LDRB     r0,[r5,#0]
        0x08001268:    0740        @.      LSLS     r0,r0,#29
        0x0800126a:    d505        ..      BPL      0x8001278 ; HAL_RCC_ClockConfig + 228
        0x0800126c:    6860        `h      LDR      r0,[r4,#4]
        0x0800126e:    68e9        .h      LDR      r1,[r5,#0xc]
        0x08001270:    f42060e0     ..`    BIC      r0,r0,#0x700
        0x08001274:    4308        .C      ORRS     r0,r0,r1
        0x08001276:    6060        ``      STR      r0,[r4,#4]
        0x08001278:    7828        (x      LDRB     r0,[r5,#0]
        0x0800127a:    0700        ..      LSLS     r0,r0,#28
        0x0800127c:    d506        ..      BPL      0x800128c ; HAL_RCC_ClockConfig + 248
        0x0800127e:    6860        `h      LDR      r0,[r4,#4]
        0x08001280:    6929        )i      LDR      r1,[r5,#0x10]
        0x08001282:    f4205060     .`P    BIC      r0,r0,#0x3800
        0x08001286:    ea4000c1    @...    ORR      r0,r0,r1,LSL #3
        0x0800128a:    6060        ``      STR      r0,[r4,#4]
        0x0800128c:    f000f858    ..X.    BL       HAL_RCC_GetSysClockFreq ; 0x8001340
        0x08001290:    6861        ah      LDR      r1,[r4,#4]
        0x08001292:    4a08        .J      LDR      r2,[pc,#32] ; [0x80012b4] = 0x80061c4
        0x08001294:    f3c11103    ....    UBFX     r1,r1,#4,#4
        0x08001298:    5c51        Q\      LDRB     r1,[r2,r1]
        0x0800129a:    40c8        .@      LSRS     r0,r0,r1
        0x0800129c:    4906        .I      LDR      r1,[pc,#24] ; [0x80012b8] = 0x20000038
        0x0800129e:    6008        .`      STR      r0,[r1,#0]
        0x080012a0:    4806        .H      LDR      r0,[pc,#24] ; [0x80012bc] = 0x20000030
        0x080012a2:    6800        .h      LDR      r0,[r0,#0]
        0x080012a4:    f7fffed8    ....    BL       HAL_InitTick ; 0x8001058
        0x080012a8:    2000        .       MOVS     r0,#0
        0x080012aa:    e7c2        ..      B        0x8001232 ; HAL_RCC_ClockConfig + 158
    $d
        0x080012ac:    40022000    . .@    DCD    1073881088
        0x080012b0:    40021000    ...@    DCD    1073876992
        0x080012b4:    080061c4    .a..    DCD    134242756
        0x080012b8:    20000038    8..     DCD    536870968
        0x080012bc:    20000030    0..     DCD    536870960
    $t
    i.HAL_RCC_GetClockConfig
    HAL_RCC_GetClockConfig
        0x080012c0:    220f        ."      MOVS     r2,#0xf
        0x080012c2:    6002        .`      STR      r2,[r0,#0]
        0x080012c4:    4a0c        .J      LDR      r2,[pc,#48] ; [0x80012f8] = 0x40021000
        0x080012c6:    6853        Sh      LDR      r3,[r2,#4]
        0x080012c8:    f0030303    ....    AND      r3,r3,#3
        0x080012cc:    6043        C`      STR      r3,[r0,#4]
        0x080012ce:    6853        Sh      LDR      r3,[r2,#4]
        0x080012d0:    f00303f0    ....    AND      r3,r3,#0xf0
        0x080012d4:    6083        .`      STR      r3,[r0,#8]
        0x080012d6:    6853        Sh      LDR      r3,[r2,#4]
        0x080012d8:    f40363e0    ...c    AND      r3,r3,#0x700
        0x080012dc:    60c3        .`      STR      r3,[r0,#0xc]
        0x080012de:    6852        Rh      LDR      r2,[r2,#4]
        0x080012e0:    f44f63e0    O..c    MOV      r3,#0x700
        0x080012e4:    ea0302d2    ....    AND      r2,r3,r2,LSR #3
        0x080012e8:    6102        .a      STR      r2,[r0,#0x10]
        0x080012ea:    4804        .H      LDR      r0,[pc,#16] ; [0x80012fc] = 0x40022000
        0x080012ec:    6800        .h      LDR      r0,[r0,#0]
        0x080012ee:    f0000007    ....    AND      r0,r0,#7
        0x080012f2:    6008        .`      STR      r0,[r1,#0]
        0x080012f4:    4770        pG      BX       lr
    $d
        0x080012f6:    0000        ..      DCW    0
        0x080012f8:    40021000    ...@    DCD    1073876992
        0x080012fc:    40022000    . .@    DCD    1073881088
    $t
    i.HAL_RCC_GetPCLK1Freq
    HAL_RCC_GetPCLK1Freq
        0x08001300:    4804        .H      LDR      r0,[pc,#16] ; [0x8001314] = 0x20000038
        0x08001302:    4905        .I      LDR      r1,[pc,#20] ; [0x8001318] = 0x40021000
        0x08001304:    6800        .h      LDR      r0,[r0,#0]
        0x08001306:    6849        Ih      LDR      r1,[r1,#4]
        0x08001308:    4a04        .J      LDR      r2,[pc,#16] ; [0x800131c] = 0x80061d4
        0x0800130a:    f3c12102    ...!    UBFX     r1,r1,#8,#3
        0x0800130e:    5c51        Q\      LDRB     r1,[r2,r1]
        0x08001310:    40c8        .@      LSRS     r0,r0,r1
        0x08001312:    4770        pG      BX       lr
    $d
        0x08001314:    20000038    8..     DCD    536870968
        0x08001318:    40021000    ...@    DCD    1073876992
        0x0800131c:    080061d4    .a..    DCD    134242772
    $t
    i.HAL_RCC_GetPCLK2Freq
    HAL_RCC_GetPCLK2Freq
        0x08001320:    4804        .H      LDR      r0,[pc,#16] ; [0x8001334] = 0x20000038
        0x08001322:    4905        .I      LDR      r1,[pc,#20] ; [0x8001338] = 0x40021000
        0x08001324:    6800        .h      LDR      r0,[r0,#0]
        0x08001326:    6849        Ih      LDR      r1,[r1,#4]
        0x08001328:    4a04        .J      LDR      r2,[pc,#16] ; [0x800133c] = 0x80061d4
        0x0800132a:    f3c121c2    ...!    UBFX     r1,r1,#11,#3
        0x0800132e:    5c51        Q\      LDRB     r1,[r2,r1]
        0x08001330:    40c8        .@      LSRS     r0,r0,r1
        0x08001332:    4770        pG      BX       lr
    $d
        0x08001334:    20000038    8..     DCD    536870968
        0x08001338:    40021000    ...@    DCD    1073876992
        0x0800133c:    080061d4    .a..    DCD    134242772
    $t
    i.HAL_RCC_GetSysClockFreq
    HAL_RCC_GetSysClockFreq
        0x08001340:    a112        ..      ADR      r1,{pc}+0x4c ; 0x800138c
        0x08001342:    b085        ..      SUB      sp,sp,#0x14
        0x08001344:    c90f        ..      LDM      r1,{r0-r3}
        0x08001346:    e88d000f    ....    STM      sp,{r0-r3}
        0x0800134a:    a014        ..      ADR      r0,{pc}+0x52 ; 0x800139c
        0x0800134c:    4a14        .J      LDR      r2,[pc,#80] ; [0x80013a0] = 0x40021000
        0x0800134e:    6800        .h      LDR      r0,[r0,#0]
        0x08001350:    9004        ..      STR      r0,[sp,#0x10]
        0x08001352:    6851        Qh      LDR      r1,[r2,#4]
        0x08001354:    4813        .H      LDR      r0,[pc,#76] ; [0x80013a4] = 0x7a1200
        0x08001356:    f001030c    ....    AND      r3,r1,#0xc
        0x0800135a:    2b04        .+      CMP      r3,#4
        0x0800135c:    d010        ..      BEQ      0x8001380 ; HAL_RCC_GetSysClockFreq + 64
        0x0800135e:    2b08        .+      CMP      r3,#8
        0x08001360:    d10e        ..      BNE      0x8001380 ; HAL_RCC_GetSysClockFreq + 64
        0x08001362:    f3c14383    ...C    UBFX     r3,r1,#18,#4
        0x08001366:    03c9        ..      LSLS     r1,r1,#15
        0x08001368:    f81d0003    ....    LDRB     r0,[sp,r3]
        0x0800136c:    d50a        ..      BPL      0x8001384 ; HAL_RCC_GetSysClockFreq + 68
        0x0800136e:    6851        Qh      LDR      r1,[r2,#4]
        0x08001370:    aa04        ..      ADD      r2,sp,#0x10
        0x08001372:    f3c14140    ..@A    UBFX     r1,r1,#17,#1
        0x08001376:    5c51        Q\      LDRB     r1,[r2,r1]
        0x08001378:    4a0a        .J      LDR      r2,[pc,#40] ; [0x80013a4] = 0x7a1200
        0x0800137a:    4350        PC      MULS     r0,r2,r0
        0x0800137c:    fbb0f0f1    ....    UDIV     r0,r0,r1
        0x08001380:    b005        ..      ADD      sp,sp,#0x14
        0x08001382:    4770        pG      BX       lr
        0x08001384:    4908        .I      LDR      r1,[pc,#32] ; [0x80013a8] = 0x3d0900
        0x08001386:    4348        HC      MULS     r0,r1,r0
        0x08001388:    e7fa        ..      B        0x8001380 ; HAL_RCC_GetSysClockFreq + 64
    $d
        0x0800138a:    0000        ..      DCW    0
        0x0800138c:    05040302    ....    DCD    84148994
        0x08001390:    09080706    ....    DCD    151521030
        0x08001394:    0d0c0b0a    ....    DCD    218893066
        0x08001398:    10100f0e    ....    DCD    269487886
        0x0800139c:    00000201    ....    DCD    513
        0x080013a0:    40021000    ...@    DCD    1073876992
        0x080013a4:    007a1200    ..z.    DCD    8000000
        0x080013a8:    003d0900    ..=.    DCD    4000000
    $t
    i.HAL_RCC_OscConfig
    HAL_RCC_OscConfig
        0x080013ac:    e92d4ff8    -..O    PUSH     {r3-r11,lr}
        0x080013b0:    0004        ..      MOVS     r4,r0
        0x080013b2:    d070        p.      BEQ      0x8001496 ; HAL_RCC_OscConfig + 234
        0x080013b4:    7820         x      LDRB     r0,[r4,#0]
        0x080013b6:    4dc0        .M      LDR      r5,[pc,#768] ; [0x80016b8] = 0x40021000
        0x080013b8:    07c0        ..      LSLS     r0,r0,#31
        0x080013ba:    d049        I.      BEQ      0x8001450 ; HAL_RCC_OscConfig + 164
        0x080013bc:    6868        hh      LDR      r0,[r5,#4]
        0x080013be:    f3c00081    ....    UBFX     r0,r0,#2,#2
        0x080013c2:    2801        .(      CMP      r0,#1
        0x080013c4:    d007        ..      BEQ      0x80013d6 ; HAL_RCC_OscConfig + 42
        0x080013c6:    6868        hh      LDR      r0,[r5,#4]
        0x080013c8:    f3c00081    ....    UBFX     r0,r0,#2,#2
        0x080013cc:    2802        .(      CMP      r0,#2
        0x080013ce:    d109        ..      BNE      0x80013e4 ; HAL_RCC_OscConfig + 56
        0x080013d0:    6868        hh      LDR      r0,[r5,#4]
        0x080013d2:    03c0        ..      LSLS     r0,r0,#15
        0x080013d4:    d506        ..      BPL      0x80013e4 ; HAL_RCC_OscConfig + 56
        0x080013d6:    6828        (h      LDR      r0,[r5,#0]
        0x080013d8:    0380        ..      LSLS     r0,r0,#14
        0x080013da:    d539        9.      BPL      0x8001450 ; HAL_RCC_OscConfig + 164
        0x080013dc:    6860        `h      LDR      r0,[r4,#4]
        0x080013de:    2800        .(      CMP      r0,#0
        0x080013e0:    d0e7        ..      BEQ      0x80013b2 ; HAL_RCC_OscConfig + 6
        0x080013e2:    e035        5.      B        0x8001450 ; HAL_RCC_OscConfig + 164
        0x080013e4:    6860        `h      LDR      r0,[r4,#4]
        0x080013e6:    f5b03f80    ...?    CMP      r0,#0x10000
        0x080013ea:    d00b        ..      BEQ      0x8001404 ; HAL_RCC_OscConfig + 88
        0x080013ec:    b110        ..      CBZ      r0,0x80013f4 ; HAL_RCC_OscConfig + 72
        0x080013ee:    f5b02fa0    .../    CMP      r0,#0x50000
        0x080013f2:    d011        ..      BEQ      0x8001418 ; HAL_RCC_OscConfig + 108
        0x080013f4:    6828        (h      LDR      r0,[r5,#0]
        0x080013f6:    f4203080     ..0    BIC      r0,r0,#0x10000
        0x080013fa:    6028        (`      STR      r0,[r5,#0]
        0x080013fc:    6828        (h      LDR      r0,[r5,#0]
        0x080013fe:    f4202080     ..     BIC      r0,r0,#0x40000
        0x08001402:    e002        ..      B        0x800140a ; HAL_RCC_OscConfig + 94
        0x08001404:    6828        (h      LDR      r0,[r5,#0]
        0x08001406:    f4403080    @..0    ORR      r0,r0,#0x10000
        0x0800140a:    6028        (`      STR      r0,[r5,#0]
        0x0800140c:    6860        `h      LDR      r0,[r4,#4]
        0x0800140e:    b190        ..      CBZ      r0,0x8001436 ; HAL_RCC_OscConfig + 138
        0x08001410:    f7fffe02    ....    BL       HAL_GetTick ; 0x8001018
        0x08001414:    4606        .F      MOV      r6,r0
        0x08001416:    e00a        ..      B        0x800142e ; HAL_RCC_OscConfig + 130
        0x08001418:    6828        (h      LDR      r0,[r5,#0]
        0x0800141a:    f4402080    @..     ORR      r0,r0,#0x40000
        0x0800141e:    6028        (`      STR      r0,[r5,#0]
        0x08001420:    e7f0        ..      B        0x8001404 ; HAL_RCC_OscConfig + 88
        0x08001422:    bf00        ..      NOP      
        0x08001424:    f7fffdf8    ....    BL       HAL_GetTick ; 0x8001018
        0x08001428:    1b80        ..      SUBS     r0,r0,r6
        0x0800142a:    2864        d(      CMP      r0,#0x64
        0x0800142c:    d873        s.      BHI      0x8001516 ; HAL_RCC_OscConfig + 362
        0x0800142e:    6828        (h      LDR      r0,[r5,#0]
        0x08001430:    0380        ..      LSLS     r0,r0,#14
        0x08001432:    d5f7        ..      BPL      0x8001424 ; HAL_RCC_OscConfig + 120
        0x08001434:    e00c        ..      B        0x8001450 ; HAL_RCC_OscConfig + 164
        0x08001436:    f7fffdef    ....    BL       HAL_GetTick ; 0x8001018
        0x0800143a:    4606        .F      MOV      r6,r0
        0x0800143c:    e005        ..      B        0x800144a ; HAL_RCC_OscConfig + 158
        0x0800143e:    bf00        ..      NOP      
        0x08001440:    f7fffdea    ....    BL       HAL_GetTick ; 0x8001018
        0x08001444:    1b80        ..      SUBS     r0,r0,r6
        0x08001446:    2864        d(      CMP      r0,#0x64
        0x08001448:    d8f0        ..      BHI      0x800142c ; HAL_RCC_OscConfig + 128
        0x0800144a:    6828        (h      LDR      r0,[r5,#0]
        0x0800144c:    0380        ..      LSLS     r0,r0,#14
        0x0800144e:    d4f7        ..      BMI      0x8001440 ; HAL_RCC_OscConfig + 148
        0x08001450:    7820         x      LDRB     r0,[r4,#0]
        0x08001452:    4e9a        .N      LDR      r6,[pc,#616] ; [0x80016bc] = 0x42420000
        0x08001454:    0780        ..      LSLS     r0,r0,#30
        0x08001456:    f04f0901    O...    MOV      r9,#1
        0x0800145a:    f04f0800    O...    MOV      r8,#0
        0x0800145e:    d539        9.      BPL      0x80014d4 ; HAL_RCC_OscConfig + 296
        0x08001460:    6868        hh      LDR      r0,[r5,#4]
        0x08001462:    f0100f0c    ....    TST      r0,#0xc
        0x08001466:    d007        ..      BEQ      0x8001478 ; HAL_RCC_OscConfig + 204
        0x08001468:    6868        hh      LDR      r0,[r5,#4]
        0x0800146a:    f3c00081    ....    UBFX     r0,r0,#2,#2
        0x0800146e:    2802        .(      CMP      r0,#2
        0x08001470:    d109        ..      BNE      0x8001486 ; HAL_RCC_OscConfig + 218
        0x08001472:    6868        hh      LDR      r0,[r5,#4]
        0x08001474:    03c0        ..      LSLS     r0,r0,#15
        0x08001476:    d406        ..      BMI      0x8001486 ; HAL_RCC_OscConfig + 218
        0x08001478:    6828        (h      LDR      r0,[r5,#0]
        0x0800147a:    0780        ..      LSLS     r0,r0,#30
        0x0800147c:    d514        ..      BPL      0x80014a8 ; HAL_RCC_OscConfig + 252
        0x0800147e:    6920         i      LDR      r0,[r4,#0x10]
        0x08001480:    2801        .(      CMP      r0,#1
        0x08001482:    d108        ..      BNE      0x8001496 ; HAL_RCC_OscConfig + 234
        0x08001484:    e010        ..      B        0x80014a8 ; HAL_RCC_OscConfig + 252
        0x08001486:    6920         i      LDR      r0,[r4,#0x10]
        0x08001488:    b1b0        ..      CBZ      r0,0x80014b8 ; HAL_RCC_OscConfig + 268
        0x0800148a:    f8c69000    ....    STR      r9,[r6,#0]
        0x0800148e:    f7fffdc3    ....    BL       HAL_GetTick ; 0x8001018
        0x08001492:    4607        .F      MOV      r7,r0
        0x08001494:    e005        ..      B        0x80014a2 ; HAL_RCC_OscConfig + 246
        0x08001496:    e10a        ..      B        0x80016ae ; HAL_RCC_OscConfig + 770
        0x08001498:    f7fffdbe    ....    BL       HAL_GetTick ; 0x8001018
        0x0800149c:    1bc0        ..      SUBS     r0,r0,r7
        0x0800149e:    2802        .(      CMP      r0,#2
        0x080014a0:    d8c4        ..      BHI      0x800142c ; HAL_RCC_OscConfig + 128
        0x080014a2:    6828        (h      LDR      r0,[r5,#0]
        0x080014a4:    0780        ..      LSLS     r0,r0,#30
        0x080014a6:    d5f7        ..      BPL      0x8001498 ; HAL_RCC_OscConfig + 236
        0x080014a8:    6828        (h      LDR      r0,[r5,#0]
        0x080014aa:    6961        ai      LDR      r1,[r4,#0x14]
        0x080014ac:    f02000f8     ...    BIC      r0,r0,#0xf8
        0x080014b0:    ea4000c1    @...    ORR      r0,r0,r1,LSL #3
        0x080014b4:    6028        (`      STR      r0,[r5,#0]
        0x080014b6:    e00d        ..      B        0x80014d4 ; HAL_RCC_OscConfig + 296
        0x080014b8:    f8c68000    ....    STR      r8,[r6,#0]
        0x080014bc:    f7fffdac    ....    BL       HAL_GetTick ; 0x8001018
        0x080014c0:    4607        .F      MOV      r7,r0
        0x080014c2:    e004        ..      B        0x80014ce ; HAL_RCC_OscConfig + 290
        0x080014c4:    f7fffda8    ....    BL       HAL_GetTick ; 0x8001018
        0x080014c8:    1bc0        ..      SUBS     r0,r0,r7
        0x080014ca:    2802        .(      CMP      r0,#2
        0x080014cc:    d823        #.      BHI      0x8001516 ; HAL_RCC_OscConfig + 362
        0x080014ce:    6828        (h      LDR      r0,[r5,#0]
        0x080014d0:    0780        ..      LSLS     r0,r0,#30
        0x080014d2:    d4f7        ..      BMI      0x80014c4 ; HAL_RCC_OscConfig + 280
        0x080014d4:    7820         x      LDRB     r0,[r4,#0]
        0x080014d6:    0700        ..      LSLS     r0,r0,#28
        0x080014d8:    d52c        ,.      BPL      0x8001534 ; HAL_RCC_OscConfig + 392
        0x080014da:    4879        yH      LDR      r0,[pc,#484] ; [0x80016c0] = 0x42420480
        0x080014dc:    69a1        .i      LDR      r1,[r4,#0x18]
        0x080014de:    b1d9        ..      CBZ      r1,0x8001518 ; HAL_RCC_OscConfig + 364
        0x080014e0:    f8c09000    ....    STR      r9,[r0,#0]
        0x080014e4:    f7fffd98    ....    BL       HAL_GetTick ; 0x8001018
        0x080014e8:    4607        .F      MOV      r7,r0
        0x080014ea:    e004        ..      B        0x80014f6 ; HAL_RCC_OscConfig + 330
        0x080014ec:    f7fffd94    ....    BL       HAL_GetTick ; 0x8001018
        0x080014f0:    1bc0        ..      SUBS     r0,r0,r7
        0x080014f2:    2802        .(      CMP      r0,#2
        0x080014f4:    d80f        ..      BHI      0x8001516 ; HAL_RCC_OscConfig + 362
        0x080014f6:    6a68        hj      LDR      r0,[r5,#0x24]
        0x080014f8:    0780        ..      LSLS     r0,r0,#30
        0x080014fa:    d5f7        ..      BPL      0x80014ec ; HAL_RCC_OscConfig + 320
        0x080014fc:    4871        qH      LDR      r0,[pc,#452] ; [0x80016c4] = 0x20000038
        0x080014fe:    f44f51fa    O..Q    MOV      r1,#0x1f40
        0x08001502:    6800        .h      LDR      r0,[r0,#0]
        0x08001504:    fbb0f0f1    ....    UDIV     r0,r0,r1
        0x08001508:    9000        ..      STR      r0,[sp,#0]
        0x0800150a:    bf00        ..      NOP      
        0x0800150c:    9800        ..      LDR      r0,[sp,#0]
        0x0800150e:    1e41        A.      SUBS     r1,r0,#1
        0x08001510:    9100        ..      STR      r1,[sp,#0]
        0x08001512:    d2fa        ..      BCS      0x800150a ; HAL_RCC_OscConfig + 350
        0x08001514:    e00e        ..      B        0x8001534 ; HAL_RCC_OscConfig + 392
        0x08001516:    e080        ..      B        0x800161a ; HAL_RCC_OscConfig + 622
        0x08001518:    f8c08000    ....    STR      r8,[r0,#0]
        0x0800151c:    f7fffd7c    ..|.    BL       HAL_GetTick ; 0x8001018
        0x08001520:    4607        .F      MOV      r7,r0
        0x08001522:    e004        ..      B        0x800152e ; HAL_RCC_OscConfig + 386
        0x08001524:    f7fffd78    ..x.    BL       HAL_GetTick ; 0x8001018
        0x08001528:    1bc0        ..      SUBS     r0,r0,r7
        0x0800152a:    2802        .(      CMP      r0,#2
        0x0800152c:    d875        u.      BHI      0x800161a ; HAL_RCC_OscConfig + 622
        0x0800152e:    6a68        hj      LDR      r0,[r5,#0x24]
        0x08001530:    0780        ..      LSLS     r0,r0,#30
        0x08001532:    d4f7        ..      BMI      0x8001524 ; HAL_RCC_OscConfig + 376
        0x08001534:    7820         x      LDRB     r0,[r4,#0]
        0x08001536:    0740        @.      LSLS     r0,r0,#29
        0x08001538:    d560        `.      BPL      0x80015fc ; HAL_RCC_OscConfig + 592
        0x0800153a:    69e8        .i      LDR      r0,[r5,#0x1c]
        0x0800153c:    2700        .'      MOVS     r7,#0
        0x0800153e:    00c0        ..      LSLS     r0,r0,#3
        0x08001540:    d408        ..      BMI      0x8001554 ; HAL_RCC_OscConfig + 424
        0x08001542:    69e8        .i      LDR      r0,[r5,#0x1c]
        0x08001544:    f0405080    @..P    ORR      r0,r0,#0x10000000
        0x08001548:    61e8        .a      STR      r0,[r5,#0x1c]
        0x0800154a:    69e8        .i      LDR      r0,[r5,#0x1c]
        0x0800154c:    2701        .'      MOVS     r7,#1
        0x0800154e:    f0005080    ...P    AND      r0,r0,#0x10000000
        0x08001552:    9000        ..      STR      r0,[sp,#0]
        0x08001554:    485c        \H      LDR      r0,[pc,#368] ; [0x80016c8] = 0x40007000
        0x08001556:    6801        .h      LDR      r1,[r0,#0]
        0x08001558:    05c9        ..      LSLS     r1,r1,#23
        0x0800155a:    d413        ..      BMI      0x8001584 ; HAL_RCC_OscConfig + 472
        0x0800155c:    6801        .h      LDR      r1,[r0,#0]
        0x0800155e:    4683        .F      MOV      r11,r0
        0x08001560:    f4417180    A..q    ORR      r1,r1,#0x100
        0x08001564:    6001        .`      STR      r1,[r0,#0]
        0x08001566:    f7fffd57    ..W.    BL       HAL_GetTick ; 0x8001018
        0x0800156a:    4682        .F      MOV      r10,r0
        0x0800156c:    e006        ..      B        0x800157c ; HAL_RCC_OscConfig + 464
        0x0800156e:    bf00        ..      NOP      
        0x08001570:    f7fffd52    ..R.    BL       HAL_GetTick ; 0x8001018
        0x08001574:    eba0000a    ....    SUB      r0,r0,r10
        0x08001578:    2864        d(      CMP      r0,#0x64
        0x0800157a:    d84e        N.      BHI      0x800161a ; HAL_RCC_OscConfig + 622
        0x0800157c:    f8db0000    ....    LDR      r0,[r11,#0]
        0x08001580:    05c0        ..      LSLS     r0,r0,#23
        0x08001582:    d5f5        ..      BPL      0x8001570 ; HAL_RCC_OscConfig + 452
        0x08001584:    68e0        .h      LDR      r0,[r4,#0xc]
        0x08001586:    2801        .(      CMP      r0,#1
        0x08001588:    d00a        ..      BEQ      0x80015a0 ; HAL_RCC_OscConfig + 500
        0x0800158a:    b108        ..      CBZ      r0,0x8001590 ; HAL_RCC_OscConfig + 484
        0x0800158c:    2805        .(      CMP      r0,#5
        0x0800158e:    d013        ..      BEQ      0x80015b8 ; HAL_RCC_OscConfig + 524
        0x08001590:    6a28        (j      LDR      r0,[r5,#0x20]
        0x08001592:    f0200001     ...    BIC      r0,r0,#1
        0x08001596:    6228        (b      STR      r0,[r5,#0x20]
        0x08001598:    6a28        (j      LDR      r0,[r5,#0x20]
        0x0800159a:    f0200004     ...    BIC      r0,r0,#4
        0x0800159e:    e002        ..      B        0x80015a6 ; HAL_RCC_OscConfig + 506
        0x080015a0:    6a28        (j      LDR      r0,[r5,#0x20]
        0x080015a2:    f0400001    @...    ORR      r0,r0,#1
        0x080015a6:    6228        (b      STR      r0,[r5,#0x20]
        0x080015a8:    68e0        .h      LDR      r0,[r4,#0xc]
        0x080015aa:    f2413b88    A..;    MOV      r11,#0x1388
        0x080015ae:    b198        ..      CBZ      r0,0x80015d8 ; HAL_RCC_OscConfig + 556
        0x080015b0:    f7fffd32    ..2.    BL       HAL_GetTick ; 0x8001018
        0x080015b4:    4682        .F      MOV      r10,r0
        0x080015b6:    e00b        ..      B        0x80015d0 ; HAL_RCC_OscConfig + 548
        0x080015b8:    6a28        (j      LDR      r0,[r5,#0x20]
        0x080015ba:    f0400004    @...    ORR      r0,r0,#4
        0x080015be:    6228        (b      STR      r0,[r5,#0x20]
        0x080015c0:    e7ee        ..      B        0x80015a0 ; HAL_RCC_OscConfig + 500
        0x080015c2:    bf00        ..      NOP      
        0x080015c4:    f7fffd28    ..(.    BL       HAL_GetTick ; 0x8001018
        0x080015c8:    eba0010a    ....    SUB      r1,r0,r10
        0x080015cc:    4559        YE      CMP      r1,r11
        0x080015ce:    d85a        Z.      BHI      0x8001686 ; HAL_RCC_OscConfig + 730
        0x080015d0:    6a28        (j      LDR      r0,[r5,#0x20]
        0x080015d2:    0780        ..      LSLS     r0,r0,#30
        0x080015d4:    d5f6        ..      BPL      0x80015c4 ; HAL_RCC_OscConfig + 536
        0x080015d6:    e00c        ..      B        0x80015f2 ; HAL_RCC_OscConfig + 582
        0x080015d8:    f7fffd1e    ....    BL       HAL_GetTick ; 0x8001018
        0x080015dc:    4682        .F      MOV      r10,r0
        0x080015de:    e005        ..      B        0x80015ec ; HAL_RCC_OscConfig + 576
        0x080015e0:    f7fffd1a    ....    BL       HAL_GetTick ; 0x8001018
        0x080015e4:    eba0010a    ....    SUB      r1,r0,r10
        0x080015e8:    4559        YE      CMP      r1,r11
        0x080015ea:    d84c        L.      BHI      0x8001686 ; HAL_RCC_OscConfig + 730
        0x080015ec:    6a28        (j      LDR      r0,[r5,#0x20]
        0x080015ee:    0780        ..      LSLS     r0,r0,#30
        0x080015f0:    d4f6        ..      BMI      0x80015e0 ; HAL_RCC_OscConfig + 564
        0x080015f2:    b11f        ..      CBZ      r7,0x80015fc ; HAL_RCC_OscConfig + 592
        0x080015f4:    69e8        .i      LDR      r0,[r5,#0x1c]
        0x080015f6:    f0205080     ..P    BIC      r0,r0,#0x10000000
        0x080015fa:    61e8        .a      STR      r0,[r5,#0x1c]
        0x080015fc:    69e0        .i      LDR      r0,[r4,#0x1c]
        0x080015fe:    b388        ..      CBZ      r0,0x8001664 ; HAL_RCC_OscConfig + 696
        0x08001600:    6869        ih      LDR      r1,[r5,#4]
        0x08001602:    f3c10181    ....    UBFX     r1,r1,#2,#2
        0x08001606:    2902        .)      CMP      r1,#2
        0x08001608:    d044        D.      BEQ      0x8001694 ; HAL_RCC_OscConfig + 744
        0x0800160a:    2802        .(      CMP      r0,#2
        0x0800160c:    f8c68060    ..`.    STR      r8,[r6,#0x60]
        0x08001610:    d004        ..      BEQ      0x800161c ; HAL_RCC_OscConfig + 624
        0x08001612:    f7fffd01    ....    BL       HAL_GetTick ; 0x8001018
        0x08001616:    4604        .F      MOV      r4,r0
        0x08001618:    e038        8.      B        0x800168c ; HAL_RCC_OscConfig + 736
        0x0800161a:    e034        4.      B        0x8001686 ; HAL_RCC_OscConfig + 730
        0x0800161c:    f7fffcfc    ....    BL       HAL_GetTick ; 0x8001018
        0x08001620:    4607        .F      MOV      r7,r0
        0x08001622:    e004        ..      B        0x800162e ; HAL_RCC_OscConfig + 642
        0x08001624:    f7fffcf8    ....    BL       HAL_GetTick ; 0x8001018
        0x08001628:    1bc0        ..      SUBS     r0,r0,r7
        0x0800162a:    2802        .(      CMP      r0,#2
        0x0800162c:    d82b        +.      BHI      0x8001686 ; HAL_RCC_OscConfig + 730
        0x0800162e:    6828        (h      LDR      r0,[r5,#0]
        0x08001630:    0180        ..      LSLS     r0,r0,#6
        0x08001632:    d4f7        ..      BMI      0x8001624 ; HAL_RCC_OscConfig + 632
        0x08001634:    6a20         j      LDR      r0,[r4,#0x20]
        0x08001636:    f5b03f80    ...?    CMP      r0,#0x10000
        0x0800163a:    d105        ..      BNE      0x8001648 ; HAL_RCC_OscConfig + 668
        0x0800163c:    6868        hh      LDR      r0,[r5,#4]
        0x0800163e:    68a1        .h      LDR      r1,[r4,#8]
        0x08001640:    f4203000     ..0    BIC      r0,r0,#0x20000
        0x08001644:    4308        .C      ORRS     r0,r0,r1
        0x08001646:    6068        h`      STR      r0,[r5,#4]
        0x08001648:    e9d40108    ....    LDRD     r0,r1,[r4,#0x20]
        0x0800164c:    4308        .C      ORRS     r0,r0,r1
        0x0800164e:    6869        ih      LDR      r1,[r5,#4]
        0x08001650:    f4211174    !.t.    BIC      r1,r1,#0x3d0000
        0x08001654:    4308        .C      ORRS     r0,r0,r1
        0x08001656:    6068        h`      STR      r0,[r5,#4]
        0x08001658:    f8c69060    ..`.    STR      r9,[r6,#0x60]
        0x0800165c:    f7fffcdc    ....    BL       HAL_GetTick ; 0x8001018
        0x08001660:    4604        .F      MOV      r4,r0
        0x08001662:    e006        ..      B        0x8001672 ; HAL_RCC_OscConfig + 710
        0x08001664:    e025        %.      B        0x80016b2 ; HAL_RCC_OscConfig + 774
        0x08001666:    bf00        ..      NOP      
        0x08001668:    f7fffcd6    ....    BL       HAL_GetTick ; 0x8001018
        0x0800166c:    1b00        ..      SUBS     r0,r0,r4
        0x0800166e:    2802        .(      CMP      r0,#2
        0x08001670:    d809        ..      BHI      0x8001686 ; HAL_RCC_OscConfig + 730
        0x08001672:    6828        (h      LDR      r0,[r5,#0]
        0x08001674:    0180        ..      LSLS     r0,r0,#6
        0x08001676:    d5f7        ..      BPL      0x8001668 ; HAL_RCC_OscConfig + 700
        0x08001678:    e01b        ..      B        0x80016b2 ; HAL_RCC_OscConfig + 774
        0x0800167a:    bf00        ..      NOP      
        0x0800167c:    f7fffccc    ....    BL       HAL_GetTick ; 0x8001018
        0x08001680:    1b00        ..      SUBS     r0,r0,r4
        0x08001682:    2802        .(      CMP      r0,#2
        0x08001684:    d902        ..      BLS      0x800168c ; HAL_RCC_OscConfig + 736
        0x08001686:    2003        .       MOVS     r0,#3
        0x08001688:    e8bd8ff8    ....    POP      {r3-r11,pc}
        0x0800168c:    6828        (h      LDR      r0,[r5,#0]
        0x0800168e:    0180        ..      LSLS     r0,r0,#6
        0x08001690:    d4f4        ..      BMI      0x800167c ; HAL_RCC_OscConfig + 720
        0x08001692:    e00e        ..      B        0x80016b2 ; HAL_RCC_OscConfig + 774
        0x08001694:    2801        .(      CMP      r0,#1
        0x08001696:    d0f7        ..      BEQ      0x8001688 ; HAL_RCC_OscConfig + 732
        0x08001698:    6868        hh      LDR      r0,[r5,#4]
        0x0800169a:    6a22        "j      LDR      r2,[r4,#0x20]
        0x0800169c:    f4003180    ...1    AND      r1,r0,#0x10000
        0x080016a0:    4291        .B      CMP      r1,r2
        0x080016a2:    d104        ..      BNE      0x80016ae ; HAL_RCC_OscConfig + 770
        0x080016a4:    6a61        aj      LDR      r1,[r4,#0x24]
        0x080016a6:    f4001070    ..p.    AND      r0,r0,#0x3c0000
        0x080016aa:    4288        .B      CMP      r0,r1
        0x080016ac:    d001        ..      BEQ      0x80016b2 ; HAL_RCC_OscConfig + 774
        0x080016ae:    2001        .       MOVS     r0,#1
        0x080016b0:    e7ea        ..      B        0x8001688 ; HAL_RCC_OscConfig + 732
        0x080016b2:    2000        .       MOVS     r0,#0
        0x080016b4:    e7e8        ..      B        0x8001688 ; HAL_RCC_OscConfig + 732
    $d
        0x080016b6:    0000        ..      DCW    0
        0x080016b8:    40021000    ...@    DCD    1073876992
        0x080016bc:    42420000    ..BB    DCD    1111621632
        0x080016c0:    42420480    ..BB    DCD    1111622784
        0x080016c4:    20000038    8..     DCD    536870968
        0x080016c8:    40007000    .p.@    DCD    1073770496
    $t
    i.HAL_TIMEx_BreakCallback
    HAL_TIMEx_BreakCallback
        0x080016cc:    4770        pG      BX       lr
    i.HAL_TIMEx_CommutCallback
    HAL_TIMEx_CommutCallback
        0x080016ce:    4770        pG      BX       lr
    i.HAL_TIM_Base_Init
    HAL_TIM_Base_Init
        0x080016d0:    b510        ..      PUSH     {r4,lr}
        0x080016d2:    0004        ..      MOVS     r4,r0
        0x080016d4:    d003        ..      BEQ      0x80016de ; HAL_TIM_Base_Init + 14
        0x080016d6:    f894003d    ..=.    LDRB     r0,[r4,#0x3d]
        0x080016da:    b110        ..      CBZ      r0,0x80016e2 ; HAL_TIM_Base_Init + 18
        0x080016dc:    e007        ..      B        0x80016ee ; HAL_TIM_Base_Init + 30
        0x080016de:    2001        .       MOVS     r0,#1
        0x080016e0:    bd10        ..      POP      {r4,pc}
        0x080016e2:    2000        .       MOVS     r0,#0
        0x080016e4:    f884003c    ..<.    STRB     r0,[r4,#0x3c]
        0x080016e8:    4620         F      MOV      r0,r4
        0x080016ea:    f000f81e    ....    BL       HAL_TIM_Base_MspInit ; 0x800172a
        0x080016ee:    2002        .       MOVS     r0,#2
        0x080016f0:    f884003d    ..=.    STRB     r0,[r4,#0x3d]
        0x080016f4:    1d21        !.      ADDS     r1,r4,#4
        0x080016f6:    6820         h      LDR      r0,[r4,#0]
        0x080016f8:    f000fe9a    ....    BL       TIM_Base_SetConfig ; 0x8002430
        0x080016fc:    2001        .       MOVS     r0,#1
        0x080016fe:    f8840046    ..F.    STRB     r0,[r4,#0x46]
        0x08001702:    f884003e    ..>.    STRB     r0,[r4,#0x3e]
        0x08001706:    f884003f    ..?.    STRB     r0,[r4,#0x3f]
        0x0800170a:    f8840040    ..@.    STRB     r0,[r4,#0x40]
        0x0800170e:    f8840041    ..A.    STRB     r0,[r4,#0x41]
        0x08001712:    f8840042    ..B.    STRB     r0,[r4,#0x42]
        0x08001716:    f8840043    ..C.    STRB     r0,[r4,#0x43]
        0x0800171a:    f8840044    ..D.    STRB     r0,[r4,#0x44]
        0x0800171e:    f8840045    ..E.    STRB     r0,[r4,#0x45]
        0x08001722:    f884003d    ..=.    STRB     r0,[r4,#0x3d]
        0x08001726:    2000        .       MOVS     r0,#0
        0x08001728:    bd10        ..      POP      {r4,pc}
    i.HAL_TIM_Base_MspInit
    HAL_TIM_Base_MspInit
        0x0800172a:    4770        pG      BX       lr
    i.HAL_TIM_Base_Start_IT
    HAL_TIM_Base_Start_IT
        0x0800172c:    f890103d    ..=.    LDRB     r1,[r0,#0x3d]
        0x08001730:    2901        .)      CMP      r1,#1
        0x08001732:    d001        ..      BEQ      0x8001738 ; HAL_TIM_Base_Start_IT + 12
        0x08001734:    2001        .       MOVS     r0,#1
        0x08001736:    4770        pG      BX       lr
        0x08001738:    2102        .!      MOVS     r1,#2
        0x0800173a:    f880103d    ..=.    STRB     r1,[r0,#0x3d]
        0x0800173e:    6801        .h      LDR      r1,[r0,#0]
        0x08001740:    68ca        .h      LDR      r2,[r1,#0xc]
        0x08001742:    f0420201    B...    ORR      r2,r2,#1
        0x08001746:    60ca        .`      STR      r2,[r1,#0xc]
        0x08001748:    6800        .h      LDR      r0,[r0,#0]
        0x0800174a:    490b        .I      LDR      r1,[pc,#44] ; [0x8001778] = 0x40012c00
        0x0800174c:    4288        .B      CMP      r0,r1
        0x0800174e:    d008        ..      BEQ      0x8001762 ; HAL_TIM_Base_Start_IT + 54
        0x08001750:    f1b04f80    ...O    CMP      r0,#0x40000000
        0x08001754:    d005        ..      BEQ      0x8001762 ; HAL_TIM_Base_Start_IT + 54
        0x08001756:    4909        .I      LDR      r1,[pc,#36] ; [0x800177c] = 0x40000400
        0x08001758:    4288        .B      CMP      r0,r1
        0x0800175a:    d002        ..      BEQ      0x8001762 ; HAL_TIM_Base_Start_IT + 54
        0x0800175c:    4908        .I      LDR      r1,[pc,#32] ; [0x8001780] = 0x40000800
        0x0800175e:    4288        .B      CMP      r0,r1
        0x08001760:    d104        ..      BNE      0x800176c ; HAL_TIM_Base_Start_IT + 64
        0x08001762:    6881        .h      LDR      r1,[r0,#8]
        0x08001764:    f0010107    ....    AND      r1,r1,#7
        0x08001768:    2906        .)      CMP      r1,#6
        0x0800176a:    d003        ..      BEQ      0x8001774 ; HAL_TIM_Base_Start_IT + 72
        0x0800176c:    6801        .h      LDR      r1,[r0,#0]
        0x0800176e:    f0410101    A...    ORR      r1,r1,#1
        0x08001772:    6001        .`      STR      r1,[r0,#0]
        0x08001774:    2000        .       MOVS     r0,#0
        0x08001776:    4770        pG      BX       lr
    $d
        0x08001778:    40012c00    .,.@    DCD    1073818624
        0x0800177c:    40000400    ...@    DCD    1073742848
        0x08001780:    40000800    ...@    DCD    1073743872
    $t
    i.HAL_TIM_IC_CaptureCallback
    HAL_TIM_IC_CaptureCallback
        0x08001784:    4770        pG      BX       lr
    i.HAL_TIM_IRQHandler
    HAL_TIM_IRQHandler
        0x08001786:    b570        p.      PUSH     {r4-r6,lr}
        0x08001788:    4604        .F      MOV      r4,r0
        0x0800178a:    6800        .h      LDR      r0,[r0,#0]
        0x0800178c:    6901        .i      LDR      r1,[r0,#0x10]
        0x0800178e:    f04f0500    O...    MOV      r5,#0
        0x08001792:    43c9        .C      MVNS     r1,r1
        0x08001794:    0789        ..      LSLS     r1,r1,#30
        0x08001796:    d415        ..      BMI      0x80017c4 ; HAL_TIM_IRQHandler + 62
        0x08001798:    68c1        .h      LDR      r1,[r0,#0xc]
        0x0800179a:    43c9        .C      MVNS     r1,r1
        0x0800179c:    0789        ..      LSLS     r1,r1,#30
        0x0800179e:    d411        ..      BMI      0x80017c4 ; HAL_TIM_IRQHandler + 62
        0x080017a0:    1ee9        ..      SUBS     r1,r5,#3
        0x080017a2:    6101        .a      STR      r1,[r0,#0x10]
        0x080017a4:    2001        .       MOVS     r0,#1
        0x080017a6:    7720         w      STRB     r0,[r4,#0x1c]
        0x080017a8:    6820         h      LDR      r0,[r4,#0]
        0x080017aa:    6980        .i      LDR      r0,[r0,#0x18]
        0x080017ac:    0780        ..      LSLS     r0,r0,#30
        0x080017ae:    4620         F      MOV      r0,r4
        0x080017b0:    d002        ..      BEQ      0x80017b8 ; HAL_TIM_IRQHandler + 50
        0x080017b2:    f7ffffe7    ....    BL       HAL_TIM_IC_CaptureCallback ; 0x8001784
        0x080017b6:    e004        ..      B        0x80017c2 ; HAL_TIM_IRQHandler + 60
        0x080017b8:    f000f898    ....    BL       HAL_TIM_OC_DelayElapsedCallback ; 0x80018ec
        0x080017bc:    4620         F      MOV      r0,r4
        0x080017be:    f000f896    ....    BL       HAL_TIM_PWM_PulseFinishedCallback ; 0x80018ee
        0x080017c2:    7725        %w      STRB     r5,[r4,#0x1c]
        0x080017c4:    6820         h      LDR      r0,[r4,#0]
        0x080017c6:    6901        .i      LDR      r1,[r0,#0x10]
        0x080017c8:    43c9        .C      MVNS     r1,r1
        0x080017ca:    0749        I.      LSLS     r1,r1,#29
        0x080017cc:    d417        ..      BMI      0x80017fe ; HAL_TIM_IRQHandler + 120
        0x080017ce:    68c1        .h      LDR      r1,[r0,#0xc]
        0x080017d0:    43c9        .C      MVNS     r1,r1
        0x080017d2:    0749        I.      LSLS     r1,r1,#29
        0x080017d4:    d413        ..      BMI      0x80017fe ; HAL_TIM_IRQHandler + 120
        0x080017d6:    f06f0104    o...    MVN      r1,#4
        0x080017da:    6101        .a      STR      r1,[r0,#0x10]
        0x080017dc:    2002        .       MOVS     r0,#2
        0x080017de:    7720         w      STRB     r0,[r4,#0x1c]
        0x080017e0:    6820         h      LDR      r0,[r4,#0]
        0x080017e2:    6980        .i      LDR      r0,[r0,#0x18]
        0x080017e4:    f4107f40    ..@.    TST      r0,#0x300
        0x080017e8:    4620         F      MOV      r0,r4
        0x080017ea:    d002        ..      BEQ      0x80017f2 ; HAL_TIM_IRQHandler + 108
        0x080017ec:    f7ffffca    ....    BL       HAL_TIM_IC_CaptureCallback ; 0x8001784
        0x080017f0:    e004        ..      B        0x80017fc ; HAL_TIM_IRQHandler + 118
        0x080017f2:    f000f87b    ..{.    BL       HAL_TIM_OC_DelayElapsedCallback ; 0x80018ec
        0x080017f6:    4620         F      MOV      r0,r4
        0x080017f8:    f000f879    ..y.    BL       HAL_TIM_PWM_PulseFinishedCallback ; 0x80018ee
        0x080017fc:    7725        %w      STRB     r5,[r4,#0x1c]
        0x080017fe:    6820         h      LDR      r0,[r4,#0]
        0x08001800:    6901        .i      LDR      r1,[r0,#0x10]
        0x08001802:    43c9        .C      MVNS     r1,r1
        0x08001804:    0709        ..      LSLS     r1,r1,#28
        0x08001806:    d416        ..      BMI      0x8001836 ; HAL_TIM_IRQHandler + 176
        0x08001808:    68c1        .h      LDR      r1,[r0,#0xc]
        0x0800180a:    43c9        .C      MVNS     r1,r1
        0x0800180c:    0709        ..      LSLS     r1,r1,#28
        0x0800180e:    d412        ..      BMI      0x8001836 ; HAL_TIM_IRQHandler + 176
        0x08001810:    f06f0108    o...    MVN      r1,#8
        0x08001814:    6101        .a      STR      r1,[r0,#0x10]
        0x08001816:    2004        .       MOVS     r0,#4
        0x08001818:    7720         w      STRB     r0,[r4,#0x1c]
        0x0800181a:    6820         h      LDR      r0,[r4,#0]
        0x0800181c:    69c0        .i      LDR      r0,[r0,#0x1c]
        0x0800181e:    0780        ..      LSLS     r0,r0,#30
        0x08001820:    4620         F      MOV      r0,r4
        0x08001822:    d002        ..      BEQ      0x800182a ; HAL_TIM_IRQHandler + 164
        0x08001824:    f7ffffae    ....    BL       HAL_TIM_IC_CaptureCallback ; 0x8001784
        0x08001828:    e004        ..      B        0x8001834 ; HAL_TIM_IRQHandler + 174
        0x0800182a:    f000f85f    .._.    BL       HAL_TIM_OC_DelayElapsedCallback ; 0x80018ec
        0x0800182e:    4620         F      MOV      r0,r4
        0x08001830:    f000f85d    ..].    BL       HAL_TIM_PWM_PulseFinishedCallback ; 0x80018ee
        0x08001834:    7725        %w      STRB     r5,[r4,#0x1c]
        0x08001836:    6820         h      LDR      r0,[r4,#0]
        0x08001838:    6901        .i      LDR      r1,[r0,#0x10]
        0x0800183a:    43c9        .C      MVNS     r1,r1
        0x0800183c:    06c9        ..      LSLS     r1,r1,#27
        0x0800183e:    d417        ..      BMI      0x8001870 ; HAL_TIM_IRQHandler + 234
        0x08001840:    68c1        .h      LDR      r1,[r0,#0xc]
        0x08001842:    43c9        .C      MVNS     r1,r1
        0x08001844:    06c9        ..      LSLS     r1,r1,#27
        0x08001846:    d413        ..      BMI      0x8001870 ; HAL_TIM_IRQHandler + 234
        0x08001848:    f06f0110    o...    MVN      r1,#0x10
        0x0800184c:    6101        .a      STR      r1,[r0,#0x10]
        0x0800184e:    2008        .       MOVS     r0,#8
        0x08001850:    7720         w      STRB     r0,[r4,#0x1c]
        0x08001852:    6820         h      LDR      r0,[r4,#0]
        0x08001854:    69c0        .i      LDR      r0,[r0,#0x1c]
        0x08001856:    f4107f40    ..@.    TST      r0,#0x300
        0x0800185a:    4620         F      MOV      r0,r4
        0x0800185c:    d002        ..      BEQ      0x8001864 ; HAL_TIM_IRQHandler + 222
        0x0800185e:    f7ffff91    ....    BL       HAL_TIM_IC_CaptureCallback ; 0x8001784
        0x08001862:    e004        ..      B        0x800186e ; HAL_TIM_IRQHandler + 232
        0x08001864:    f000f842    ..B.    BL       HAL_TIM_OC_DelayElapsedCallback ; 0x80018ec
        0x08001868:    4620         F      MOV      r0,r4
        0x0800186a:    f000f840    ..@.    BL       HAL_TIM_PWM_PulseFinishedCallback ; 0x80018ee
        0x0800186e:    7725        %w      STRB     r5,[r4,#0x1c]
        0x08001870:    6820         h      LDR      r0,[r4,#0]
        0x08001872:    6901        .i      LDR      r1,[r0,#0x10]
        0x08001874:    43c9        .C      MVNS     r1,r1
        0x08001876:    07c9        ..      LSLS     r1,r1,#31
        0x08001878:    d108        ..      BNE      0x800188c ; HAL_TIM_IRQHandler + 262
        0x0800187a:    68c1        .h      LDR      r1,[r0,#0xc]
        0x0800187c:    43c9        .C      MVNS     r1,r1
        0x0800187e:    07c9        ..      LSLS     r1,r1,#31
        0x08001880:    d104        ..      BNE      0x800188c ; HAL_TIM_IRQHandler + 262
        0x08001882:    1e89        ..      SUBS     r1,r1,#2
        0x08001884:    6101        .a      STR      r1,[r0,#0x10]
        0x08001886:    4620         F      MOV      r0,r4
        0x08001888:    f000f832    ..2.    BL       HAL_TIM_PeriodElapsedCallback ; 0x80018f0
        0x0800188c:    6820         h      LDR      r0,[r4,#0]
        0x0800188e:    6901        .i      LDR      r1,[r0,#0x10]
        0x08001890:    43c9        .C      MVNS     r1,r1
        0x08001892:    0609        ..      LSLS     r1,r1,#24
        0x08001894:    d409        ..      BMI      0x80018aa ; HAL_TIM_IRQHandler + 292
        0x08001896:    68c1        .h      LDR      r1,[r0,#0xc]
        0x08001898:    43c9        .C      MVNS     r1,r1
        0x0800189a:    0609        ..      LSLS     r1,r1,#24
        0x0800189c:    d405        ..      BMI      0x80018aa ; HAL_TIM_IRQHandler + 292
        0x0800189e:    f06f0180    o...    MVN      r1,#0x80
        0x080018a2:    6101        .a      STR      r1,[r0,#0x10]
        0x080018a4:    4620         F      MOV      r0,r4
        0x080018a6:    f7ffff11    ....    BL       HAL_TIMEx_BreakCallback ; 0x80016cc
        0x080018aa:    6820         h      LDR      r0,[r4,#0]
        0x080018ac:    6901        .i      LDR      r1,[r0,#0x10]
        0x080018ae:    43c9        .C      MVNS     r1,r1
        0x080018b0:    0649        I.      LSLS     r1,r1,#25
        0x080018b2:    d409        ..      BMI      0x80018c8 ; HAL_TIM_IRQHandler + 322
        0x080018b4:    68c1        .h      LDR      r1,[r0,#0xc]
        0x080018b6:    43c9        .C      MVNS     r1,r1
        0x080018b8:    0649        I.      LSLS     r1,r1,#25
        0x080018ba:    d405        ..      BMI      0x80018c8 ; HAL_TIM_IRQHandler + 322
        0x080018bc:    f06f0140    o.@.    MVN      r1,#0x40
        0x080018c0:    6101        .a      STR      r1,[r0,#0x10]
        0x080018c2:    4620         F      MOV      r0,r4
        0x080018c4:    f000f81e    ....    BL       HAL_TIM_TriggerCallback ; 0x8001904
        0x080018c8:    6820         h      LDR      r0,[r4,#0]
        0x080018ca:    6901        .i      LDR      r1,[r0,#0x10]
        0x080018cc:    43c9        .C      MVNS     r1,r1
        0x080018ce:    0689        ..      LSLS     r1,r1,#26
        0x080018d0:    d40b        ..      BMI      0x80018ea ; HAL_TIM_IRQHandler + 356
        0x080018d2:    68c1        .h      LDR      r1,[r0,#0xc]
        0x080018d4:    43c9        .C      MVNS     r1,r1
        0x080018d6:    0689        ..      LSLS     r1,r1,#26
        0x080018d8:    d407        ..      BMI      0x80018ea ; HAL_TIM_IRQHandler + 356
        0x080018da:    f06f0120    o. .    MVN      r1,#0x20
        0x080018de:    6101        .a      STR      r1,[r0,#0x10]
        0x080018e0:    4620         F      MOV      r0,r4
        0x080018e2:    e8bd4070    ..p@    POP      {r4-r6,lr}
        0x080018e6:    f7ffbef2    ....    B.W      HAL_TIMEx_CommutCallback ; 0x80016ce
        0x080018ea:    bd70        p.      POP      {r4-r6,pc}
    i.HAL_TIM_OC_DelayElapsedCallback
    HAL_TIM_OC_DelayElapsedCallback
        0x080018ec:    4770        pG      BX       lr
    i.HAL_TIM_PWM_PulseFinishedCallback
    HAL_TIM_PWM_PulseFinishedCallback
        0x080018ee:    4770        pG      BX       lr
    i.HAL_TIM_PeriodElapsedCallback
    HAL_TIM_PeriodElapsedCallback
        0x080018f0:    6800        .h      LDR      r0,[r0,#0]
        0x080018f2:    4903        .I      LDR      r1,[pc,#12] ; [0x8001900] = 0x40012c00
        0x080018f4:    4288        .B      CMP      r0,r1
        0x080018f6:    d101        ..      BNE      0x80018fc ; HAL_TIM_PeriodElapsedCallback + 12
        0x080018f8:    f7ffbb94    ....    B        HAL_IncTick ; 0x8001024
        0x080018fc:    4770        pG      BX       lr
    $d
        0x080018fe:    0000        ..      DCW    0
        0x08001900:    40012c00    .,.@    DCD    1073818624
    $t
    i.HAL_TIM_TriggerCallback
    HAL_TIM_TriggerCallback
        0x08001904:    4770        pG      BX       lr
    i.HAL_UART_Init
    HAL_UART_Init
        0x08001906:    b570        p.      PUSH     {r4-r6,lr}
        0x08001908:    0004        ..      MOVS     r4,r0
        0x0800190a:    d004        ..      BEQ      0x8001916 ; HAL_UART_Init + 16
        0x0800190c:    f894003d    ..=.    LDRB     r0,[r4,#0x3d]
        0x08001910:    2500        .%      MOVS     r5,#0
        0x08001912:    b110        ..      CBZ      r0,0x800191a ; HAL_UART_Init + 20
        0x08001914:    e006        ..      B        0x8001924 ; HAL_UART_Init + 30
        0x08001916:    2001        .       MOVS     r0,#1
        0x08001918:    bd70        p.      POP      {r4-r6,pc}
        0x0800191a:    f884503c    ..<P    STRB     r5,[r4,#0x3c]
        0x0800191e:    4620         F      MOV      r0,r4
        0x08001920:    f000f822    ..".    BL       HAL_UART_MspInit ; 0x8001968
        0x08001924:    2024        $       MOVS     r0,#0x24
        0x08001926:    f884003d    ..=.    STRB     r0,[r4,#0x3d]
        0x0800192a:    6820         h      LDR      r0,[r4,#0]
        0x0800192c:    68c1        .h      LDR      r1,[r0,#0xc]
        0x0800192e:    f4215100    !..Q    BIC      r1,r1,#0x2000
        0x08001932:    60c1        .`      STR      r1,[r0,#0xc]
        0x08001934:    4620         F      MOV      r0,r4
        0x08001936:    f000fdb1    ....    BL       UART_SetConfig ; 0x800249c
        0x0800193a:    6820         h      LDR      r0,[r4,#0]
        0x0800193c:    6901        .i      LDR      r1,[r0,#0x10]
        0x0800193e:    f4214190    !..A    BIC      r1,r1,#0x4800
        0x08001942:    6101        .a      STR      r1,[r0,#0x10]
        0x08001944:    6820         h      LDR      r0,[r4,#0]
        0x08001946:    6941        Ai      LDR      r1,[r0,#0x14]
        0x08001948:    f021012a    !.*.    BIC      r1,r1,#0x2a
        0x0800194c:    6141        Aa      STR      r1,[r0,#0x14]
        0x0800194e:    6820         h      LDR      r0,[r4,#0]
        0x08001950:    68c1        .h      LDR      r1,[r0,#0xc]
        0x08001952:    f4415100    A..Q    ORR      r1,r1,#0x2000
        0x08001956:    60c1        .`      STR      r1,[r0,#0xc]
        0x08001958:    6425        %d      STR      r5,[r4,#0x40]
        0x0800195a:    2020                MOVS     r0,#0x20
        0x0800195c:    f884003d    ..=.    STRB     r0,[r4,#0x3d]
        0x08001960:    f884003e    ..>.    STRB     r0,[r4,#0x3e]
        0x08001964:    2000        .       MOVS     r0,#0
        0x08001966:    bd70        p.      POP      {r4-r6,pc}
    i.HAL_UART_MspInit
    HAL_UART_MspInit
        0x08001968:    b570        p.      PUSH     {r4-r6,lr}
        0x0800196a:    b086        ..      SUB      sp,sp,#0x18
        0x0800196c:    2400        .$      MOVS     r4,#0
        0x0800196e:    9400        ..      STR      r4,[sp,#0]
        0x08001970:    9401        ..      STR      r4,[sp,#4]
        0x08001972:    9402        ..      STR      r4,[sp,#8]
        0x08001974:    9403        ..      STR      r4,[sp,#0xc]
        0x08001976:    4e23        #N      LDR      r6,[pc,#140] ; [0x8001a04] = 0x40013800
        0x08001978:    6803        .h      LDR      r3,[r0,#0]
        0x0800197a:    4923        #I      LDR      r1,[pc,#140] ; [0x8001a08] = 0x40021000
        0x0800197c:    2002        .       MOVS     r0,#2
        0x0800197e:    2203        ."      MOVS     r2,#3
        0x08001980:    4d22        "M      LDR      r5,[pc,#136] ; [0x8001a0c] = 0x40010800
        0x08001982:    42b3        .B      CMP      r3,r6
        0x08001984:    d119        ..      BNE      0x80019ba ; HAL_UART_MspInit + 82
        0x08001986:    698b        .i      LDR      r3,[r1,#0x18]
        0x08001988:    f4434380    C..C    ORR      r3,r3,#0x4000
        0x0800198c:    618b        .a      STR      r3,[r1,#0x18]
        0x0800198e:    698b        .i      LDR      r3,[r1,#0x18]
        0x08001990:    f4034380    ...C    AND      r3,r3,#0x4000
        0x08001994:    9304        ..      STR      r3,[sp,#0x10]
        0x08001996:    698b        .i      LDR      r3,[r1,#0x18]
        0x08001998:    f0430304    C...    ORR      r3,r3,#4
        0x0800199c:    618b        .a      STR      r3,[r1,#0x18]
        0x0800199e:    6989        .i      LDR      r1,[r1,#0x18]
        0x080019a0:    9203        ..      STR      r2,[sp,#0xc]
        0x080019a2:    f0010104    ....    AND      r1,r1,#4
        0x080019a6:    9104        ..      STR      r1,[sp,#0x10]
        0x080019a8:    0201        ..      LSLS     r1,r0,#8
        0x080019aa:    e9cd1000    ....    STRD     r1,r0,[sp,#0]
        0x080019ae:    4669        iF      MOV      r1,sp
        0x080019b0:    4628        (F      MOV      r0,r5
        0x080019b2:    f7fffa33    ..3.    BL       HAL_GPIO_Init ; 0x8000e1c
        0x080019b6:    1528        (.      ASRS     r0,r5,#20
        0x080019b8:    e01b        ..      B        0x80019f2 ; HAL_UART_MspInit + 138
        0x080019ba:    4e15        .N      LDR      r6,[pc,#84] ; [0x8001a10] = 0x40004400
        0x080019bc:    42b3        .B      CMP      r3,r6
        0x080019be:    d11f        ..      BNE      0x8001a00 ; HAL_UART_MspInit + 152
        0x080019c0:    69cb        .i      LDR      r3,[r1,#0x1c]
        0x080019c2:    f4433300    C..3    ORR      r3,r3,#0x20000
        0x080019c6:    61cb        .a      STR      r3,[r1,#0x1c]
        0x080019c8:    69cb        .i      LDR      r3,[r1,#0x1c]
        0x080019ca:    f4033300    ...3    AND      r3,r3,#0x20000
        0x080019ce:    9304        ..      STR      r3,[sp,#0x10]
        0x080019d0:    698b        .i      LDR      r3,[r1,#0x18]
        0x080019d2:    f0430304    C...    ORR      r3,r3,#4
        0x080019d6:    618b        .a      STR      r3,[r1,#0x18]
        0x080019d8:    6989        .i      LDR      r1,[r1,#0x18]
        0x080019da:    9203        ..      STR      r2,[sp,#0xc]
        0x080019dc:    f0010104    ....    AND      r1,r1,#4
        0x080019e0:    9104        ..      STR      r1,[sp,#0x10]
        0x080019e2:    2104        .!      MOVS     r1,#4
        0x080019e4:    e9cd1000    ....    STRD     r1,r0,[sp,#0]
        0x080019e8:    4669        iF      MOV      r1,sp
        0x080019ea:    4628        (F      MOV      r0,r5
        0x080019ec:    f7fffa16    ....    BL       HAL_GPIO_Init ; 0x8000e1c
        0x080019f0:    2008        .       MOVS     r0,#8
        0x080019f2:    e9cd0400    ....    STRD     r0,r4,[sp,#0]
        0x080019f6:    4669        iF      MOV      r1,sp
        0x080019f8:    4628        (F      MOV      r0,r5
        0x080019fa:    9402        ..      STR      r4,[sp,#8]
        0x080019fc:    f7fffa0e    ....    BL       HAL_GPIO_Init ; 0x8000e1c
        0x08001a00:    b006        ..      ADD      sp,sp,#0x18
        0x08001a02:    bd70        p.      POP      {r4-r6,pc}
    $d
        0x08001a04:    40013800    .8.@    DCD    1073821696
        0x08001a08:    40021000    ...@    DCD    1073876992
        0x08001a0c:    40010800    ...@    DCD    1073809408
        0x08001a10:    40004400    .D.@    DCD    1073759232
    $t
    i.HAL_UART_Transmit
    HAL_UART_Transmit
        0x08001a14:    e92d43f8    -..C    PUSH     {r3-r9,lr}
        0x08001a18:    4604        .F      MOV      r4,r0
        0x08001a1a:    f890003d    ..=.    LDRB     r0,[r0,#0x3d]
        0x08001a1e:    461f        .F      MOV      r7,r3
        0x08001a20:    4616        .F      MOV      r6,r2
        0x08001a22:    460d        .F      MOV      r5,r1
        0x08001a24:    2820         (      CMP      r0,#0x20
        0x08001a26:    d14c        L.      BNE      0x8001ac2 ; HAL_UART_Transmit + 174
        0x08001a28:    b1c5        ..      CBZ      r5,0x8001a5c ; HAL_UART_Transmit + 72
        0x08001a2a:    b1be        ..      CBZ      r6,0x8001a5c ; HAL_UART_Transmit + 72
        0x08001a2c:    f894003c    ..<.    LDRB     r0,[r4,#0x3c]
        0x08001a30:    2801        .(      CMP      r0,#1
        0x08001a32:    d046        F.      BEQ      0x8001ac2 ; HAL_UART_Transmit + 174
        0x08001a34:    2001        .       MOVS     r0,#1
        0x08001a36:    f884003c    ..<.    STRB     r0,[r4,#0x3c]
        0x08001a3a:    f04f0800    O...    MOV      r8,#0
        0x08001a3e:    f8c48040    ..@.    STR      r8,[r4,#0x40]
        0x08001a42:    2021        !       MOVS     r0,#0x21
        0x08001a44:    f884003d    ..=.    STRB     r0,[r4,#0x3d]
        0x08001a48:    f7fffae6    ....    BL       HAL_GetTick ; 0x8001018
        0x08001a4c:    84a6        ..      STRH     r6,[r4,#0x24]
        0x08001a4e:    4681        .F      MOV      r9,r0
        0x08001a50:    84e6        ..      STRH     r6,[r4,#0x26]
        0x08001a52:    68a0        .h      LDR      r0,[r4,#8]
        0x08001a54:    f5b05f80    ..._    CMP      r0,#0x1000
        0x08001a58:    d003        ..      BEQ      0x8001a62 ; HAL_UART_Transmit + 78
        0x08001a5a:    e004        ..      B        0x8001a66 ; HAL_UART_Transmit + 82
        0x08001a5c:    2001        .       MOVS     r0,#1
        0x08001a5e:    e8bd83f8    ....    POP      {r3-r9,pc}
        0x08001a62:    6920         i      LDR      r0,[r4,#0x10]
        0x08001a64:    b128        (.      CBZ      r0,0x8001a72 ; HAL_UART_Transmit + 94
        0x08001a66:    462e        .F      MOV      r6,r5
        0x08001a68:    f05f0500    _...    MOVS.W   r5,#0
        0x08001a6c:    f884803c    ..<.    STRB     r8,[r4,#0x3c]
        0x08001a70:    e00e        ..      B        0x8001a90 ; HAL_UART_Transmit + 124
        0x08001a72:    2600        .&      MOVS     r6,#0
        0x08001a74:    e7fa        ..      B        0x8001a6c ; HAL_UART_Transmit + 88
        0x08001a76:    2180        .!      MOVS     r1,#0x80
        0x08001a78:    4620         F      MOV      r0,r4
        0x08001a7a:    f000fd6b    ..k.    BL       UART_WaitOnFlagUntilTimeout ; 0x8002554
        0x08001a7e:    b9a0        ..      CBNZ     r0,0x8001aaa ; HAL_UART_Transmit + 150
        0x08001a80:    b1ae        ..      CBZ      r6,0x8001aae ; HAL_UART_Transmit + 154
        0x08001a82:    f8160b01    ....    LDRB     r0,[r6],#1
        0x08001a86:    6821        !h      LDR      r1,[r4,#0]
        0x08001a88:    6048        H`      STR      r0,[r1,#4]
        0x08001a8a:    8ce0        ..      LDRH     r0,[r4,#0x26]
        0x08001a8c:    1e40        @.      SUBS     r0,r0,#1
        0x08001a8e:    84e0        ..      STRH     r0,[r4,#0x26]
        0x08001a90:    8ce0        ..      LDRH     r0,[r4,#0x26]
        0x08001a92:    464b        KF      MOV      r3,r9
        0x08001a94:    f04f0200    O...    MOV      r2,#0
        0x08001a98:    9700        ..      STR      r7,[sp,#0]
        0x08001a9a:    2800        .(      CMP      r0,#0
        0x08001a9c:    d1eb        ..      BNE      0x8001a76 ; HAL_UART_Transmit + 98
        0x08001a9e:    f04f0140    O.@.    MOV      r1,#0x40
        0x08001aa2:    4620         F      MOV      r0,r4
        0x08001aa4:    f000fd56    ..V.    BL       UART_WaitOnFlagUntilTimeout ; 0x8002554
        0x08001aa8:    b130        0.      CBZ      r0,0x8001ab8 ; HAL_UART_Transmit + 164
        0x08001aaa:    2003        .       MOVS     r0,#3
        0x08001aac:    e7d7        ..      B        0x8001a5e ; HAL_UART_Transmit + 74
        0x08001aae:    f8350b02    5...    LDRH     r0,[r5],#2
        0x08001ab2:    f3c00008    ....    UBFX     r0,r0,#0,#9
        0x08001ab6:    e7e6        ..      B        0x8001a86 ; HAL_UART_Transmit + 114
        0x08001ab8:    2020                MOVS     r0,#0x20
        0x08001aba:    f884003d    ..=.    STRB     r0,[r4,#0x3d]
        0x08001abe:    2000        .       MOVS     r0,#0
        0x08001ac0:    e7cd        ..      B        0x8001a5e ; HAL_UART_Transmit + 74
        0x08001ac2:    2002        .       MOVS     r0,#2
        0x08001ac4:    e7cb        ..      B        0x8001a5e ; HAL_UART_Transmit + 74
    i.HardFault_Handler
    HardFault_Handler
        0x08001ac6:    e7fe        ..      B        HardFault_Handler ; 0x8001ac6
    i.MQTTDeserialize_ack
    MQTTDeserialize_ack
        0x08001ac8:    e92d41fc    -..A    PUSH     {r2-r8,lr}
        0x08001acc:    4607        .F      MOV      r7,r0
        0x08001ace:    4615        .F      MOV      r5,r2
        0x08001ad0:    460e        .F      MOV      r6,r1
        0x08001ad2:    2400        .$      MOVS     r4,#0
        0x08001ad4:    4668        hF      MOV      r0,sp
        0x08001ad6:    9300        ..      STR      r3,[sp,#0]
        0x08001ad8:    f003f94c    ..L.    BL       readChar ; 0x8004d74
        0x08001adc:    f3600407    `...    BFI      r4,r0,#0,#8
        0x08001ae0:    f3c400c0    ....    UBFX     r0,r4,#3,#1
        0x08001ae4:    7030        0p      STRB     r0,[r6,#0]
        0x08001ae6:    0920         .      LSRS     r0,r4,#4
        0x08001ae8:    7038        8p      STRB     r0,[r7,#0]
        0x08001aea:    a901        ..      ADD      r1,sp,#4
        0x08001aec:    9800        ..      LDR      r0,[sp,#0]
        0x08001aee:    f000f8ef    ....    BL       MQTTPacket_decodeBuf ; 0x8001cd0
        0x08001af2:    9900        ..      LDR      r1,[sp,#0]
        0x08001af4:    9a01        ..      LDR      r2,[sp,#4]
        0x08001af6:    4401        .D      ADD      r1,r1,r0
        0x08001af8:    9100        ..      STR      r1,[sp,#0]
        0x08001afa:    440a        .D      ADD      r2,r2,r1
        0x08001afc:    1a51        Q.      SUBS     r1,r2,r1
        0x08001afe:    2902        .)      CMP      r1,#2
        0x08001b00:    db04        ..      BLT      0x8001b0c ; MQTTDeserialize_ack + 68
        0x08001b02:    4668        hF      MOV      r0,sp
        0x08001b04:    f003f93c    ..<.    BL       readInt ; 0x8004d80
        0x08001b08:    8028        (.      STRH     r0,[r5,#0]
        0x08001b0a:    2001        .       MOVS     r0,#1
        0x08001b0c:    e8bd81fc    ....    POP      {r2-r8,pc}
    i.MQTTDeserialize_connack
    MQTTDeserialize_connack
        0x08001b10:    e92d41fc    -..A    PUSH     {r2-r8,lr}
        0x08001b14:    4607        .F      MOV      r7,r0
        0x08001b16:    2400        .$      MOVS     r4,#0
        0x08001b18:    460e        .F      MOV      r6,r1
        0x08001b1a:    4625        %F      MOV      r5,r4
        0x08001b1c:    4668        hF      MOV      r0,sp
        0x08001b1e:    9200        ..      STR      r2,[sp,#0]
        0x08001b20:    f003f928    ..(.    BL       readChar ; 0x8004d74
        0x08001b24:    4601        .F      MOV      r1,r0
        0x08001b26:    4620         F      MOV      r0,r4
        0x08001b28:    f3610007    a...    BFI      r0,r1,#0,#8
        0x08001b2c:    0900        ..      LSRS     r0,r0,#4
        0x08001b2e:    2802        .(      CMP      r0,#2
        0x08001b30:    d119        ..      BNE      0x8001b66 ; MQTTDeserialize_connack + 86
        0x08001b32:    a901        ..      ADD      r1,sp,#4
        0x08001b34:    9800        ..      LDR      r0,[sp,#0]
        0x08001b36:    f000f8cb    ....    BL       MQTTPacket_decodeBuf ; 0x8001cd0
        0x08001b3a:    9900        ..      LDR      r1,[sp,#0]
        0x08001b3c:    4605        .F      MOV      r5,r0
        0x08001b3e:    4408        .D      ADD      r0,r0,r1
        0x08001b40:    9901        ..      LDR      r1,[sp,#4]
        0x08001b42:    9000        ..      STR      r0,[sp,#0]
        0x08001b44:    4401        .D      ADD      r1,r1,r0
        0x08001b46:    1a08        ..      SUBS     r0,r1,r0
        0x08001b48:    2802        .(      CMP      r0,#2
        0x08001b4a:    db0c        ..      BLT      0x8001b66 ; MQTTDeserialize_connack + 86
        0x08001b4c:    4668        hF      MOV      r0,sp
        0x08001b4e:    f003f911    ....    BL       readChar ; 0x8004d74
        0x08001b52:    f3600407    `...    BFI      r4,r0,#0,#8
        0x08001b56:    f0040001    ....    AND      r0,r4,#1
        0x08001b5a:    7038        8p      STRB     r0,[r7,#0]
        0x08001b5c:    4668        hF      MOV      r0,sp
        0x08001b5e:    f003f909    ....    BL       readChar ; 0x8004d74
        0x08001b62:    7030        0p      STRB     r0,[r6,#0]
        0x08001b64:    2501        .%      MOVS     r5,#1
        0x08001b66:    4628        (F      MOV      r0,r5
        0x08001b68:    e8bd81fc    ....    POP      {r2-r8,pc}
    i.MQTTDeserialize_publish
    MQTTDeserialize_publish
        0x08001b6c:    e92d5ffc    -.._    PUSH     {r2-r12,lr}
        0x08001b70:    4680        .F      MOV      r8,r0
        0x08001b72:    e9dda00e    ....    LDRD     r10,r0,[sp,#0x38]
        0x08001b76:    2400        .$      MOVS     r4,#0
        0x08001b78:    e9cd0400    ....    STRD     r0,r4,[sp,#0]
        0x08001b7c:    4699        .F      MOV      r9,r3
        0x08001b7e:    4617        .F      MOV      r7,r2
        0x08001b80:    460e        .F      MOV      r6,r1
        0x08001b82:    4625        %F      MOV      r5,r4
        0x08001b84:    f8ddb034    ..4.    LDR      r11,[sp,#0x34]
        0x08001b88:    4668        hF      MOV      r0,sp
        0x08001b8a:    f003f8f3    ....    BL       readChar ; 0x8004d74
        0x08001b8e:    f3600407    `...    BFI      r4,r0,#0,#8
        0x08001b92:    0920         .      LSRS     r0,r4,#4
        0x08001b94:    2803        .(      CMP      r0,#3
        0x08001b96:    d12c        ,.      BNE      0x8001bf2 ; MQTTDeserialize_publish + 134
        0x08001b98:    f3c401c0    ....    UBFX     r1,r4,#3,#1
        0x08001b9c:    f8881000    ....    STRB     r1,[r8,#0]
        0x08001ba0:    f3c40041    ..A.    UBFX     r0,r4,#1,#2
        0x08001ba4:    6030        0`      STR      r0,[r6,#0]
        0x08001ba6:    f0040001    ....    AND      r0,r4,#1
        0x08001baa:    7038        8p      STRB     r0,[r7,#0]
        0x08001bac:    a901        ..      ADD      r1,sp,#4
        0x08001bae:    9800        ..      LDR      r0,[sp,#0]
        0x08001bb0:    f000f88e    ....    BL       MQTTPacket_decodeBuf ; 0x8001cd0
        0x08001bb4:    9900        ..      LDR      r1,[sp,#0]
        0x08001bb6:    4605        .F      MOV      r5,r0
        0x08001bb8:    4408        .D      ADD      r0,r0,r1
        0x08001bba:    9901        ..      LDR      r1,[sp,#4]
        0x08001bbc:    9000        ..      STR      r0,[sp,#0]
        0x08001bbe:    1844        D.      ADDS     r4,r0,r1
        0x08001bc0:    4622        "F      MOV      r2,r4
        0x08001bc2:    4669        iF      MOV      r1,sp
        0x08001bc4:    980c        ..      LDR      r0,[sp,#0x30]
        0x08001bc6:    f003f8e4    ....    BL       readMQTTLenString ; 0x8004d92
        0x08001bca:    b190        ..      CBZ      r0,0x8001bf2 ; MQTTDeserialize_publish + 134
        0x08001bcc:    9800        ..      LDR      r0,[sp,#0]
        0x08001bce:    1a20         .      SUBS     r0,r4,r0
        0x08001bd0:    d40f        ..      BMI      0x8001bf2 ; MQTTDeserialize_publish + 134
        0x08001bd2:    6830        0h      LDR      r0,[r6,#0]
        0x08001bd4:    2800        .(      CMP      r0,#0
        0x08001bd6:    dd04        ..      BLE      0x8001be2 ; MQTTDeserialize_publish + 118
        0x08001bd8:    4668        hF      MOV      r0,sp
        0x08001bda:    f003f8d1    ....    BL       readInt ; 0x8004d80
        0x08001bde:    f8a90000    ....    STRH     r0,[r9,#0]
        0x08001be2:    9800        ..      LDR      r0,[sp,#0]
        0x08001be4:    1a21        !.      SUBS     r1,r4,r0
        0x08001be6:    f8ca1000    ....    STR      r1,[r10,#0]
        0x08001bea:    9900        ..      LDR      r1,[sp,#0]
        0x08001bec:    2501        .%      MOVS     r5,#1
        0x08001bee:    f8cb1000    ....    STR      r1,[r11,#0]
        0x08001bf2:    4628        (F      MOV      r0,r5
        0x08001bf4:    e8bd9ffc    ....    POP      {r2-r12,pc}
    i.MQTTDeserialize_suback
    MQTTDeserialize_suback
        0x08001bf8:    e92d47fc    -..G    PUSH     {r2-r10,lr}
        0x08001bfc:    4681        .F      MOV      r9,r0
        0x08001bfe:    980a        ..      LDR      r0,[sp,#0x28]
        0x08001c00:    2400        .$      MOVS     r4,#0
        0x08001c02:    9000        ..      STR      r0,[sp,#0]
        0x08001c04:    469a        .F      MOV      r10,r3
        0x08001c06:    4616        .F      MOV      r6,r2
        0x08001c08:    4688        .F      MOV      r8,r1
        0x08001c0a:    4625        %F      MOV      r5,r4
        0x08001c0c:    4668        hF      MOV      r0,sp
        0x08001c0e:    f003f8b1    ....    BL       readChar ; 0x8004d74
        0x08001c12:    4601        .F      MOV      r1,r0
        0x08001c14:    4620         F      MOV      r0,r4
        0x08001c16:    f3610007    a...    BFI      r0,r1,#0,#8
        0x08001c1a:    0900        ..      LSRS     r0,r0,#4
        0x08001c1c:    2809        .(      CMP      r0,#9
        0x08001c1e:    d126        &.      BNE      0x8001c6e ; MQTTDeserialize_suback + 118
        0x08001c20:    a901        ..      ADD      r1,sp,#4
        0x08001c22:    9800        ..      LDR      r0,[sp,#0]
        0x08001c24:    f000f854    ..T.    BL       MQTTPacket_decodeBuf ; 0x8001cd0
        0x08001c28:    9900        ..      LDR      r1,[sp,#0]
        0x08001c2a:    4605        .F      MOV      r5,r0
        0x08001c2c:    4408        .D      ADD      r0,r0,r1
        0x08001c2e:    9901        ..      LDR      r1,[sp,#4]
        0x08001c30:    9000        ..      STR      r0,[sp,#0]
        0x08001c32:    1847        G.      ADDS     r7,r0,r1
        0x08001c34:    1a38        8.      SUBS     r0,r7,r0
        0x08001c36:    2802        .(      CMP      r0,#2
        0x08001c38:    db19        ..      BLT      0x8001c6e ; MQTTDeserialize_suback + 118
        0x08001c3a:    4668        hF      MOV      r0,sp
        0x08001c3c:    f003f8a0    ....    BL       readInt ; 0x8004d80
        0x08001c40:    f8a90000    ....    STRH     r0,[r9,#0]
        0x08001c44:    6034        4`      STR      r4,[r6,#0]
        0x08001c46:    e00e        ..      B        0x8001c66 ; MQTTDeserialize_suback + 110
        0x08001c48:    6831        1h      LDR      r1,[r6,#0]
        0x08001c4a:    4541        AE      CMP      r1,r8
        0x08001c4c:    dd02        ..      BLE      0x8001c54 ; MQTTDeserialize_suback + 92
        0x08001c4e:    f04f35ff    O..5    MOV      r5,#0xffffffff
        0x08001c52:    e00c        ..      B        0x8001c6e ; MQTTDeserialize_suback + 118
        0x08001c54:    4668        hF      MOV      r0,sp
        0x08001c56:    f003f88d    ....    BL       readChar ; 0x8004d74
        0x08001c5a:    6831        1h      LDR      r1,[r6,#0]
        0x08001c5c:    008b        ..      LSLS     r3,r1,#2
        0x08001c5e:    1c49        I.      ADDS     r1,r1,#1
        0x08001c60:    6031        1`      STR      r1,[r6,#0]
        0x08001c62:    f84a0003    J...    STR      r0,[r10,r3]
        0x08001c66:    9800        ..      LDR      r0,[sp,#0]
        0x08001c68:    42b8        .B      CMP      r0,r7
        0x08001c6a:    d3ed        ..      BCC      0x8001c48 ; MQTTDeserialize_suback + 80
        0x08001c6c:    2501        .%      MOVS     r5,#1
        0x08001c6e:    4628        (F      MOV      r0,r5
        0x08001c70:    e8bd87fc    ....    POP      {r2-r10,pc}
    i.MQTTDeserialize_unsuback
    MQTTDeserialize_unsuback
        0x08001c74:    b50e        ..      PUSH     {r1-r3,lr}
        0x08001c76:    2300        .#      MOVS     r3,#0
        0x08001c78:    f88d3004    ...0    STRB     r3,[sp,#4]
        0x08001c7c:    f88d3008    ...0    STRB     r3,[sp,#8]
        0x08001c80:    9200        ..      STR      r2,[sp,#0]
        0x08001c82:    460b        .F      MOV      r3,r1
        0x08001c84:    4602        .F      MOV      r2,r0
        0x08001c86:    a902        ..      ADD      r1,sp,#8
        0x08001c88:    a801        ..      ADD      r0,sp,#4
        0x08001c8a:    f7ffff1d    ....    BL       MQTTDeserialize_ack ; 0x8001ac8
        0x08001c8e:    f89d1004    ....    LDRB     r1,[sp,#4]
        0x08001c92:    290b        .)      CMP      r1,#0xb
        0x08001c94:    d100        ..      BNE      0x8001c98 ; MQTTDeserialize_unsuback + 36
        0x08001c96:    2001        .       MOVS     r0,#1
        0x08001c98:    bd0e        ..      POP      {r1-r3,pc}
    i.MQTTPacket_decode
    MQTTPacket_decode
        0x08001c9a:    b5f8        ..      PUSH     {r3-r7,lr}
        0x08001c9c:    2501        .%      MOVS     r5,#1
        0x08001c9e:    2400        .$      MOVS     r4,#0
        0x08001ca0:    460e        .F      MOV      r6,r1
        0x08001ca2:    4607        .F      MOV      r7,r0
        0x08001ca4:    600c        .`      STR      r4,[r1,#0]
        0x08001ca6:    1c64        d.      ADDS     r4,r4,#1
        0x08001ca8:    2c04        .,      CMP      r4,#4
        0x08001caa:    dc0f        ..      BGT      0x8001ccc ; MQTTPacket_decode + 50
        0x08001cac:    2101        .!      MOVS     r1,#1
        0x08001cae:    4668        hF      MOV      r0,sp
        0x08001cb0:    47b8        .G      BLX      r7
        0x08001cb2:    2801        .(      CMP      r0,#1
        0x08001cb4:    d10a        ..      BNE      0x8001ccc ; MQTTPacket_decode + 50
        0x08001cb6:    f89d0000    ....    LDRB     r0,[sp,#0]
        0x08001cba:    6831        1h      LDR      r1,[r6,#0]
        0x08001cbc:    f000027f    ....    AND      r2,r0,#0x7f
        0x08001cc0:    fb021105    ....    MLA      r1,r2,r5,r1
        0x08001cc4:    01ed        ..      LSLS     r5,r5,#7
        0x08001cc6:    6031        1`      STR      r1,[r6,#0]
        0x08001cc8:    0600        ..      LSLS     r0,r0,#24
        0x08001cca:    d4ec        ..      BMI      0x8001ca6 ; MQTTPacket_decode + 12
        0x08001ccc:    4620         F      MOV      r0,r4
        0x08001cce:    bdf8        ..      POP      {r3-r7,pc}
    i.MQTTPacket_decodeBuf
    MQTTPacket_decodeBuf
        0x08001cd0:    4a02        .J      LDR      r2,[pc,#8] ; [0x8001cdc] = 0x200000bc
        0x08001cd2:    6010        .`      STR      r0,[r2,#0]
        0x08001cd4:    4802        .H      LDR      r0,[pc,#8] ; [0x8001ce0] = 0x8002651
        0x08001cd6:    f7ffbfe0    ....    B.W      MQTTPacket_decode ; 0x8001c9a
    $d
        0x08001cda:    0000        ..      DCW    0
        0x08001cdc:    200000bc    ...     DCD    536871100
        0x08001ce0:    08002651    Q&..    DCD    134227537
    $t
    i.MQTTPacket_encode
    MQTTPacket_encode
        0x08001ce4:    b510        ..      PUSH     {r4,lr}
        0x08001ce6:    4603        .F      MOV      r3,r0
        0x08001ce8:    2000        .       MOVS     r0,#0
        0x08001cea:    17ca        ..      ASRS     r2,r1,#31
        0x08001cec:    eb016452    ..Rd    ADD      r4,r1,r2,LSR #25
        0x08001cf0:    f024027f    $...    BIC      r2,r4,#0x7f
        0x08001cf4:    1a89        ..      SUBS     r1,r1,r2
        0x08001cf6:    b2ca        ..      UXTB     r2,r1
        0x08001cf8:    11e1        ..      ASRS     r1,r4,#7
        0x08001cfa:    2900        .)      CMP      r1,#0
        0x08001cfc:    dd02        ..      BLE      0x8001d04 ; MQTTPacket_encode + 32
        0x08001cfe:    bf00        ..      NOP      
        0x08001d00:    f0420280    B...    ORR      r2,r2,#0x80
        0x08001d04:    541a        .T      STRB     r2,[r3,r0]
        0x08001d06:    f1000001    ....    ADD      r0,r0,#1
        0x08001d0a:    dcee        ..      BGT      0x8001cea ; MQTTPacket_encode + 6
        0x08001d0c:    bd10        ..      POP      {r4,pc}
    i.MQTTPacket_equals
    MQTTPacket_equals
        0x08001d0e:    b570        p.      PUSH     {r4-r6,lr}
        0x08001d10:    6804        .h      LDR      r4,[r0,#0]
        0x08001d12:    460e        .F      MOV      r6,r1
        0x08001d14:    b124        $.      CBZ      r4,0x8001d20 ; MQTTPacket_equals + 18
        0x08001d16:    4620         F      MOV      r0,r4
        0x08001d18:    f7fefc70    ..p.    BL       strlen ; 0x80005fc
        0x08001d1c:    4605        .F      MOV      r5,r0
        0x08001d1e:    e001        ..      B        0x8001d24 ; MQTTPacket_equals + 22
        0x08001d20:    e9d05401    ...T    LDRD     r5,r4,[r0,#4]
        0x08001d24:    4630        0F      MOV      r0,r6
        0x08001d26:    f7fefc69    ..i.    BL       strlen ; 0x80005fc
        0x08001d2a:    4285        .B      CMP      r5,r0
        0x08001d2c:    d105        ..      BNE      0x8001d3a ; MQTTPacket_equals + 44
        0x08001d2e:    462a        *F      MOV      r2,r5
        0x08001d30:    4631        1F      MOV      r1,r6
        0x08001d32:    4620         F      MOV      r0,r4
        0x08001d34:    f7fefc81    ....    BL       strncmp ; 0x800063a
        0x08001d38:    b108        ..      CBZ      r0,0x8001d3e ; MQTTPacket_equals + 48
        0x08001d3a:    2000        .       MOVS     r0,#0
        0x08001d3c:    bd70        p.      POP      {r4-r6,pc}
        0x08001d3e:    2001        .       MOVS     r0,#1
        0x08001d40:    bd70        p.      POP      {r4-r6,pc}
        0x08001d42:    0000        ..      MOVS     r0,r0
    i.MQTTPacket_len
    MQTTPacket_len
        0x08001d44:    1c40        @.      ADDS     r0,r0,#1
        0x08001d46:    2880        .(      CMP      r0,#0x80
        0x08001d48:    da01        ..      BGE      0x8001d4e ; MQTTPacket_len + 10
        0x08001d4a:    1c40        @.      ADDS     r0,r0,#1
        0x08001d4c:    4770        pG      BX       lr
        0x08001d4e:    f5b04f80    ...O    CMP      r0,#0x4000
        0x08001d52:    da01        ..      BGE      0x8001d58 ; MQTTPacket_len + 20
        0x08001d54:    1c80        ..      ADDS     r0,r0,#2
        0x08001d56:    4770        pG      BX       lr
        0x08001d58:    4903        .I      LDR      r1,[pc,#12] ; [0x8001d68] = 0x1fffff
        0x08001d5a:    4288        .B      CMP      r0,r1
        0x08001d5c:    da01        ..      BGE      0x8001d62 ; MQTTPacket_len + 30
        0x08001d5e:    1cc0        ..      ADDS     r0,r0,#3
        0x08001d60:    4770        pG      BX       lr
        0x08001d62:    1d00        ..      ADDS     r0,r0,#4
        0x08001d64:    4770        pG      BX       lr
    $d
        0x08001d66:    0000        ..      DCW    0
        0x08001d68:    001fffff    ....    DCD    2097151
    $t
    i.MQTTSerialize_ack
    MQTTSerialize_ack
        0x08001d6c:    b5f8        ..      PUSH     {r3-r7,lr}
        0x08001d6e:    2400        .$      MOVS     r4,#0
        0x08001d70:    9e06        ..      LDR      r6,[sp,#0x18]
        0x08001d72:    4605        .F      MOV      r5,r0
        0x08001d74:    9000        ..      STR      r0,[sp,#0]
        0x08001d76:    2904        .)      CMP      r1,#4
        0x08001d78:    da01        ..      BGE      0x8001d7e ; MQTTSerialize_ack + 18
        0x08001d7a:    1ea0        ..      SUBS     r0,r4,#2
        0x08001d7c:    bdf8        ..      POP      {r3-r7,pc}
        0x08001d7e:    f3621407    b...    BFI      r4,r2,#4,#4
        0x08001d82:    f36304c3    c...    BFI      r4,r3,#3,#1
        0x08001d86:    2a06        .*      CMP      r2,#6
        0x08001d88:    f0240006    $...    BIC      r0,r4,#6
        0x08001d8c:    d100        ..      BNE      0x8001d90 ; MQTTSerialize_ack + 36
        0x08001d8e:    1c80        ..      ADDS     r0,r0,#2
        0x08001d90:    b2c1        ..      UXTB     r1,r0
        0x08001d92:    4668        hF      MOV      r0,sp
        0x08001d94:    f003fbdc    ....    BL       writeChar ; 0x8005550
        0x08001d98:    2102        .!      MOVS     r1,#2
        0x08001d9a:    9800        ..      LDR      r0,[sp,#0]
        0x08001d9c:    f7ffffa2    ....    BL       MQTTPacket_encode ; 0x8001ce4
        0x08001da0:    9900        ..      LDR      r1,[sp,#0]
        0x08001da2:    4408        .D      ADD      r0,r0,r1
        0x08001da4:    9000        ..      STR      r0,[sp,#0]
        0x08001da6:    4631        1F      MOV      r1,r6
        0x08001da8:    4668        hF      MOV      r0,sp
        0x08001daa:    f003fbd7    ....    BL       writeInt ; 0x800555c
        0x08001dae:    9800        ..      LDR      r0,[sp,#0]
        0x08001db0:    1b40        @.      SUBS     r0,r0,r5
        0x08001db2:    bdf8        ..      POP      {r3-r7,pc}
    i.MQTTSerialize_connect
    MQTTSerialize_connect
        0x08001db4:    e92d43f8    -..C    PUSH     {r3-r9,lr}
        0x08001db8:    4607        .F      MOV      r7,r0
        0x08001dba:    9000        ..      STR      r0,[sp,#0]
        0x08001dbc:    4688        .F      MOV      r8,r1
        0x08001dbe:    4614        .F      MOV      r4,r2
        0x08001dc0:    2500        .%      MOVS     r5,#0
        0x08001dc2:    4610        .F      MOV      r0,r2
        0x08001dc4:    f000f882    ....    BL       MQTTSerialize_connectLength ; 0x8001ecc
        0x08001dc8:    4681        .F      MOV      r9,r0
        0x08001dca:    f7ffffbb    ....    BL       MQTTPacket_len ; 0x8001d44
        0x08001dce:    4540        @E      CMP      r0,r8
        0x08001dd0:    dd02        ..      BLE      0x8001dd8 ; MQTTSerialize_connect + 36
        0x08001dd2:    1ea8        ..      SUBS     r0,r5,#2
        0x08001dd4:    e8bd83f8    ....    POP      {r3-r9,pc}
        0x08001dd8:    462e        .F      MOV      r6,r5
        0x08001dda:    4631        1F      MOV      r1,r6
        0x08001ddc:    f3660107    f...    BFI      r1,r6,#0,#8
        0x08001de0:    4668        hF      MOV      r0,sp
        0x08001de2:    3110        .1      ADDS     r1,r1,#0x10
        0x08001de4:    f003fbb4    ....    BL       writeChar ; 0x8005550
        0x08001de8:    4649        IF      MOV      r1,r9
        0x08001dea:    9800        ..      LDR      r0,[sp,#0]
        0x08001dec:    f7ffff7a    ..z.    BL       MQTTPacket_encode ; 0x8001ce4
        0x08001df0:    9900        ..      LDR      r1,[sp,#0]
        0x08001df2:    4408        .D      ADD      r0,r0,r1
        0x08001df4:    9000        ..      STR      r0,[sp,#0]
        0x08001df6:    7a20         z      LDRB     r0,[r4,#8]
        0x08001df8:    2804        .(      CMP      r0,#4
        0x08001dfa:    d01d        ..      BEQ      0x8001e38 ; MQTTSerialize_connect + 132
        0x08001dfc:    a12f        /.      ADR      r1,{pc}+0xc0 ; 0x8001ebc
        0x08001dfe:    4668        hF      MOV      r0,sp
        0x08001e00:    f003fb92    ....    BL       writeCString ; 0x8005528
        0x08001e04:    2103        .!      MOVS     r1,#3
        0x08001e06:    4668        hF      MOV      r0,sp
        0x08001e08:    f003fba2    ....    BL       writeChar ; 0x8005550
        0x08001e0c:    7ea0        .~      LDRB     r0,[r4,#0x1a]
        0x08001e0e:    f3660507    f...    BFI      r5,r6,#0,#8
        0x08001e12:    f3600541    `.A.    BFI      r5,r0,#1,#1
        0x08001e16:    7ee0        .~      LDRB     r0,[r4,#0x1b]
        0x08001e18:    b108        ..      CBZ      r0,0x8001e1e ; MQTTSerialize_connect + 106
        0x08001e1a:    f0450504    E...    ORR      r5,r5,#4
        0x08001e1e:    0768        h.      LSLS     r0,r5,#29
        0x08001e20:    d507        ..      BPL      0x8001e32 ; MQTTSerialize_connect + 126
        0x08001e22:    f894003d    ..=.    LDRB     r0,[r4,#0x3d]
        0x08001e26:    f36005c4    `...    BFI      r5,r0,#3,#2
        0x08001e2a:    f894003c    ..<.    LDRB     r0,[r4,#0x3c]
        0x08001e2e:    f3601545    `.E.    BFI      r5,r0,#5,#1
        0x08001e32:    6c20         l      LDR      r0,[r4,#0x40]
        0x08001e34:    b940        @.      CBNZ     r0,0x8001e48 ; MQTTSerialize_connect + 148
        0x08001e36:    e005        ..      B        0x8001e44 ; MQTTSerialize_connect + 144
        0x08001e38:    a122        ".      ADR      r1,{pc}+0x8c ; 0x8001ec4
        0x08001e3a:    4668        hF      MOV      r0,sp
        0x08001e3c:    f003fb74    ..t.    BL       writeCString ; 0x8005528
        0x08001e40:    2104        .!      MOVS     r1,#4
        0x08001e42:    e7e0        ..      B        0x8001e06 ; MQTTSerialize_connect + 82
        0x08001e44:    6ca0        .l      LDR      r0,[r4,#0x48]
        0x08001e46:    b108        ..      CBZ      r0,0x8001e4c ; MQTTSerialize_connect + 152
        0x08001e48:    f0450580    E...    ORR      r5,r5,#0x80
        0x08001e4c:    6ce0        .l      LDR      r0,[r4,#0x4c]
        0x08001e4e:    b908        ..      CBNZ     r0,0x8001e54 ; MQTTSerialize_connect + 160
        0x08001e50:    6d60        `m      LDR      r0,[r4,#0x54]
        0x08001e52:    b108        ..      CBZ      r0,0x8001e58 ; MQTTSerialize_connect + 164
        0x08001e54:    f0450540    E.@.    ORR      r5,r5,#0x40
        0x08001e58:    4629        )F      MOV      r1,r5
        0x08001e5a:    4668        hF      MOV      r0,sp
        0x08001e5c:    f003fb78    ..x.    BL       writeChar ; 0x8005550
        0x08001e60:    8b21        !.      LDRH     r1,[r4,#0x18]
        0x08001e62:    4668        hF      MOV      r0,sp
        0x08001e64:    f003fb7a    ..z.    BL       writeInt ; 0x800555c
        0x08001e68:    f104010c    ....    ADD      r1,r4,#0xc
        0x08001e6c:    4668        hF      MOV      r0,sp
        0x08001e6e:    c90e        ..      LDM      r1,{r1-r3}
        0x08001e70:    f003fb83    ....    BL       writeMQTTString ; 0x800557a
        0x08001e74:    7ee0        .~      LDRB     r0,[r4,#0x1b]
        0x08001e76:    b168        h.      CBZ      r0,0x8001e94 ; MQTTSerialize_connect + 224
        0x08001e78:    3424        $4      ADDS     r4,r4,#0x24
        0x08001e7a:    4668        hF      MOV      r0,sp
        0x08001e7c:    e894000e    ....    LDM      r4,{r1-r3}
        0x08001e80:    3c24        $<      SUBS     r4,r4,#0x24
        0x08001e82:    f003fb7a    ..z.    BL       writeMQTTString ; 0x800557a
        0x08001e86:    3430        04      ADDS     r4,r4,#0x30
        0x08001e88:    4668        hF      MOV      r0,sp
        0x08001e8a:    e894000e    ....    LDM      r4,{r1-r3}
        0x08001e8e:    3c30        0<      SUBS     r4,r4,#0x30
        0x08001e90:    f003fb73    ..s.    BL       writeMQTTString ; 0x800557a
        0x08001e94:    0628        (.      LSLS     r0,r5,#24
        0x08001e96:    d505        ..      BPL      0x8001ea4 ; MQTTSerialize_connect + 240
        0x08001e98:    f1040140    ..@.    ADD      r1,r4,#0x40
        0x08001e9c:    4668        hF      MOV      r0,sp
        0x08001e9e:    c90e        ..      LDM      r1,{r1-r3}
        0x08001ea0:    f003fb6b    ..k.    BL       writeMQTTString ; 0x800557a
        0x08001ea4:    0668        h.      LSLS     r0,r5,#25
        0x08001ea6:    d505        ..      BPL      0x8001eb4 ; MQTTSerialize_connect + 256
        0x08001ea8:    344c        L4      ADDS     r4,r4,#0x4c
        0x08001eaa:    4668        hF      MOV      r0,sp
        0x08001eac:    e894000e    ....    LDM      r4,{r1-r3}
        0x08001eb0:    f003fb63    ..c.    BL       writeMQTTString ; 0x800557a
        0x08001eb4:    9800        ..      LDR      r0,[sp,#0]
        0x08001eb6:    1bc0        ..      SUBS     r0,r0,r7
        0x08001eb8:    e78c        ..      B        0x8001dd4 ; MQTTSerialize_connect + 32
    $d
        0x08001eba:    0000        ..      DCW    0
        0x08001ebc:    7349514d    MQIs    DCD    1934184781
        0x08001ec0:    00007064    dp..    DCD    28772
        0x08001ec4:    5454514d    MQTT    DCD    1414811981
        0x08001ec8:    00000000    ....    DCD    0
    $t
    i.MQTTSerialize_connectLength
    MQTTSerialize_connectLength
        0x08001ecc:    b570        p.      PUSH     {r4-r6,lr}
        0x08001ece:    4604        .F      MOV      r4,r0
        0x08001ed0:    7a00        .z      LDRB     r0,[r0,#8]
        0x08001ed2:    2500        .%      MOVS     r5,#0
        0x08001ed4:    2803        .(      CMP      r0,#3
        0x08001ed6:    d002        ..      BEQ      0x8001ede ; MQTTSerialize_connectLength + 18
        0x08001ed8:    2804        .(      CMP      r0,#4
        0x08001eda:    d002        ..      BEQ      0x8001ee2 ; MQTTSerialize_connectLength + 22
        0x08001edc:    e002        ..      B        0x8001ee4 ; MQTTSerialize_connectLength + 24
        0x08001ede:    250c        .%      MOVS     r5,#0xc
        0x08001ee0:    e000        ..      B        0x8001ee4 ; MQTTSerialize_connectLength + 24
        0x08001ee2:    250a        .%      MOVS     r5,#0xa
        0x08001ee4:    f104000c    ....    ADD      r0,r4,#0xc
        0x08001ee8:    c807        ..      LDM      r0,{r0-r2}
        0x08001eea:    f000f8f5    ....    BL       MQTTstrlen ; 0x80020d8
        0x08001eee:    4405        .D      ADD      r5,r5,r0
        0x08001ef0:    7ee0        .~      LDRB     r0,[r4,#0x1b]
        0x08001ef2:    1cad        ..      ADDS     r5,r5,#2
        0x08001ef4:    b178        x.      CBZ      r0,0x8001f16 ; MQTTSerialize_connectLength + 74
        0x08001ef6:    3424        $4      ADDS     r4,r4,#0x24
        0x08001ef8:    e8940007    ....    LDM      r4,{r0-r2}
        0x08001efc:    3c24        $<      SUBS     r4,r4,#0x24
        0x08001efe:    f000f8eb    ....    BL       MQTTstrlen ; 0x80020d8
        0x08001f02:    3430        04      ADDS     r4,r4,#0x30
        0x08001f04:    4606        .F      MOV      r6,r0
        0x08001f06:    e8940007    ....    LDM      r4,{r0-r2}
        0x08001f0a:    3c30        0<      SUBS     r4,r4,#0x30
        0x08001f0c:    f000f8e4    ....    BL       MQTTstrlen ; 0x80020d8
        0x08001f10:    4430        0D      ADD      r0,r0,r6
        0x08001f12:    4405        .D      ADD      r5,r5,r0
        0x08001f14:    1d2d        -.      ADDS     r5,r5,#4
        0x08001f16:    6c20         l      LDR      r0,[r4,#0x40]
        0x08001f18:    b908        ..      CBNZ     r0,0x8001f1e ; MQTTSerialize_connectLength + 82
        0x08001f1a:    6ca1        .l      LDR      r1,[r4,#0x48]
        0x08001f1c:    b129        ).      CBZ      r1,0x8001f2a ; MQTTSerialize_connectLength + 94
        0x08001f1e:    e9d41211    ....    LDRD     r1,r2,[r4,#0x44]
        0x08001f22:    f000f8d9    ....    BL       MQTTstrlen ; 0x80020d8
        0x08001f26:    4405        .D      ADD      r5,r5,r0
        0x08001f28:    1cad        ..      ADDS     r5,r5,#2
        0x08001f2a:    6ce0        .l      LDR      r0,[r4,#0x4c]
        0x08001f2c:    b908        ..      CBNZ     r0,0x8001f32 ; MQTTSerialize_connectLength + 102
        0x08001f2e:    6d61        am      LDR      r1,[r4,#0x54]
        0x08001f30:    b129        ).      CBZ      r1,0x8001f3e ; MQTTSerialize_connectLength + 114
        0x08001f32:    e9d41214    ....    LDRD     r1,r2,[r4,#0x50]
        0x08001f36:    f000f8cf    ....    BL       MQTTstrlen ; 0x80020d8
        0x08001f3a:    4405        .D      ADD      r5,r5,r0
        0x08001f3c:    1cad        ..      ADDS     r5,r5,#2
        0x08001f3e:    4628        (F      MOV      r0,r5
        0x08001f40:    bd70        p.      POP      {r4-r6,pc}
    i.MQTTSerialize_pingreq
    MQTTSerialize_pingreq
        0x08001f42:    220c        ."      MOVS     r2,#0xc
        0x08001f44:    f000b8af    ....    B.W      MQTTSerialize_zero ; 0x80020a6
    i.MQTTSerialize_publish
    MQTTSerialize_publish
        0x08001f48:    e92d5ffc    -.._    PUSH     {r2-r12,lr}
        0x08001f4c:    461c        .F      MOV      r4,r3
        0x08001f4e:    9e12        ..      LDR      r6,[sp,#0x48]
        0x08001f50:    e9cd6000    ...`    STRD     r6,r0,[sp,#0]
        0x08001f54:    f8ddb038    ..8.    LDR      r11,[sp,#0x38]
        0x08001f58:    4690        .F      MOV      r8,r2
        0x08001f5a:    f8dda030    ..0.    LDR      r10,[sp,#0x30]
        0x08001f5e:    e9dd230f    ...#    LDRD     r2,r3,[sp,#0x3c]
        0x08001f62:    4689        .F      MOV      r9,r1
        0x08001f64:    4607        .F      MOV      r7,r0
        0x08001f66:    4659        YF      MOV      r1,r11
        0x08001f68:    4620         F      MOV      r0,r4
        0x08001f6a:    f000f830    ..0.    BL       MQTTSerialize_publishLength ; 0x8001fce
        0x08001f6e:    4605        .F      MOV      r5,r0
        0x08001f70:    f7fffee8    ....    BL       MQTTPacket_len ; 0x8001d44
        0x08001f74:    4548        HE      CMP      r0,r9
        0x08001f76:    dd03        ..      BLE      0x8001f80 ; MQTTSerialize_publish + 56
        0x08001f78:    f06f0001    o...    MVN      r0,#1
        0x08001f7c:    e8bd9ffc    ....    POP      {r2-r12,pc}
        0x08001f80:    2130        0!      MOVS     r1,#0x30
        0x08001f82:    f36801c3    h...    BFI      r1,r8,#3,#1
        0x08001f86:    f3640142    d.B.    BFI      r1,r4,#1,#2
        0x08001f8a:    f36a0100    j...    BFI      r1,r10,#0,#1
        0x08001f8e:    a801        ..      ADD      r0,sp,#4
        0x08001f90:    f003fade    ....    BL       writeChar ; 0x8005550
        0x08001f94:    4629        )F      MOV      r1,r5
        0x08001f96:    9801        ..      LDR      r0,[sp,#4]
        0x08001f98:    f7fffea4    ....    BL       MQTTPacket_encode ; 0x8001ce4
        0x08001f9c:    9901        ..      LDR      r1,[sp,#4]
        0x08001f9e:    4408        .D      ADD      r0,r0,r1
        0x08001fa0:    9001        ..      STR      r0,[sp,#4]
        0x08001fa2:    e9dd230f    ...#    LDRD     r2,r3,[sp,#0x3c]
        0x08001fa6:    4659        YF      MOV      r1,r11
        0x08001fa8:    a801        ..      ADD      r0,sp,#4
        0x08001faa:    f003fae6    ....    BL       writeMQTTString ; 0x800557a
        0x08001fae:    2c00        .,      CMP      r4,#0
        0x08001fb0:    dd03        ..      BLE      0x8001fba ; MQTTSerialize_publish + 114
        0x08001fb2:    a801        ..      ADD      r0,sp,#4
        0x08001fb4:    990d        ..      LDR      r1,[sp,#0x34]
        0x08001fb6:    f003fad1    ....    BL       writeInt ; 0x800555c
        0x08001fba:    4632        2F      MOV      r2,r6
        0x08001fbc:    9911        ..      LDR      r1,[sp,#0x44]
        0x08001fbe:    9801        ..      LDR      r0,[sp,#4]
        0x08001fc0:    f7fefb92    ....    BL       __aeabi_memcpy ; 0x80006e8
        0x08001fc4:    9801        ..      LDR      r0,[sp,#4]
        0x08001fc6:    4430        0D      ADD      r0,r0,r6
        0x08001fc8:    9001        ..      STR      r0,[sp,#4]
        0x08001fca:    1bc0        ..      SUBS     r0,r0,r7
        0x08001fcc:    e7d6        ..      B        0x8001f7c ; MQTTSerialize_publish + 52
    i.MQTTSerialize_publishLength
    MQTTSerialize_publishLength
        0x08001fce:    b570        p.      PUSH     {r4-r6,lr}
        0x08001fd0:    460e        .F      MOV      r6,r1
        0x08001fd2:    4611        .F      MOV      r1,r2
        0x08001fd4:    4604        .F      MOV      r4,r0
        0x08001fd6:    461a        .F      MOV      r2,r3
        0x08001fd8:    4630        0F      MOV      r0,r6
        0x08001fda:    9d04        ..      LDR      r5,[sp,#0x10]
        0x08001fdc:    f000f87c    ..|.    BL       MQTTstrlen ; 0x80020d8
        0x08001fe0:    4428        (D      ADD      r0,r0,r5
        0x08001fe2:    1c80        ..      ADDS     r0,r0,#2
        0x08001fe4:    2c00        .,      CMP      r4,#0
        0x08001fe6:    dd00        ..      BLE      0x8001fea ; MQTTSerialize_publishLength + 28
        0x08001fe8:    1c80        ..      ADDS     r0,r0,#2
        0x08001fea:    bd70        p.      POP      {r4-r6,pc}
    i.MQTTSerialize_subscribe
    MQTTSerialize_subscribe
        0x08001fec:    e92d4fff    -..O    PUSH     {r0-r11,lr}
        0x08001ff0:    b083        ..      SUB      sp,sp,#0xc
        0x08001ff2:    4606        .F      MOV      r6,r0
        0x08001ff4:    a810        ..      ADD      r0,sp,#0x40
        0x08001ff6:    4689        .F      MOV      r9,r1
        0x08001ff8:    e8900980    ....    LDM      r0,{r7,r8,r11}
        0x08001ffc:    2400        .$      MOVS     r4,#0
        0x08001ffe:    4692        .F      MOV      r10,r2
        0x08002000:    4625        %F      MOV      r5,r4
        0x08002002:    4641        AF      MOV      r1,r8
        0x08002004:    4638        8F      MOV      r0,r7
        0x08002006:    9600        ..      STR      r6,[sp,#0]
        0x08002008:    f000f836    ..6.    BL       MQTTSerialize_subscribeLength ; 0x8002078
        0x0800200c:    9001        ..      STR      r0,[sp,#4]
        0x0800200e:    f7fffe99    ....    BL       MQTTPacket_len ; 0x8001d44
        0x08002012:    4548        HE      CMP      r0,r9
        0x08002014:    dd03        ..      BLE      0x800201e ; MQTTSerialize_subscribe + 50
        0x08002016:    1ea0        ..      SUBS     r0,r4,#2
        0x08002018:    b007        ..      ADD      sp,sp,#0x1c
        0x0800201a:    e8bd8ff0    ....    POP      {r4-r11,pc}
        0x0800201e:    f3640407    d...    BFI      r4,r4,#0,#8
        0x08002022:    3480        .4      ADDS     r4,r4,#0x80
        0x08002024:    f36a04c3    j...    BFI      r4,r10,#3,#1
        0x08002028:    f0240006    $...    BIC      r0,r4,#6
        0x0800202c:    1c80        ..      ADDS     r0,r0,#2
        0x0800202e:    b2c1        ..      UXTB     r1,r0
        0x08002030:    4668        hF      MOV      r0,sp
        0x08002032:    f003fa8d    ....    BL       writeChar ; 0x8005550
        0x08002036:    e9dd0100    ....    LDRD     r0,r1,[sp,#0]
        0x0800203a:    f7fffe53    ..S.    BL       MQTTPacket_encode ; 0x8001ce4
        0x0800203e:    9900        ..      LDR      r1,[sp,#0]
        0x08002040:    4408        .D      ADD      r0,r0,r1
        0x08002042:    9000        ..      STR      r0,[sp,#0]
        0x08002044:    4668        hF      MOV      r0,sp
        0x08002046:    9906        ..      LDR      r1,[sp,#0x18]
        0x08002048:    f003fa88    ....    BL       writeInt ; 0x800555c
        0x0800204c:    e00f        ..      B        0x800206e ; MQTTSerialize_subscribe + 130
        0x0800204e:    bf00        ..      NOP      
        0x08002050:    eb050145    ..E.    ADD      r1,r5,r5,LSL #1
        0x08002054:    eb080081    ....    ADD      r0,r8,r1,LSL #2
        0x08002058:    e890000e    ....    LDM      r0,{r1-r3}
        0x0800205c:    4668        hF      MOV      r0,sp
        0x0800205e:    f003fa8c    ....    BL       writeMQTTString ; 0x800557a
        0x08002062:    f81b1025    ..%.    LDRB     r1,[r11,r5,LSL #2]
        0x08002066:    4668        hF      MOV      r0,sp
        0x08002068:    f003fa72    ..r.    BL       writeChar ; 0x8005550
        0x0800206c:    1c6d        m.      ADDS     r5,r5,#1
        0x0800206e:    42bd        .B      CMP      r5,r7
        0x08002070:    dbee        ..      BLT      0x8002050 ; MQTTSerialize_subscribe + 100
        0x08002072:    9800        ..      LDR      r0,[sp,#0]
        0x08002074:    1b80        ..      SUBS     r0,r0,r6
        0x08002076:    e7cf        ..      B        0x8002018 ; MQTTSerialize_subscribe + 44
    i.MQTTSerialize_subscribeLength
    MQTTSerialize_subscribeLength
        0x08002078:    e92d41f0    -..A    PUSH     {r4-r8,lr}
        0x0800207c:    2502        .%      MOVS     r5,#2
        0x0800207e:    460f        .F      MOV      r7,r1
        0x08002080:    4606        .F      MOV      r6,r0
        0x08002082:    2400        .$      MOVS     r4,#0
        0x08002084:    e00a        ..      B        0x800209c ; MQTTSerialize_subscribeLength + 36
        0x08002086:    bf00        ..      NOP      
        0x08002088:    eb040044    ..D.    ADD      r0,r4,r4,LSL #1
        0x0800208c:    eb070080    ....    ADD      r0,r7,r0,LSL #2
        0x08002090:    c807        ..      LDM      r0,{r0-r2}
        0x08002092:    f000f821    ..!.    BL       MQTTstrlen ; 0x80020d8
        0x08002096:    4405        .D      ADD      r5,r5,r0
        0x08002098:    1c64        d.      ADDS     r4,r4,#1
        0x0800209a:    1ced        ..      ADDS     r5,r5,#3
        0x0800209c:    42b4        .B      CMP      r4,r6
        0x0800209e:    dbf3        ..      BLT      0x8002088 ; MQTTSerialize_subscribeLength + 16
        0x080020a0:    4628        (F      MOV      r0,r5
        0x080020a2:    e8bd81f0    ....    POP      {r4-r8,pc}
    i.MQTTSerialize_zero
    MQTTSerialize_zero
        0x080020a6:    b538        8.      PUSH     {r3-r5,lr}
        0x080020a8:    2300        .#      MOVS     r3,#0
        0x080020aa:    4604        .F      MOV      r4,r0
        0x080020ac:    9000        ..      STR      r0,[sp,#0]
        0x080020ae:    2902        .)      CMP      r1,#2
        0x080020b0:    da01        ..      BGE      0x80020b6 ; MQTTSerialize_zero + 16
        0x080020b2:    1e98        ..      SUBS     r0,r3,#2
        0x080020b4:    bd38        8.      POP      {r3-r5,pc}
        0x080020b6:    4619        .F      MOV      r1,r3
        0x080020b8:    f3630107    c...    BFI      r1,r3,#0,#8
        0x080020bc:    f3621107    b...    BFI      r1,r2,#4,#4
        0x080020c0:    4668        hF      MOV      r0,sp
        0x080020c2:    f003fa45    ..E.    BL       writeChar ; 0x8005550
        0x080020c6:    2100        .!      MOVS     r1,#0
        0x080020c8:    9800        ..      LDR      r0,[sp,#0]
        0x080020ca:    f7fffe0b    ....    BL       MQTTPacket_encode ; 0x8001ce4
        0x080020ce:    9900        ..      LDR      r1,[sp,#0]
        0x080020d0:    4408        .D      ADD      r0,r0,r1
        0x080020d2:    9000        ..      STR      r0,[sp,#0]
        0x080020d4:    1b00        ..      SUBS     r0,r0,r4
        0x080020d6:    bd38        8.      POP      {r3-r5,pc}
    i.MQTTstrlen
    MQTTstrlen
        0x080020d8:    b510        ..      PUSH     {r4,lr}
        0x080020da:    b110        ..      CBZ      r0,0x80020e2 ; MQTTstrlen + 10
        0x080020dc:    f7fefa8e    ....    BL       strlen ; 0x80005fc
        0x080020e0:    4601        .F      MOV      r1,r0
        0x080020e2:    4608        .F      MOV      r0,r1
        0x080020e4:    bd10        ..      POP      {r4,pc}
        0x080020e6:    0000        ..      MOVS     r0,r0
    i.MX_FREERTOS_Init
    MX_FREERTOS_Init
        0x080020e8:    b510        ..      PUSH     {r4,lr}
        0x080020ea:    4a04        .J      LDR      r2,[pc,#16] ; [0x80020fc] = 0x80061a0
        0x080020ec:    2100        .!      MOVS     r1,#0
        0x080020ee:    4804        .H      LDR      r0,[pc,#16] ; [0x8002100] = 0x8002261
        0x080020f0:    f001ffbe    ....    BL       osThreadNew ; 0x8004070
        0x080020f4:    4903        .I      LDR      r1,[pc,#12] ; [0x8002104] = 0x20000008
        0x080020f6:    6008        .`      STR      r0,[r1,#0]
        0x080020f8:    bd10        ..      POP      {r4,pc}
    $d
        0x080020fa:    0000        ..      DCW    0
        0x080020fc:    080061a0    .a..    DCD    134242720
        0x08002100:    08002261    a"..    DCD    134226529
        0x08002104:    20000008    ...     DCD    536870920
    $t
    i.MX_GPIO_Init
    MX_GPIO_Init
        0x08002108:    b570        p.      PUSH     {r4-r6,lr}
        0x0800210a:    b086        ..      SUB      sp,sp,#0x18
        0x0800210c:    2400        .$      MOVS     r4,#0
        0x0800210e:    4817        .H      LDR      r0,[pc,#92] ; [0x800216c] = 0x40021000
        0x08002110:    9400        ..      STR      r4,[sp,#0]
        0x08002112:    9401        ..      STR      r4,[sp,#4]
        0x08002114:    9402        ..      STR      r4,[sp,#8]
        0x08002116:    9403        ..      STR      r4,[sp,#0xc]
        0x08002118:    6981        .i      LDR      r1,[r0,#0x18]
        0x0800211a:    f0410120    A. .    ORR      r1,r1,#0x20
        0x0800211e:    6181        .a      STR      r1,[r0,#0x18]
        0x08002120:    6981        .i      LDR      r1,[r0,#0x18]
        0x08002122:    f0010120    .. .    AND      r1,r1,#0x20
        0x08002126:    9104        ..      STR      r1,[sp,#0x10]
        0x08002128:    6981        .i      LDR      r1,[r0,#0x18]
        0x0800212a:    f0410104    A...    ORR      r1,r1,#4
        0x0800212e:    6181        .a      STR      r1,[r0,#0x18]
        0x08002130:    6980        .i      LDR      r0,[r0,#0x18]
        0x08002132:    4e0f        .N      LDR      r6,[pc,#60] ; [0x8002170] = 0x40010800
        0x08002134:    f0000004    ....    AND      r0,r0,#4
        0x08002138:    9004        ..      STR      r0,[sp,#0x10]
        0x0800213a:    2200        ."      MOVS     r2,#0
        0x0800213c:    2102        .!      MOVS     r1,#2
        0x0800213e:    4630        0F      MOV      r0,r6
        0x08002140:    f7feff64    ..d.    BL       HAL_GPIO_WritePin ; 0x800100c
        0x08002144:    2501        .%      MOVS     r5,#1
        0x08002146:    480b        .H      LDR      r0,[pc,#44] ; [0x8002174] = 0x10210000
        0x08002148:    9500        ..      STR      r5,[sp,#0]
        0x0800214a:    e9cd0401    ....    STRD     r0,r4,[sp,#4]
        0x0800214e:    4669        iF      MOV      r1,sp
        0x08002150:    4630        0F      MOV      r0,r6
        0x08002152:    f7fefe63    ..c.    BL       HAL_GPIO_Init ; 0x8000e1c
        0x08002156:    2102        .!      MOVS     r1,#2
        0x08002158:    e9cd1500    ....    STRD     r1,r5,[sp,#0]
        0x0800215c:    e9cd4102    ...A    STRD     r4,r1,[sp,#8]
        0x08002160:    4669        iF      MOV      r1,sp
        0x08002162:    4630        0F      MOV      r0,r6
        0x08002164:    f7fefe5a    ..Z.    BL       HAL_GPIO_Init ; 0x8000e1c
        0x08002168:    b006        ..      ADD      sp,sp,#0x18
        0x0800216a:    bd70        p.      POP      {r4-r6,pc}
    $d
        0x0800216c:    40021000    ...@    DCD    1073876992
        0x08002170:    40010800    ...@    DCD    1073809408
        0x08002174:    10210000    ..!.    DCD    270598144
    $t
    i.MX_USART1_UART_Init
    MX_USART1_UART_Init
        0x08002178:    480c        .H      LDR      r0,[pc,#48] ; [0x80021ac] = 0x20000188
        0x0800217a:    b510        ..      PUSH     {r4,lr}
        0x0800217c:    490a        .I      LDR      r1,[pc,#40] ; [0x80021a8] = 0x40013800
        0x0800217e:    6001        .`      STR      r1,[r0,#0]
        0x08002180:    f44f31e1    O..1    MOV      r1,#0x1c200
        0x08002184:    6041        A`      STR      r1,[r0,#4]
        0x08002186:    2100        .!      MOVS     r1,#0
        0x08002188:    6081        .`      STR      r1,[r0,#8]
        0x0800218a:    220c        ."      MOVS     r2,#0xc
        0x0800218c:    60c1        .`      STR      r1,[r0,#0xc]
        0x0800218e:    e9c01204    ....    STRD     r1,r2,[r0,#0x10]
        0x08002192:    6181        .a      STR      r1,[r0,#0x18]
        0x08002194:    61c1        .a      STR      r1,[r0,#0x1c]
        0x08002196:    f7fffbb6    ....    BL       HAL_UART_Init ; 0x8001906
        0x0800219a:    2800        .(      CMP      r0,#0
        0x0800219c:    d003        ..      BEQ      0x80021a6 ; MX_USART1_UART_Init + 46
        0x0800219e:    e8bd4010    ...@    POP      {r4,lr}
        0x080021a2:    f7febe13    ....    B        Error_Handler ; 0x8000dcc
        0x080021a6:    bd10        ..      POP      {r4,pc}
    $d
        0x080021a8:    40013800    .8.@    DCD    1073821696
        0x080021ac:    20000188    ...     DCD    536871304
    $t
    i.MX_USART2_UART_Init
    MX_USART2_UART_Init
        0x080021b0:    480c        .H      LDR      r0,[pc,#48] ; [0x80021e4] = 0x200001cc
        0x080021b2:    b510        ..      PUSH     {r4,lr}
        0x080021b4:    490a        .I      LDR      r1,[pc,#40] ; [0x80021e0] = 0x40004400
        0x080021b6:    6001        .`      STR      r1,[r0,#0]
        0x080021b8:    f44f31e1    O..1    MOV      r1,#0x1c200
        0x080021bc:    6041        A`      STR      r1,[r0,#4]
        0x080021be:    2100        .!      MOVS     r1,#0
        0x080021c0:    6081        .`      STR      r1,[r0,#8]
        0x080021c2:    220c        ."      MOVS     r2,#0xc
        0x080021c4:    60c1        .`      STR      r1,[r0,#0xc]
        0x080021c6:    e9c01204    ....    STRD     r1,r2,[r0,#0x10]
        0x080021ca:    6181        .a      STR      r1,[r0,#0x18]
        0x080021cc:    61c1        .a      STR      r1,[r0,#0x1c]
        0x080021ce:    f7fffb9a    ....    BL       HAL_UART_Init ; 0x8001906
        0x080021d2:    2800        .(      CMP      r0,#0
        0x080021d4:    d003        ..      BEQ      0x80021de ; MX_USART2_UART_Init + 46
        0x080021d6:    e8bd4010    ...@    POP      {r4,lr}
        0x080021da:    f7febdf7    ....    B        Error_Handler ; 0x8000dcc
        0x080021de:    bd10        ..      POP      {r4,pc}
    $d
        0x080021e0:    40004400    .D.@    DCD    1073759232
        0x080021e4:    200001cc    ...     DCD    536871372
    $t
    i.MemManage_Handler
    MemManage_Handler
        0x080021e8:    e7fe        ..      B        MemManage_Handler ; 0x80021e8
    i.NMI_Handler
    NMI_Handler
        0x080021ea:    e7fe        ..      B        NMI_Handler ; 0x80021ea
    i.Show_IP
    Show_IP
        0x080021ec:    b530        0.      PUSH     {r4,r5,lr}
        0x080021ee:    f5ad7d01    ...}    SUB      sp,sp,#0x204
        0x080021f2:    4605        .F      MOV      r5,r0
        0x080021f4:    f44f7480    O..t    MOV      r4,#0x100
        0x080021f8:    4621        !F      MOV      r1,r4
        0x080021fa:    4668        hF      MOV      r0,sp
        0x080021fc:    f7fefb15    ....    BL       __aeabi_memclr4 ; 0x800082a
        0x08002200:    4621        !F      MOV      r1,r4
        0x08002202:    a840        @.      ADD      r0,sp,#0x100
        0x08002204:    f7fefb11    ....    BL       __aeabi_memclr4 ; 0x800082a
        0x08002208:    2400        .$      MOVS     r4,#0
        0x0800220a:    a10e        ..      ADR      r1,{pc}+0x3a ; 0x8002244
        0x0800220c:    4628        (F      MOV      r0,r5
        0x0800220e:    f7fef9e3    ....    BL       strstr ; 0x80005d8
        0x08002212:    1d80        ..      ADDS     r0,r0,#6
        0x08002214:    4605        .F      MOV      r5,r0
        0x08002216:    f7fef9f1    ....    BL       strlen ; 0x80005fc
        0x0800221a:    4602        .F      MOV      r2,r0
        0x0800221c:    4629        )F      MOV      r1,r5
        0x0800221e:    4668        hF      MOV      r0,sp
        0x08002220:    f7fefa62    ..b.    BL       __aeabi_memcpy ; 0x80006e8
        0x08002224:    4669        iF      MOV      r1,sp
        0x08002226:    aa40        @.      ADD      r2,sp,#0x100
        0x08002228:    e002        ..      B        0x8002230 ; Show_IP + 68
        0x0800222a:    5510        .U      STRB     r0,[r2,r4]
        0x0800222c:    1c64        d.      ADDS     r4,r4,#1
        0x0800222e:    b2e4        ..      UXTB     r4,r4
        0x08002230:    5d08        .]      LDRB     r0,[r1,r4]
        0x08002232:    280d        .(      CMP      r0,#0xd
        0x08002234:    d1f9        ..      BNE      0x800222a ; Show_IP + 62
        0x08002236:    4611        .F      MOV      r1,r2
        0x08002238:    a004        ..      ADR      r0,{pc}+0x14 ; 0x800224c
        0x0800223a:    f7fef839    ..9.    BL       __2printf ; 0x80002b0
        0x0800223e:    f50d7d01    ...}    ADD      sp,sp,#0x204
        0x08002242:    bd30        0.      POP      {r4,r5,pc}
    $d
        0x08002244:    49415453    STAI    DCD    1229018195
        0x08002248:    00000050    P...    DCD    80
        0x0800224c:    38505345    ESP8    DCD    944788293
        0x08002250:    20363632    266     DCD    540423730
        0x08002254:    203a5049    IP:     DCD    540692553
        0x08002258:    0a0d7325    %s..    DCD    168653605
        0x0800225c:    00000000    ....    DCD    0
    $t
    i.StartMyTask
    StartMyTask
        0x08002260:    b090        ..      SUB      sp,sp,#0x40
        0x08002262:    2500        .%      MOVS     r5,#0
        0x08002264:    2228        ("      MOVS     r2,#0x28
        0x08002266:    4932        2I      LDR      r1,[pc,#200] ; [0x8002330] = 0x8006178
        0x08002268:    a804        ..      ADD      r0,sp,#0x10
        0x0800226a:    f7fefa82    ....    BL       __aeabi_memcpy4 ; 0x8000772
        0x0800226e:    2600        .&      MOVS     r6,#0
        0x08002270:    9600        ..      STR      r6,[sp,#0]
        0x08002272:    9601        ..      STR      r6,[sp,#4]
        0x08002274:    9602        ..      STR      r6,[sp,#8]
        0x08002276:    9603        ..      STR      r6,[sp,#0xc]
        0x08002278:    f000fef4    ....    BL       mqtt_lease ; 0x8003064
        0x0800227c:    4c2d        -L      LDR      r4,[pc,#180] ; [0x8002334] = 0x20000000
        0x0800227e:    a12e        ..      ADR      r1,{pc}+0xba ; 0x8002338
        0x08002280:    6020         `      STR      r0,[r4,#0]
        0x08002282:    f001fb3d    ..=.    BL       mqtt_set_port ; 0x8003900
        0x08002286:    a12e        ..      ADR      r1,{pc}+0xba ; 0x8002340
        0x08002288:    6820         h      LDR      r0,[r4,#0]
        0x0800228a:    f001fac5    ....    BL       mqtt_set_host ; 0x8003818
        0x0800228e:    200a        .       MOVS     r0,#0xa
        0x08002290:    f002fd14    ....    BL       random_string ; 0x8004cbc
        0x08002294:    4601        .F      MOV      r1,r0
        0x08002296:    6820         h      LDR      r0,[r4,#0]
        0x08002298:    f001fa76    ..v.    BL       mqtt_set_client_id ; 0x8003788
        0x0800229c:    200a        .       MOVS     r0,#0xa
        0x0800229e:    f002fd0d    ....    BL       random_string ; 0x8004cbc
        0x080022a2:    4601        .F      MOV      r1,r0
        0x080022a4:    6820         h      LDR      r0,[r4,#0]
        0x080022a6:    f001fb65    ..e.    BL       mqtt_set_user_name ; 0x8003974
        0x080022aa:    200a        .       MOVS     r0,#0xa
        0x080022ac:    f002fd06    ....    BL       random_string ; 0x8004cbc
        0x080022b0:    4601        .F      MOV      r1,r0
        0x080022b2:    6820         h      LDR      r0,[r4,#0]
        0x080022b4:    f001faea    ....    BL       mqtt_set_password ; 0x800388c
        0x080022b8:    2101        .!      MOVS     r1,#1
        0x080022ba:    6820         h      LDR      r0,[r4,#0]
        0x080022bc:    f001fa26    ..&.    BL       mqtt_set_clean_session ; 0x800370c
        0x080022c0:    6820         h      LDR      r0,[r4,#0]
        0x080022c2:    f000fbb5    ....    BL       mqtt_connect ; 0x8002a30
        0x080022c6:    0001        ..      MOVS     r1,r0
        0x080022c8:    d1fa        ..      BNE      0x80022c0 ; StartMyTask + 96
        0x080022ca:    a021        !.      ADR      r0,{pc}+0x86 ; 0x8002350
        0x080022cc:    f7fdfff0    ....    BL       __2printf ; 0x80002b0
        0x080022d0:    af04        ..      ADD      r7,sp,#0x10
        0x080022d2:    9703        ..      STR      r7,[sp,#0xc]
        0x080022d4:    f88d6000    ...`    STRB     r6,[sp,#0]
        0x080022d8:    a804        ..      ADD      r0,sp,#0x10
        0x080022da:    f7fef98f    ....    BL       strlen ; 0x80005fc
        0x080022de:    9002        ..      STR      r0,[sp,#8]
        0x080022e0:    466a        jF      MOV      r2,sp
        0x080022e2:    a121        !.      ADR      r1,{pc}+0x86 ; 0x8002368
        0x080022e4:    6820         h      LDR      r0,[r4,#0]
        0x080022e6:    f000ffc7    ....    BL       mqtt_publish ; 0x8003278
        0x080022ea:    4b21        !K      LDR      r3,[pc,#132] ; [0x8002370] = 0x8004dc9
        0x080022ec:    2200        ."      MOVS     r2,#0
        0x080022ee:    a11e        ..      ADR      r1,{pc}+0x7a ; 0x8002368
        0x080022f0:    6820         h      LDR      r0,[r4,#0]
        0x080022f2:    f001fbd9    ....    BL       mqtt_subscribe ; 0x8003aa8
        0x080022f6:    4601        .F      MOV      r1,r0
        0x080022f8:    a01e        ..      ADR      r0,{pc}+0x7c ; 0x8002374
        0x080022fa:    f7fdffd9    ....    BL       __2printf ; 0x80002b0
        0x080022fe:    f2427810    B..x    MOV      r8,#0x2710
        0x08002302:    462a        *F      MOV      r2,r5
        0x08002304:    1c6d        m.      ADDS     r5,r5,#1
        0x08002306:    a121        !.      ADR      r1,{pc}+0x86 ; 0x800238c
        0x08002308:    a804        ..      ADD      r0,sp,#0x10
        0x0800230a:    f7fdffdd    ....    BL       __2sprintf ; 0x80002c8
        0x0800230e:    9703        ..      STR      r7,[sp,#0xc]
        0x08002310:    f88d6000    ...`    STRB     r6,[sp,#0]
        0x08002314:    a804        ..      ADD      r0,sp,#0x10
        0x08002316:    f7fef971    ..q.    BL       strlen ; 0x80005fc
        0x0800231a:    9002        ..      STR      r0,[sp,#8]
        0x0800231c:    466a        jF      MOV      r2,sp
        0x0800231e:    a112        ..      ADR      r1,{pc}+0x4a ; 0x8002368
        0x08002320:    6820         h      LDR      r0,[r4,#0]
        0x08002322:    f000ffa9    ....    BL       mqtt_publish ; 0x8003278
        0x08002326:    4640        @F      MOV      r0,r8
        0x08002328:    f001fe4c    ..L.    BL       osDelay ; 0x8003fc4
        0x0800232c:    e7e9        ..      B        0x8002302 ; StartMyTask + 162
    $d
        0x0800232e:    0000        ..      DCW    0
        0x08002330:    08006178    xa..    DCD    134242680
        0x08002334:    20000000    ...     DCD    536870912
        0x08002338:    33383831    1883    DCD    859322417
        0x0800233c:    00000000    ....    DCD    0
        0x08002340:    312e3734    47.1    DCD    825112372
        0x08002344:    312e3431    14.1    DCD    825111601
        0x08002348:    322e3738    87.2    DCD    841889592
        0x0800234c:    00003734    47..    DCD    14132
        0x08002350:    7474716d    mqtt    DCD    1953788269
        0x08002354:    6e6f635f    _con    DCD    1852793695
        0x08002358:    7463656e    nect    DCD    1952671086
        0x0800235c:    72726520     err    DCD    1920099616
        0x08002360:    25203d20     = %    DCD    622869792
        0x08002364:    000a0d64    d...    DCD    658788
        0x08002368:    656d6f68    home    DCD    1701670760
        0x0800236c:    00000000    ....    DCD    0
        0x08002370:    08004dc9    .M..    DCD    134237641
        0x08002374:    73627573    subs    DCD    1935832435
        0x08002378:    62697263    crib    DCD    1651077731
        0x0800237c:    72652065    e er    DCD    1919230053
        0x08002380:    203d2072    r =     DCD    540876914
        0x08002384:    0a0d6425    %d..    DCD    168649765
        0x08002388:    00000000    ....    DCD    0
        0x0800238c:    74736554    Test    DCD    1953719636
        0x08002390:    2567734d    Msg%    DCD    627536717
        0x08002394:    00000064    d...    DCD    100
    $t
    i.SysTick_Handler
    SysTick_Handler
        0x08002398:    b510        ..      PUSH     {r4,lr}
        0x0800239a:    2050        P       MOVS     r0,#0x50
        0x0800239c:    f3808811    ....    MSR      BASEPRI,r0
        0x080023a0:    f3bf8f4f    ..O.    DSB      
        0x080023a4:    f3bf8f6f    ..o.    ISB      
        0x080023a8:    f003fd08    ....    BL       xTaskIncrementTick ; 0x8005dbc
        0x080023ac:    b118        ..      CBZ      r0,0x80023b6 ; SysTick_Handler + 30
        0x080023ae:    4904        .I      LDR      r1,[pc,#16] ; [0x80023c0] = 0xe000ed04
        0x080023b0:    f04f5080    O..P    MOV      r0,#0x10000000
        0x080023b4:    6008        .`      STR      r0,[r1,#0]
        0x080023b6:    2000        .       MOVS     r0,#0
        0x080023b8:    f3808811    ....    MSR      BASEPRI,r0
        0x080023bc:    bd10        ..      POP      {r4,pc}
    $d
        0x080023be:    0000        ..      DCW    0
        0x080023c0:    e000ed04    ....    DCD    3758157060
    $t
    i.SystemClock_Config
    SystemClock_Config
        0x080023c4:    b530        0.      PUSH     {r4,r5,lr}
        0x080023c6:    b08f        ..      SUB      sp,sp,#0x3c
        0x080023c8:    2128        (!      MOVS     r1,#0x28
        0x080023ca:    4668        hF      MOV      r0,sp
        0x080023cc:    f7fefa2d    ..-.    BL       __aeabi_memclr4 ; 0x800082a
        0x080023d0:    2114        .!      MOVS     r1,#0x14
        0x080023d2:    a80a        ..      ADD      r0,sp,#0x28
        0x080023d4:    f7fefa29    ..).    BL       __aeabi_memclr4 ; 0x800082a
        0x080023d8:    2101        .!      MOVS     r1,#1
        0x080023da:    0408        ..      LSLS     r0,r1,#16
        0x080023dc:    e9cd1000    ....    STRD     r1,r0,[sp,#0]
        0x080023e0:    2400        .$      MOVS     r4,#0
        0x080023e2:    9402        ..      STR      r4,[sp,#8]
        0x080023e4:    2502        .%      MOVS     r5,#2
        0x080023e6:    9104        ..      STR      r1,[sp,#0x10]
        0x080023e8:    e9cd5007    ...P    STRD     r5,r0,[sp,#0x1c]
        0x080023ec:    f44f10e0    O...    MOV      r0,#0x1c0000
        0x080023f0:    9009        ..      STR      r0,[sp,#0x24]
        0x080023f2:    4668        hF      MOV      r0,sp
        0x080023f4:    f7feffda    ....    BL       HAL_RCC_OscConfig ; 0x80013ac
        0x080023f8:    b108        ..      CBZ      r0,0x80023fe ; SystemClock_Config + 58
        0x080023fa:    b672        r.      CPSID    i
        0x080023fc:    e7fe        ..      B        0x80023fc ; SystemClock_Config + 56
        0x080023fe:    200f        .       MOVS     r0,#0xf
        0x08002400:    e9cd050a    ....    STRD     r0,r5,[sp,#0x28]
        0x08002404:    f44f6080    O..`    MOV      r0,#0x400
        0x08002408:    e9cd400c    ...@    STRD     r4,r0,[sp,#0x30]
        0x0800240c:    2102        .!      MOVS     r1,#2
        0x0800240e:    a80a        ..      ADD      r0,sp,#0x28
        0x08002410:    940e        ..      STR      r4,[sp,#0x38]
        0x08002412:    f7fefebf    ....    BL       HAL_RCC_ClockConfig ; 0x8001194
        0x08002416:    2800        .(      CMP      r0,#0
        0x08002418:    d001        ..      BEQ      0x800241e ; SystemClock_Config + 90
        0x0800241a:    b672        r.      CPSID    i
        0x0800241c:    e7fe        ..      B        0x800241c ; SystemClock_Config + 88
        0x0800241e:    b00f        ..      ADD      sp,sp,#0x3c
        0x08002420:    bd30        0.      POP      {r4,r5,pc}
    i.SystemInit
    SystemInit
        0x08002422:    4770        pG      BX       lr
    i.TIM1_UP_IRQHandler
    TIM1_UP_IRQHandler
        0x08002424:    4801        .H      LDR      r0,[pc,#4] ; [0x800242c] = 0x20000610
        0x08002426:    f7ffb9ae    ....    B        HAL_TIM_IRQHandler ; 0x8001786
    $d
        0x0800242a:    0000        ..      DCW    0
        0x0800242c:    20000610    ...     DCD    536872464
    $t
    i.TIM_Base_SetConfig
    TIM_Base_SetConfig
        0x08002430:    b5f0        ..      PUSH     {r4-r7,lr}
        0x08002432:    6802        .h      LDR      r2,[r0,#0]
        0x08002434:    4b16        .K      LDR      r3,[pc,#88] ; [0x8002490] = 0x40012c00
        0x08002436:    4c17        .L      LDR      r4,[pc,#92] ; [0x8002494] = 0x40000400
        0x08002438:    4d17        .M      LDR      r5,[pc,#92] ; [0x8002498] = 0x40000800
        0x0800243a:    f04f4780    O..G    MOV      r7,#0x40000000
        0x0800243e:    4298        .B      CMP      r0,r3
        0x08002440:    d005        ..      BEQ      0x800244e ; TIM_Base_SetConfig + 30
        0x08002442:    42b8        .B      CMP      r0,r7
        0x08002444:    d003        ..      BEQ      0x800244e ; TIM_Base_SetConfig + 30
        0x08002446:    42a0        .B      CMP      r0,r4
        0x08002448:    d001        ..      BEQ      0x800244e ; TIM_Base_SetConfig + 30
        0x0800244a:    42a8        .B      CMP      r0,r5
        0x0800244c:    d103        ..      BNE      0x8002456 ; TIM_Base_SetConfig + 38
        0x0800244e:    f0220670    ".p.    BIC      r6,r2,#0x70
        0x08002452:    684a        Jh      LDR      r2,[r1,#4]
        0x08002454:    4332        2C      ORRS     r2,r2,r6
        0x08002456:    4298        .B      CMP      r0,r3
        0x08002458:    d005        ..      BEQ      0x8002466 ; TIM_Base_SetConfig + 54
        0x0800245a:    42b8        .B      CMP      r0,r7
        0x0800245c:    d003        ..      BEQ      0x8002466 ; TIM_Base_SetConfig + 54
        0x0800245e:    42a0        .B      CMP      r0,r4
        0x08002460:    d001        ..      BEQ      0x8002466 ; TIM_Base_SetConfig + 54
        0x08002462:    42a8        .B      CMP      r0,r5
        0x08002464:    d103        ..      BNE      0x800246e ; TIM_Base_SetConfig + 62
        0x08002466:    f4227440    ".@t    BIC      r4,r2,#0x300
        0x0800246a:    68ca        .h      LDR      r2,[r1,#0xc]
        0x0800246c:    4322        "C      ORRS     r2,r2,r4
        0x0800246e:    694c        Li      LDR      r4,[r1,#0x14]
        0x08002470:    f0220280    "...    BIC      r2,r2,#0x80
        0x08002474:    4322        "C      ORRS     r2,r2,r4
        0x08002476:    6002        .`      STR      r2,[r0,#0]
        0x08002478:    688a        .h      LDR      r2,[r1,#8]
        0x0800247a:    62c2        .b      STR      r2,[r0,#0x2c]
        0x0800247c:    680a        .h      LDR      r2,[r1,#0]
        0x0800247e:    6282        .b      STR      r2,[r0,#0x28]
        0x08002480:    4298        .B      CMP      r0,r3
        0x08002482:    d101        ..      BNE      0x8002488 ; TIM_Base_SetConfig + 88
        0x08002484:    6909        .i      LDR      r1,[r1,#0x10]
        0x08002486:    6301        .c      STR      r1,[r0,#0x30]
        0x08002488:    2101        .!      MOVS     r1,#1
        0x0800248a:    6141        Aa      STR      r1,[r0,#0x14]
        0x0800248c:    bdf0        ..      POP      {r4-r7,pc}
    $d
        0x0800248e:    0000        ..      DCW    0
        0x08002490:    40012c00    .,.@    DCD    1073818624
        0x08002494:    40000400    ...@    DCD    1073742848
        0x08002498:    40000800    ...@    DCD    1073743872
    $t
    i.UART_SetConfig
    UART_SetConfig
        0x0800249c:    b570        p.      PUSH     {r4-r6,lr}
        0x0800249e:    4604        .F      MOV      r4,r0
        0x080024a0:    6800        .h      LDR      r0,[r0,#0]
        0x080024a2:    6901        .i      LDR      r1,[r0,#0x10]
        0x080024a4:    68e2        .h      LDR      r2,[r4,#0xc]
        0x080024a6:    f4215140    !.@Q    BIC      r1,r1,#0x3000
        0x080024aa:    4311        .C      ORRS     r1,r1,r2
        0x080024ac:    6101        .a      STR      r1,[r0,#0x10]
        0x080024ae:    6921        !i      LDR      r1,[r4,#0x10]
        0x080024b0:    68a0        .h      LDR      r0,[r4,#8]
        0x080024b2:    4308        .C      ORRS     r0,r0,r1
        0x080024b4:    6961        ai      LDR      r1,[r4,#0x14]
        0x080024b6:    4308        .C      ORRS     r0,r0,r1
        0x080024b8:    6821        !h      LDR      r1,[r4,#0]
        0x080024ba:    68ca        .h      LDR      r2,[r1,#0xc]
        0x080024bc:    f241630c    A..c    MOV      r3,#0x160c
        0x080024c0:    439a        .C      BICS     r2,r2,r3
        0x080024c2:    4302        .C      ORRS     r2,r2,r0
        0x080024c4:    60ca        .`      STR      r2,[r1,#0xc]
        0x080024c6:    6820         h      LDR      r0,[r4,#0]
        0x080024c8:    6941        Ai      LDR      r1,[r0,#0x14]
        0x080024ca:    69a2        .i      LDR      r2,[r4,#0x18]
        0x080024cc:    f4217140    !.@q    BIC      r1,r1,#0x300
        0x080024d0:    4311        .C      ORRS     r1,r1,r2
        0x080024d2:    6141        Aa      STR      r1,[r0,#0x14]
        0x080024d4:    491e        .I      LDR      r1,[pc,#120] ; [0x8002550] = 0x40013800
        0x080024d6:    6820         h      LDR      r0,[r4,#0]
        0x080024d8:    4288        .B      CMP      r0,r1
        0x080024da:    d102        ..      BNE      0x80024e2 ; UART_SetConfig + 70
        0x080024dc:    f7feff20    .. .    BL       HAL_RCC_GetPCLK2Freq ; 0x8001320
        0x080024e0:    e001        ..      B        0x80024e6 ; UART_SetConfig + 74
        0x080024e2:    f7feff0d    ....    BL       HAL_RCC_GetPCLK1Freq ; 0x8001300
        0x080024e6:    eb0001c0    ....    ADD      r1,r0,r0,LSL #3
        0x080024ea:    eb011200    ....    ADD      r2,r1,r0,LSL #4
        0x080024ee:    6860        `h      LDR      r0,[r4,#4]
        0x080024f0:    2164        d!      MOVS     r1,#0x64
        0x080024f2:    0080        ..      LSLS     r0,r0,#2
        0x080024f4:    fbb2f3f0    ....    UDIV     r3,r2,r0
        0x080024f8:    fbb3f3f1    ....    UDIV     r3,r3,r1
        0x080024fc:    f06f0618    o...    MVN      r6,#0x18
        0x08002500:    4373        sC      MULS     r3,r6,r3
        0x08002502:    fbb2f5f0    ....    UDIV     r5,r2,r0
        0x08002506:    fbb2f6f0    ....    UDIV     r6,r2,r0
        0x0800250a:    eb050583    ....    ADD      r5,r5,r3,LSL #2
        0x0800250e:    2332        2#      MOVS     r3,#0x32
        0x08002510:    eb031505    ....    ADD      r5,r3,r5,LSL #4
        0x08002514:    fbb5f5f1    ....    UDIV     r5,r5,r1
        0x08002518:    fbb6f6f1    ....    UDIV     r6,r6,r1
        0x0800251c:    f00505f0    ....    AND      r5,r5,#0xf0
        0x08002520:    eb051506    ....    ADD      r5,r5,r6,LSL #4
        0x08002524:    fbb2f6f0    ....    UDIV     r6,r2,r0
        0x08002528:    fbb2f0f0    ....    UDIV     r0,r2,r0
        0x0800252c:    fbb0f0f1    ....    UDIV     r0,r0,r1
        0x08002530:    f06f0218    o...    MVN      r2,#0x18
        0x08002534:    4350        PC      MULS     r0,r2,r0
        0x08002536:    eb060080    ....    ADD      r0,r6,r0,LSL #2
        0x0800253a:    eb031000    ....    ADD      r0,r3,r0,LSL #4
        0x0800253e:    fbb0f0f1    ....    UDIV     r0,r0,r1
        0x08002542:    6821        !h      LDR      r1,[r4,#0]
        0x08002544:    f000000f    ....    AND      r0,r0,#0xf
        0x08002548:    4428        (D      ADD      r0,r0,r5
        0x0800254a:    6088        .`      STR      r0,[r1,#8]
        0x0800254c:    bd70        p.      POP      {r4-r6,pc}
    $d
        0x0800254e:    0000        ..      DCW    0
        0x08002550:    40013800    .8.@    DCD    1073821696
    $t
    i.UART_WaitOnFlagUntilTimeout
    UART_WaitOnFlagUntilTimeout
        0x08002554:    e92d41f0    -..A    PUSH     {r4-r8,lr}
        0x08002558:    4698        .F      MOV      r8,r3
        0x0800255a:    4617        .F      MOV      r7,r2
        0x0800255c:    460e        .F      MOV      r6,r1
        0x0800255e:    4604        .F      MOV      r4,r0
        0x08002560:    9d06        ..      LDR      r5,[sp,#0x18]
        0x08002562:    e01d        ..      B        0x80025a0 ; UART_WaitOnFlagUntilTimeout + 76
        0x08002564:    1c68        h.      ADDS     r0,r5,#1
        0x08002566:    d01b        ..      BEQ      0x80025a0 ; UART_WaitOnFlagUntilTimeout + 76
        0x08002568:    b12d        -.      CBZ      r5,0x8002576 ; UART_WaitOnFlagUntilTimeout + 34
        0x0800256a:    f7fefd55    ..U.    BL       HAL_GetTick ; 0x8001018
        0x0800256e:    eba00008    ....    SUB      r0,r0,r8
        0x08002572:    42a8        .B      CMP      r0,r5
        0x08002574:    d914        ..      BLS      0x80025a0 ; UART_WaitOnFlagUntilTimeout + 76
        0x08002576:    6820         h      LDR      r0,[r4,#0]
        0x08002578:    68c1        .h      LDR      r1,[r0,#0xc]
        0x0800257a:    f42171d0    !..q    BIC      r1,r1,#0x1a0
        0x0800257e:    60c1        .`      STR      r1,[r0,#0xc]
        0x08002580:    6820         h      LDR      r0,[r4,#0]
        0x08002582:    6941        Ai      LDR      r1,[r0,#0x14]
        0x08002584:    f0210101    !...    BIC      r1,r1,#1
        0x08002588:    6141        Aa      STR      r1,[r0,#0x14]
        0x0800258a:    2020                MOVS     r0,#0x20
        0x0800258c:    f884003d    ..=.    STRB     r0,[r4,#0x3d]
        0x08002590:    f884003e    ..>.    STRB     r0,[r4,#0x3e]
        0x08002594:    2000        .       MOVS     r0,#0
        0x08002596:    f884003c    ..<.    STRB     r0,[r4,#0x3c]
        0x0800259a:    2003        .       MOVS     r0,#3
        0x0800259c:    e8bd81f0    ....    POP      {r4-r8,pc}
        0x080025a0:    6820         h      LDR      r0,[r4,#0]
        0x080025a2:    6800        .h      LDR      r0,[r0,#0]
        0x080025a4:    ea360000    6...    BICS     r0,r6,r0
        0x080025a8:    d004        ..      BEQ      0x80025b4 ; UART_WaitOnFlagUntilTimeout + 96
        0x080025aa:    2000        .       MOVS     r0,#0
        0x080025ac:    42b8        .B      CMP      r0,r7
        0x080025ae:    d0d9        ..      BEQ      0x8002564 ; UART_WaitOnFlagUntilTimeout + 16
        0x080025b0:    2000        .       MOVS     r0,#0
        0x080025b2:    e7f3        ..      B        0x800259c ; UART_WaitOnFlagUntilTimeout + 72
        0x080025b4:    2001        .       MOVS     r0,#1
        0x080025b6:    e7f9        ..      B        0x80025ac ; UART_WaitOnFlagUntilTimeout + 88
    i.USART2_ClearBuf
    USART2_ClearBuf
        0x080025b8:    4903        .I      LDR      r1,[pc,#12] ; [0x80025c8] = 0x2000000c
        0x080025ba:    2000        .       MOVS     r0,#0
        0x080025bc:    7048        Hp      STRB     r0,[r1,#1]
        0x080025be:    21c8        .!      MOVS     r1,#0xc8
        0x080025c0:    4802        .H      LDR      r0,[pc,#8] ; [0x80025cc] = 0x200000c0
        0x080025c2:    f7feb932    ..2.    B        __aeabi_memclr4 ; 0x800082a
    $d
        0x080025c6:    0000        ..      DCW    0
        0x080025c8:    2000000c    ...     DCD    536870924
        0x080025cc:    200000c0    ...     DCD    536871104
    $t
    i.USART2_IRQHandler
    USART2_IRQHandler
        0x080025d0:    4805        .H      LDR      r0,[pc,#20] ; [0x80025e8] = 0x40004400
        0x080025d2:    6800        .h      LDR      r0,[r0,#0]
        0x080025d4:    0680        ..      LSLS     r0,r0,#26
        0x080025d6:    d505        ..      BPL      0x80025e4 ; USART2_IRQHandler + 20
        0x080025d8:    4803        .H      LDR      r0,[pc,#12] ; [0x80025e8] = 0x40004400
        0x080025da:    1d00        ..      ADDS     r0,r0,#4
        0x080025dc:    6800        .h      LDR      r0,[r0,#0]
        0x080025de:    b2c0        ..      UXTB     r0,r0
        0x080025e0:    f7feba26    ..&.    B        ESP8266DataProcessCallback ; 0x8000a30
        0x080025e4:    4770        pG      BX       lr
    $d
        0x080025e6:    0000        ..      DCW    0
        0x080025e8:    40004400    .D.@    DCD    1073759232
    $t
    i.USART2_Receive
    USART2_Receive
        0x080025ec:    b510        ..      PUSH     {r4,lr}
        0x080025ee:    4c03        .L      LDR      r4,[pc,#12] ; [0x80025fc] = 0x2000000c
        0x080025f0:    4903        .I      LDR      r1,[pc,#12] ; [0x8002600] = 0x200000c0
        0x080025f2:    7862        bx      LDRB     r2,[r4,#1]
        0x080025f4:    f7fef878    ..x.    BL       __aeabi_memcpy ; 0x80006e8
        0x080025f8:    7860        `x      LDRB     r0,[r4,#1]
        0x080025fa:    bd10        ..      POP      {r4,pc}
    $d
        0x080025fc:    2000000c    ...     DCD    536870924
        0x08002600:    200000c0    ...     DCD    536871104
    $t
    i.USART2_Transmit
    USART2_Transmit
        0x08002604:    4613        .F      MOV      r3,r2
        0x08002606:    460a        .F      MOV      r2,r1
        0x08002608:    4601        .F      MOV      r1,r0
        0x0800260a:    4801        .H      LDR      r0,[pc,#4] ; [0x8002610] = 0x200001cc
        0x0800260c:    f7ffba02    ....    B        HAL_UART_Transmit ; 0x8001a14
    $d
        0x08002610:    200001cc    ...     DCD    536871372
    $t
    i.UsageFault_Handler
    UsageFault_Handler
        0x08002614:    e7fe        ..      B        UsageFault_Handler ; 0x8002614
    i.__NVIC_SetPriority
    __NVIC_SetPriority
        0x08002616:    0709        ..      LSLS     r1,r1,#28
        0x08002618:    0e09        ..      LSRS     r1,r1,#24
        0x0800261a:    2800        .(      CMP      r0,#0
        0x0800261c:    db04        ..      BLT      0x8002628 ; __NVIC_SetPriority + 18
        0x0800261e:    f10020e0    ...     ADD      r0,r0,#0xe000e000
        0x08002622:    f8801400    ....    STRB     r1,[r0,#0x400]
        0x08002626:    4770        pG      BX       lr
        0x08002628:    f000000f    ....    AND      r0,r0,#0xf
        0x0800262c:    f10020e0    ...     ADD      r0,r0,#0xe000e000
        0x08002630:    f8801d14    ....    STRB     r1,[r0,#0xd14]
        0x08002634:    4770        pG      BX       lr
    i._is_digit
    _is_digit
        0x08002636:    3830        08      SUBS     r0,r0,#0x30
        0x08002638:    280a        .(      CMP      r0,#0xa
        0x0800263a:    d201        ..      BCS      0x8002640 ; _is_digit + 10
        0x0800263c:    2001        .       MOVS     r0,#1
        0x0800263e:    4770        pG      BX       lr
        0x08002640:    2000        .       MOVS     r0,#0
        0x08002642:    4770        pG      BX       lr
    i._mqtt_list_add
    _mqtt_list_add
        0x08002644:    6050        P`      STR      r0,[r2,#4]
        0x08002646:    e9c02100    ...!    STRD     r2,r1,[r0,#0]
        0x0800264a:    6008        .`      STR      r0,[r1,#0]
        0x0800264c:    4770        pG      BX       lr
    i._sys_exit
    _sys_exit
        0x0800264e:    4770        pG      BX       lr
    i.bufchar
    bufchar
        0x08002650:    b530        0.      PUSH     {r4,r5,lr}
        0x08002652:    4604        .F      MOV      r4,r0
        0x08002654:    4806        .H      LDR      r0,[pc,#24] ; [0x8002670] = 0x200000bc
        0x08002656:    2300        .#      MOVS     r3,#0
        0x08002658:    6802        .h      LDR      r2,[r0,#0]
        0x0800265a:    e003        ..      B        0x8002664 ; bufchar + 20
        0x0800265c:    f8125b01    ...[    LDRB     r5,[r2],#1
        0x08002660:    7025        %p      STRB     r5,[r4,#0]
        0x08002662:    1c5b        [.      ADDS     r3,r3,#1
        0x08002664:    428b        .B      CMP      r3,r1
        0x08002666:    dbf9        ..      BLT      0x800265c ; bufchar + 12
        0x08002668:    6002        .`      STR      r2,[r0,#0]
        0x0800266a:    4608        .F      MOV      r0,r1
        0x0800266c:    bd30        0.      POP      {r4,r5,pc}
    $d
        0x0800266e:    0000        ..      DCW    0
        0x08002670:    200000bc    ...     DCD    536871100
    $t
    i.default_msg_handler
    default_msg_handler
        0x08002674:    b50e        ..      PUSH     {r1-r3,lr}
        0x08002676:    6c08        .l      LDR      r0,[r1,#0x40]
        0x08002678:    4b07        .K      LDR      r3,[pc,#28] ; [0x8002698] = 0x80061dc
        0x0800267a:    68c2        .h      LDR      r2,[r0,#0xc]
        0x0800267c:    7800        .x      LDRB     r0,[r0,#0]
        0x0800267e:    9100        ..      STR      r1,[sp,#0]
        0x08002680:    e9cd0201    ....    STRD     r0,r2,[sp,#4]
        0x08002684:    220f        ."      MOVS     r2,#0xf
        0x08002686:    a105        ..      ADR      r1,{pc}+0x16 ; 0x800269c
        0x08002688:    a00e        ..      ADR      r0,{pc}+0x3c ; 0x80026c4
        0x0800268a:    f7fdfe11    ....    BL       __2printf ; 0x80002b0
        0x0800268e:    e8bd400e    ...@    POP      {r1-r3,lr}
        0x08002692:    a018        ..      ADR      r0,{pc}+0x62 ; 0x80026f4
        0x08002694:    f7fdbe0c    ....    B        __2printf ; 0x80002b0
    $d
        0x08002698:    080061dc    .a..    DCD    134242780
        0x0800269c:    6d5c2e2e    ..\m    DCD    1834757678
        0x080026a0:    63747471    qttc    DCD    1668576369
        0x080026a4:    6e65696c    lien    DCD    1852139884
        0x080026a8:    716d5c74    t\mq    DCD    1902992500
        0x080026ac:    6c637474    ttcl    DCD    1818457204
        0x080026b0:    746e6569    ient    DCD    1953391977
        0x080026b4:    74716d5c    \mqt    DCD    1953590620
        0x080026b8:    696c6374    tcli    DCD    1768711028
        0x080026bc:    2e746e65    ent.    DCD    779382373
        0x080026c0:    00000063    c...    DCD    99
        0x080026c4:    253a7325    %s:%    DCD    624587557
        0x080026c8:    73252064    d %s    DCD    1931812964
        0x080026cc:    2e2e2928    ()..    DCD    774777128
        0x080026d0:    6f740a2e    ..to    DCD    1869875758
        0x080026d4:    3a636970    pic:    DCD    979593584
        0x080026d8:    2c732520     %s,    DCD    745743648
        0x080026dc:    736f7120     qos    DCD    1936683296
        0x080026e0:    6425203a    : %d    DCD    1680154682
        0x080026e4:    6d0a202c    , .m    DCD    1829380140
        0x080026e8:    61737365    essa    DCD    1634956133
        0x080026ec:    253a6567    ge:%    DCD    624584039
        0x080026f0:    00000073    s...    DCD    115
        0x080026f4:    00000a0d    ....    DCD    2573
    $t
    i.do_random
    do_random
        0x080026f8:    b510        ..      PUSH     {r4,lr}
        0x080026fa:    f7fdff4f    ..O.    BL       srand ; 0x800059c
        0x080026fe:    e8bd4010    ...@    POP      {r4,lr}
        0x08002702:    f7fdbd99    ....    B        rand ; 0x8000238
        0x08002706:    0000        ..      MOVS     r0,r0
    i.fputc
    fputc
        0x08002708:    b513        ..      PUSH     {r0,r1,r4,lr}
        0x0800270a:    230a        .#      MOVS     r3,#0xa
        0x0800270c:    2201        ."      MOVS     r2,#1
        0x0800270e:    4669        iF      MOV      r1,sp
        0x08002710:    4802        .H      LDR      r0,[pc,#8] ; [0x800271c] = 0x20000188
        0x08002712:    f7fff97f    ....    BL       HAL_UART_Transmit ; 0x8001a14
        0x08002716:    9800        ..      LDR      r0,[sp,#0]
        0x08002718:    bd1c        ..      POP      {r2-r4,pc}
    $d
        0x0800271a:    0000        ..      DCW    0
        0x0800271c:    20000188    ...     DCD    536871304
    $t
    i.main
    main
        0x08002720:    f7fefc88    ....    BL       HAL_Init ; 0x8001034
        0x08002724:    f7fffe4e    ..N.    BL       SystemClock_Config ; 0x80023c4
        0x08002728:    f7fffcee    ....    BL       MX_GPIO_Init ; 0x8002108
        0x0800272c:    f7fffd24    ..$.    BL       MX_USART1_UART_Init ; 0x8002178
        0x08002730:    f7fffd3e    ..>.    BL       MX_USART2_UART_Init ; 0x80021b0
        0x08002734:    2200        ."      MOVS     r2,#0
        0x08002736:    2105        .!      MOVS     r1,#5
        0x08002738:    2006        .       MOVS     r0,#6
        0x0800273a:    f7fefcf9    ....    BL       HAL_NVIC_SetPriority ; 0x8001130
        0x0800273e:    2006        .       MOVS     r0,#6
        0x08002740:    f7fefce8    ....    BL       HAL_NVIC_EnableIRQ ; 0x8001114
        0x08002744:    2200        ."      MOVS     r2,#0
        0x08002746:    2105        .!      MOVS     r1,#5
        0x08002748:    2026        &       MOVS     r0,#0x26
        0x0800274a:    f7fefcf1    ....    BL       HAL_NVIC_SetPriority ; 0x8001130
        0x0800274e:    2026        &       MOVS     r0,#0x26
        0x08002750:    f7fefce0    ....    BL       HAL_NVIC_EnableIRQ ; 0x8001114
        0x08002754:    f7fefb28    ..(.    BL       EnableUART2IRQ ; 0x8000da8
        0x08002758:    f001fc4e    ..N.    BL       osKernelInitialize ; 0x8003ff8
        0x0800275c:    f7fffcc4    ....    BL       MX_FREERTOS_Init ; 0x80020e8
        0x08002760:    f001fc66    ..f.    BL       osKernelStart ; 0x8004030
        0x08002764:    e7fe        ..      B        0x8002764 ; main + 68
    i.mqtt_ack_handler_destroy
    mqtt_ack_handler_destroy
        0x08002766:    b510        ..      PUSH     {r4,lr}
        0x08002768:    0004        ..      MOVS     r4,r0
        0x0800276a:    d006        ..      BEQ      0x800277a ; mqtt_ack_handler_destroy + 20
        0x0800276c:    f000fc90    ....    BL       mqtt_list_del ; 0x8003090
        0x08002770:    4620         F      MOV      r0,r4
        0x08002772:    e8bd4010    ...@    POP      {r4,lr}
        0x08002776:    f001bcef    ....    B.W      platform_memory_free ; 0x8004158
        0x0800277a:    bd10        ..      POP      {r4,pc}
    i.mqtt_ack_handler_resend
    mqtt_ack_handler_resend
        0x0800277c:    b5fe        ..      PUSH     {r1-r7,lr}
        0x0800277e:    4605        .F      MOV      r5,r0
        0x08002780:    460c        .F      MOV      r4,r1
        0x08002782:    a802        ..      ADD      r0,sp,#8
        0x08002784:    f001fe14    ....    BL       platform_timer_init ; 0x80043b0
        0x08002788:    a802        ..      ADD      r0,sp,#8
        0x0800278a:    6ae9        .j      LDR      r1,[r5,#0x2c]
        0x0800278c:    f001fe08    ....    BL       platform_timer_cutdown ; 0x80043a0
        0x08002790:    f1040008    ....    ADD      r0,r4,#8
        0x08002794:    6ae9        .j      LDR      r1,[r5,#0x2c]
        0x08002796:    f001fe03    ....    BL       platform_timer_cutdown ; 0x80043a0
        0x0800279a:    f1050050    ..P.    ADD      r0,r5,#0x50
        0x0800279e:    4606        .F      MOV      r6,r0
        0x080027a0:    f001fce4    ....    BL       platform_mutex_lock ; 0x800416c
        0x080027a4:    8b22        ".      LDRH     r2,[r4,#0x18]
        0x080027a6:    69e1        .i      LDR      r1,[r4,#0x1c]
        0x080027a8:    6a28        (j      LDR      r0,[r5,#0x20]
        0x080027aa:    f7fdff9d    ....    BL       __aeabi_memcpy ; 0x80006e8
        0x080027ae:    8b21        !.      LDRH     r1,[r4,#0x18]
        0x080027b0:    aa02        ..      ADD      r2,sp,#8
        0x080027b2:    4628        (F      MOV      r0,r5
        0x080027b4:    f000ff78    ..x.    BL       mqtt_send_packet ; 0x80036a8
        0x080027b8:    8a21        !.      LDRH     r1,[r4,#0x10]
        0x080027ba:    68e0        .h      LDR      r0,[r4,#0xc]
        0x080027bc:    e9cd0100    ....    STRD     r0,r1,[sp,#0]
        0x080027c0:    4b07        .K      LDR      r3,[pc,#28] ; [0x80027e0] = 0x80061f0
        0x080027c2:    f2401265    @.e.    MOV      r2,#0x165
        0x080027c6:    4907        .I      LDR      r1,[pc,#28] ; [0x80027e4] = 0x8003b94
        0x080027c8:    a007        ..      ADR      r0,{pc}+0x20 ; 0x80027e8
        0x080027ca:    f7fdfd71    ..q.    BL       __2printf ; 0x80002b0
        0x080027ce:    4805        .H      LDR      r0,[pc,#20] ; [0x80027e4] = 0x8003b94
        0x080027d0:    305c        \0      ADDS     r0,r0,#0x5c
        0x080027d2:    f7fdfd6d    ..m.    BL       __2printf ; 0x80002b0
        0x080027d6:    4630        0F      MOV      r0,r6
        0x080027d8:    f001fccd    ....    BL       platform_mutex_unlock ; 0x8004176
        0x080027dc:    bdfe        ..      POP      {r1-r7,pc}
    $d
        0x080027de:    0000        ..      DCW    0
        0x080027e0:    080061f0    .a..    DCD    134242800
        0x080027e4:    08003b94    .;..    DCD    134232980
        0x080027e8:    253a7325    %s:%    DCD    624587557
        0x080027ec:    73252064    d %s    DCD    1931812964
        0x080027f0:    2e2e2928    ()..    DCD    774777128
        0x080027f4:    6572202e    . re    DCD    1701978158
        0x080027f8:    646e6573    send    DCD    1684956531
        0x080027fc:    20642520     %d     DCD    543434016
        0x08002800:    6b636170    pack    DCD    1801675120
        0x08002804:    2c656761    age,    DCD    744843105
        0x08002808:    63617020     pac    DCD    1667330080
        0x0800280c:    5f74656b    ket_    DCD    1601463659
        0x08002810:    69206469    id i    DCD    1763730537
        0x08002814:    64252073    s %d    DCD    1680154739
        0x08002818:    00000020     ...    DCD    32
    $t
    i.mqtt_ack_list_record
    mqtt_ack_list_record
        0x0800281c:    e92d4ff8    -..O    PUSH     {r3-r11,lr}
        0x08002820:    4604        .F      MOV      r4,r0
        0x08002822:    3060        `0      ADDS     r0,r0,#0x60
        0x08002824:    f8dda028    ..(.    LDR      r10,[sp,#0x28]
        0x08002828:    4699        .F      MOV      r9,r3
        0x0800282a:    4615        .F      MOV      r5,r2
        0x0800282c:    460e        .F      MOV      r6,r1
        0x0800282e:    f04f0b00    O...    MOV      r11,#0
        0x08002832:    4607        .F      MOV      r7,r0
        0x08002834:    9000        ..      STR      r0,[sp,#0]
        0x08002836:    f000fc39    ..9.    BL       mqtt_list_is_empty ; 0x80030ac
        0x0800283a:    b978        x.      CBNZ     r0,0x800285c ; mqtt_ack_list_record + 64
        0x0800283c:    6e20         n      LDR      r0,[r4,#0x60]
        0x0800283e:    e00a        ..      B        0x8002856 ; mqtt_ack_list_record + 58
        0x08002840:    8a03        ..      LDRH     r3,[r0,#0x10]
        0x08002842:    42ab        .B      CMP      r3,r5
        0x08002844:    d106        ..      BNE      0x8002854 ; mqtt_ack_list_record + 56
        0x08002846:    68c2        .h      LDR      r2,[r0,#0xc]
        0x08002848:    42b2        .B      CMP      r2,r6
        0x0800284a:    d103        ..      BNE      0x8002854 ; mqtt_ack_list_record + 56
        0x0800284c:    f06f0016    o...    MVN      r0,#0x16
        0x08002850:    e8bd8ff8    ....    POP      {r3-r11,pc}
        0x08002854:    4608        .F      MOV      r0,r1
        0x08002856:    42b8        .B      CMP      r0,r7
        0x08002858:    6801        .h      LDR      r1,[r0,#0]
        0x0800285a:    d1f1        ..      BNE      0x8002840 ; mqtt_ack_list_record + 36
        0x0800285c:    46b0        .F      MOV      r8,r6
        0x0800285e:    464e        NF      MOV      r6,r9
        0x08002860:    462f        /F      MOV      r7,r5
        0x08002862:    46d1        .F      MOV      r9,r10
        0x08002864:    f1060020    .. .    ADD      r0,r6,#0x20
        0x08002868:    f001fc56    ..V.    BL       platform_memory_alloc ; 0x8004118
        0x0800286c:    0005        ..      MOVS     r5,r0
        0x0800286e:    d029        ).      BEQ      0x80028c4 ; mqtt_ack_list_record + 168
        0x08002870:    f000fc19    ....    BL       mqtt_list_init ; 0x80030a6
        0x08002874:    f1050008    ....    ADD      r0,r5,#8
        0x08002878:    4682        .F      MOV      r10,r0
        0x0800287a:    f001fd99    ....    BL       platform_timer_init ; 0x80043b0
        0x0800287e:    4650        PF      MOV      r0,r10
        0x08002880:    6ae1        .j      LDR      r1,[r4,#0x2c]
        0x08002882:    f001fd8d    ....    BL       platform_timer_cutdown ; 0x80043a0
        0x08002886:    f8c5800c    ....    STR      r8,[r5,#0xc]
        0x0800288a:    822f        /.      STRH     r7,[r5,#0x10]
        0x0800288c:    832e        ..      STRH     r6,[r5,#0x18]
        0x0800288e:    f1050020    .. .    ADD      r0,r5,#0x20
        0x08002892:    f8c59014    ....    STR      r9,[r5,#0x14]
        0x08002896:    61e8        .a      STR      r0,[r5,#0x1c]
        0x08002898:    4632        2F      MOV      r2,r6
        0x0800289a:    6a21        !j      LDR      r1,[r4,#0x20]
        0x0800289c:    f7fdff24    ..$.    BL       __aeabi_memcpy ; 0x80006e8
        0x080028a0:    f1040054    ..T.    ADD      r0,r4,#0x54
        0x080028a4:    4606        .F      MOV      r6,r0
        0x080028a6:    f001fc61    ..a.    BL       platform_mutex_lock ; 0x800416c
        0x080028aa:    6aa0        .j      LDR      r0,[r4,#0x28]
        0x080028ac:    f5007080    ...p    ADD      r0,r0,#0x100
        0x080028b0:    62a0        .b      STR      r0,[r4,#0x28]
        0x080028b2:    4630        0F      MOV      r0,r6
        0x080028b4:    f001fc5f    .._.    BL       platform_mutex_unlock ; 0x8004176
        0x080028b8:    4628        (F      MOV      r0,r5
        0x080028ba:    9900        ..      LDR      r1,[sp,#0]
        0x080028bc:    f000fbe3    ....    BL       mqtt_list_add_tail ; 0x8003086
        0x080028c0:    4658        XF      MOV      r0,r11
        0x080028c2:    e7c5        ..      B        0x8002850 ; mqtt_ack_list_record + 52
        0x080028c4:    f06f0002    o...    MVN      r0,#2
        0x080028c8:    e7c2        ..      B        0x8002850 ; mqtt_ack_list_record + 52
    i.mqtt_ack_list_scan
    mqtt_ack_list_scan
        0x080028ca:    e92d41f0    -..A    PUSH     {r4-r8,lr}
        0x080028ce:    4605        .F      MOV      r5,r0
        0x080028d0:    3060        `0      ADDS     r0,r0,#0x60
        0x080028d2:    4688        .F      MOV      r8,r1
        0x080028d4:    4606        .F      MOV      r6,r0
        0x080028d6:    f000fbe9    ....    BL       mqtt_list_is_empty ; 0x80030ac
        0x080028da:    2800        .(      CMP      r0,#0
        0x080028dc:    d11d        ..      BNE      0x800291a ; mqtt_ack_list_scan + 80
        0x080028de:    f895004c    ..L.    LDRB     r0,[r5,#0x4c]
        0x080028e2:    2801        .(      CMP      r0,#1
        0x080028e4:    d119        ..      BNE      0x800291a ; mqtt_ack_list_scan + 80
        0x080028e6:    6e28        (n      LDR      r0,[r5,#0x60]
        0x080028e8:    e014        ..      B        0x8002914 ; mqtt_ack_list_scan + 74
        0x080028ea:    4607        .F      MOV      r7,r0
        0x080028ec:    3008        .0      ADDS     r0,r0,#8
        0x080028ee:    f001fd62    ..b.    BL       platform_timer_is_expired ; 0x80043b6
        0x080028f2:    b910        ..      CBNZ     r0,0x80028fa ; mqtt_ack_list_scan + 48
        0x080028f4:    f1b80f01    ....    CMP      r8,#1
        0x080028f8:    d00b        ..      BEQ      0x8002912 ; mqtt_ack_list_scan + 72
        0x080028fa:    68f8        .h      LDR      r0,[r7,#0xc]
        0x080028fc:    2804        .(      CMP      r0,#4
        0x080028fe:    d00e        ..      BEQ      0x800291e ; mqtt_ack_list_scan + 84
        0x08002900:    2805        .(      CMP      r0,#5
        0x08002902:    d00c        ..      BEQ      0x800291e ; mqtt_ack_list_scan + 84
        0x08002904:    2806        .(      CMP      r0,#6
        0x08002906:    d00a        ..      BEQ      0x800291e ; mqtt_ack_list_scan + 84
        0x08002908:    2807        .(      CMP      r0,#7
        0x0800290a:    d008        ..      BEQ      0x800291e ; mqtt_ack_list_scan + 84
        0x0800290c:    4638        8F      MOV      r0,r7
        0x0800290e:    f7ffff2a    ..*.    BL       mqtt_ack_handler_destroy ; 0x8002766
        0x08002912:    4620         F      MOV      r0,r4
        0x08002914:    42b0        .B      CMP      r0,r6
        0x08002916:    6804        .h      LDR      r4,[r0,#0]
        0x08002918:    d1e7        ..      BNE      0x80028ea ; mqtt_ack_list_scan + 32
        0x0800291a:    e8bd81f0    ....    POP      {r4-r8,pc}
        0x0800291e:    4639        9F      MOV      r1,r7
        0x08002920:    4628        (F      MOV      r0,r5
        0x08002922:    f7ffff2b    ..+.    BL       mqtt_ack_handler_resend ; 0x800277c
        0x08002926:    e7f4        ..      B        0x8002912 ; mqtt_ack_list_scan + 72
    i.mqtt_ack_list_unrecord
    mqtt_ack_list_unrecord
        0x08002928:    e92d47f0    -..G    PUSH     {r4-r10,lr}
        0x0800292c:    4605        .F      MOV      r5,r0
        0x0800292e:    3060        `0      ADDS     r0,r0,#0x60
        0x08002930:    469a        .F      MOV      r10,r3
        0x08002932:    4690        .F      MOV      r8,r2
        0x08002934:    4689        .F      MOV      r9,r1
        0x08002936:    4607        .F      MOV      r7,r0
        0x08002938:    f000fbb8    ....    BL       mqtt_list_is_empty ; 0x80030ac
        0x0800293c:    bb10        ..      CBNZ     r0,0x8002984 ; mqtt_ack_list_unrecord + 92
        0x0800293e:    6e28        (n      LDR      r0,[r5,#0x60]
        0x08002940:    f1050654    ..T.    ADD      r6,r5,#0x54
        0x08002944:    6804        .h      LDR      r4,[r0,#0]
        0x08002946:    e01b        ..      B        0x8002980 ; mqtt_ack_list_unrecord + 88
        0x08002948:    8a02        ..      LDRH     r2,[r0,#0x10]
        0x0800294a:    4542        BE      CMP      r2,r8
        0x0800294c:    d116        ..      BNE      0x800297c ; mqtt_ack_list_unrecord + 84
        0x0800294e:    68c2        .h      LDR      r2,[r0,#0xc]
        0x08002950:    454a        JE      CMP      r2,r9
        0x08002952:    d113        ..      BNE      0x800297c ; mqtt_ack_list_unrecord + 84
        0x08002954:    f1ba0f00    ....    CMP      r10,#0
        0x08002958:    d002        ..      BEQ      0x8002960 ; mqtt_ack_list_unrecord + 56
        0x0800295a:    6942        Bi      LDR      r2,[r0,#0x14]
        0x0800295c:    f8ca2000    ...     STR      r2,[r10,#0]
        0x08002960:    f7ffff01    ....    BL       mqtt_ack_handler_destroy ; 0x8002766
        0x08002964:    4630        0F      MOV      r0,r6
        0x08002966:    f001fc01    ....    BL       platform_mutex_lock ; 0x800416c
        0x0800296a:    6aa8        .j      LDR      r0,[r5,#0x28]
        0x0800296c:    0a01        ..      LSRS     r1,r0,#8
        0x0800296e:    d002        ..      BEQ      0x8002976 ; mqtt_ack_list_unrecord + 78
        0x08002970:    f5a07080    ...p    SUB      r0,r0,#0x100
        0x08002974:    62a8        .b      STR      r0,[r5,#0x28]
        0x08002976:    4630        0F      MOV      r0,r6
        0x08002978:    f001fbfd    ....    BL       platform_mutex_unlock ; 0x8004176
        0x0800297c:    4620         F      MOV      r0,r4
        0x0800297e:    6824        $h      LDR      r4,[r4,#0]
        0x08002980:    42b8        .B      CMP      r0,r7
        0x08002982:    d1e1        ..      BNE      0x8002948 ; mqtt_ack_list_unrecord + 32
        0x08002984:    2000        .       MOVS     r0,#0
        0x08002986:    e8bd87f0    ....    POP      {r4-r10,pc}
        0x0800298a:    0000        ..      MOVS     r0,r0
    i.mqtt_clean_session
    mqtt_clean_session
        0x0800298c:    e92d41f0    -..A    PUSH     {r4-r8,lr}
        0x08002990:    4605        .F      MOV      r5,r0
        0x08002992:    3060        `0      ADDS     r0,r0,#0x60
        0x08002994:    4606        .F      MOV      r6,r0
        0x08002996:    f000fb89    ....    BL       mqtt_list_is_empty ; 0x80030ac
        0x0800299a:    b950        P.      CBNZ     r0,0x80029b2 ; mqtt_clean_session + 38
        0x0800299c:    6e28        (n      LDR      r0,[r5,#0x60]
        0x0800299e:    e002        ..      B        0x80029a6 ; mqtt_clean_session + 26
        0x080029a0:    f001fbda    ....    BL       platform_memory_free ; 0x8004158
        0x080029a4:    4620         F      MOV      r0,r4
        0x080029a6:    42b0        .B      CMP      r0,r6
        0x080029a8:    6804        .h      LDR      r4,[r0,#0]
        0x080029aa:    d1f9        ..      BNE      0x80029a0 ; mqtt_clean_session + 20
        0x080029ac:    4630        0F      MOV      r0,r6
        0x080029ae:    f000fb73    ..s.    BL       mqtt_list_del_init ; 0x8003098
        0x080029b2:    f1050058    ..X.    ADD      r0,r5,#0x58
        0x080029b6:    4606        .F      MOV      r6,r0
        0x080029b8:    f000fb78    ..x.    BL       mqtt_list_is_empty ; 0x80030ac
        0x080029bc:    b9c0        ..      CBNZ     r0,0x80029f0 ; mqtt_clean_session + 100
        0x080029be:    6da8        .m      LDR      r0,[r5,#0x58]
        0x080029c0:    2700        .'      MOVS     r7,#0
        0x080029c2:    6804        .h      LDR      r4,[r0,#0]
        0x080029c4:    e004        ..      B        0x80029d0 ; mqtt_clean_session + 68
        0x080029c6:    60c7        .`      STR      r7,[r0,#0xc]
        0x080029c8:    f001fbc6    ....    BL       platform_memory_free ; 0x8004158
        0x080029cc:    4620         F      MOV      r0,r4
        0x080029ce:    6824        $h      LDR      r4,[r4,#0]
        0x080029d0:    42b0        .B      CMP      r0,r6
        0x080029d2:    d1f8        ..      BNE      0x80029c6 ; mqtt_clean_session + 58
        0x080029d4:    4b0a        .K      LDR      r3,[pc,#40] ; [0x8002a00] = 0x8006222
        0x080029d6:    f2402201    @.."    MOV      r2,#0x201
        0x080029da:    490a        .I      LDR      r1,[pc,#40] ; [0x8002a04] = 0x8003b94
        0x080029dc:    a00a        ..      ADR      r0,{pc}+0x2c ; 0x8002a08
        0x080029de:    f7fdfc67    ..g.    BL       __2printf ; 0x80002b0
        0x080029e2:    4808        .H      LDR      r0,[pc,#32] ; [0x8002a04] = 0x8003b94
        0x080029e4:    305c        \0      ADDS     r0,r0,#0x5c
        0x080029e6:    f7fdfc63    ..c.    BL       __2printf ; 0x80002b0
        0x080029ea:    4630        0F      MOV      r0,r6
        0x080029ec:    f000fb54    ..T.    BL       mqtt_list_del_init ; 0x8003098
        0x080029f0:    4628        (F      MOV      r0,r5
        0x080029f2:    e8bd41f0    ...A    POP      {r4-r8,lr}
        0x080029f6:    f04f31ff    O..1    MOV      r1,#0xffffffff
        0x080029fa:    f000beff    ....    B.W      mqtt_set_client_state ; 0x80037fc
    $d
        0x080029fe:    0000        ..      DCW    0
        0x08002a00:    08006222    "b..    DCD    134242850
        0x08002a04:    08003b94    .;..    DCD    134232980
        0x08002a08:    253a7325    %s:%    DCD    624587557
        0x08002a0c:    73252064    d %s    DCD    1931812964
        0x08002a10:    6d202928    () m    DCD    1830824232
        0x08002a14:    5f747471    qtt_    DCD    1601467505
        0x08002a18:    5f67736d    msg_    DCD    1600615277
        0x08002a1c:    646e6168    hand    DCD    1684955496
        0x08002a20:    5f72656c    ler_    DCD    1601332588
        0x08002a24:    7473696c    list    DCD    1953720684
        0x08002a28:    6c656420     del    DCD    1818584096
        0x08002a2c:    00657465    ete.    DCD    6648933
    $t
    i.mqtt_connect
    mqtt_connect
        0x08002a30:    f3af8000    ....    NOP.W    
    i.mqtt_connect_with_results
    mqtt_connect_with_results
        0x08002a34:    e92d47f0    -..G    PUSH     {r4-r10,lr}
        0x08002a38:    b09a        ..      SUB      sp,sp,#0x68
        0x08002a3a:    4604        .F      MOV      r4,r0
        0x08002a3c:    2000        .       MOVS     r0,#0
        0x08002a3e:    9018        ..      STR      r0,[sp,#0x60]
        0x08002a40:    f06f0603    o...    MVN      r6,#3
        0x08002a44:    2258        X"      MOVS     r2,#0x58
        0x08002a46:    4990        .I      LDR      r1,[pc,#576] ; [0x8002c88] = 0x8006298
        0x08002a48:    a802        ..      ADD      r0,sp,#8
        0x08002a4a:    f7fdfe92    ....    BL       __aeabi_memcpy4 ; 0x8000772
        0x08002a4e:    b1ac        ..      CBZ      r4,0x8002a7c ; mqtt_connect_with_results + 72
        0x08002a50:    f894004c    ..L.    LDRB     r0,[r4,#0x4c]
        0x08002a54:    2801        .(      CMP      r0,#1
        0x08002a56:    d016        ..      BEQ      0x8002a86 ; mqtt_connect_with_results + 82
        0x08002a58:    6b20         k      LDR      r0,[r4,#0x30]
        0x08002a5a:    0931        1.      LSRS     r1,r6,#4
        0x08002a5c:    f44f7200    O..r    MOV      r2,#0x200
        0x08002a60:    2802        .(      CMP      r0,#2
        0x08002a62:    d901        ..      BLS      0x8002a68 ; mqtt_connect_with_results + 52
        0x08002a64:    4288        .B      CMP      r0,r1
        0x08002a66:    d300        ..      BCC      0x8002a6a ; mqtt_connect_with_results + 54
        0x08002a68:    6322        "c      STR      r2,[r4,#0x30]
        0x08002a6a:    6b60        `k      LDR      r0,[r4,#0x34]
        0x08002a6c:    2802        .(      CMP      r0,#2
        0x08002a6e:    d901        ..      BLS      0x8002a74 ; mqtt_connect_with_results + 64
        0x08002a70:    4288        .B      CMP      r0,r1
        0x08002a72:    d300        ..      BCC      0x8002a76 ; mqtt_connect_with_results + 66
        0x08002a74:    6362        bc      STR      r2,[r4,#0x34]
        0x08002a76:    69e0        .i      LDR      r0,[r4,#0x1c]
        0x08002a78:    b138        8.      CBZ      r0,0x8002a8a ; mqtt_connect_with_results + 86
        0x08002a7a:    e00a        ..      B        0x8002a92 ; mqtt_connect_with_results + 94
        0x08002a7c:    f06f0001    o...    MVN      r0,#1
        0x08002a80:    b01a        ..      ADD      sp,sp,#0x68
        0x08002a82:    e8bd87f0    ....    POP      {r4-r10,pc}
        0x08002a86:    2000        .       MOVS     r0,#0
        0x08002a88:    e7fa        ..      B        0x8002a80 ; mqtt_connect_with_results + 76
        0x08002a8a:    6b60        `k      LDR      r0,[r4,#0x34]
        0x08002a8c:    f001fb44    ..D.    BL       platform_memory_alloc ; 0x8004118
        0x08002a90:    61e0        .a      STR      r0,[r4,#0x1c]
        0x08002a92:    6a20         j      LDR      r0,[r4,#0x20]
        0x08002a94:    b918        ..      CBNZ     r0,0x8002a9e ; mqtt_connect_with_results + 106
        0x08002a96:    6b60        `k      LDR      r0,[r4,#0x34]
        0x08002a98:    f001fb3e    ..>.    BL       platform_memory_alloc ; 0x8004118
        0x08002a9c:    6220         b      STR      r0,[r4,#0x20]
        0x08002a9e:    69e0        .i      LDR      r0,[r4,#0x1c]
        0x08002aa0:    2800        .(      CMP      r0,#0
        0x08002aa2:    d067        g.      BEQ      0x8002b74 ; mqtt_connect_with_results + 320
        0x08002aa4:    6a20         j      LDR      r0,[r4,#0x20]
        0x08002aa6:    2800        .(      CMP      r0,#0
        0x08002aa8:    d064        d.      BEQ      0x8002b74 ; mqtt_connect_with_results + 320
        0x08002aaa:    e9d41203    ....    LDRD     r1,r2,[r4,#0xc]
        0x08002aae:    2300        .#      MOVS     r3,#0
        0x08002ab0:    6ea0        .n      LDR      r0,[r4,#0x68]
        0x08002ab2:    f001fa79    ..y.    BL       network_init ; 0x8003fa8
        0x08002ab6:    6ea0        .n      LDR      r0,[r4,#0x68]
        0x08002ab8:    f001fa72    ..r.    BL       network_connect ; 0x8003fa0
        0x08002abc:    0005        ..      MOVS     r5,r0
        0x08002abe:    d1df        ..      BNE      0x8002a80 ; mqtt_connect_with_results + 76
        0x08002ac0:    4b71        qK      LDR      r3,[pc,#452] ; [0x8002c88] = 0x8006298
        0x08002ac2:    f44f7277    O.wr    MOV      r2,#0x3dc
        0x08002ac6:    3b1b        .;      SUBS     r3,r3,#0x1b
        0x08002ac8:    a170        p.      ADR      r1,{pc}+0x1c4 ; 0x8002c8c
        0x08002aca:    a07a        z.      ADR      r0,{pc}+0x1ea ; 0x8002cb4
        0x08002acc:    f7fdfbf0    ....    BL       __2printf ; 0x80002b0
        0x08002ad0:    a082        ..      ADR      r0,{pc}+0x20c ; 0x8002cdc
        0x08002ad2:    f7fdfbed    ....    BL       __2printf ; 0x80002b0
        0x08002ad6:    8ca0        ..      LDRH     r0,[r4,#0x24]
        0x08002ad8:    f8ad0020    .. .    STRH     r0,[sp,#0x20]
        0x08002adc:    f8940028    ..(.    LDRB     r0,[r4,#0x28]
        0x08002ae0:    f3c00040    ..@.    UBFX     r0,r0,#1,#1
        0x08002ae4:    f88d0022    ..".    STRB     r0,[sp,#0x22]
        0x08002ae8:    f8940028    ..(.    LDRB     r0,[r4,#0x28]
        0x08002aec:    f3c01003    ....    UBFX     r0,r0,#4,#4
        0x08002af0:    f88d0010    ....    STRB     r0,[sp,#0x10]
        0x08002af4:    6820         h      LDR      r0,[r4,#0]
        0x08002af6:    9005        ..      STR      r0,[sp,#0x14]
        0x08002af8:    6860        `h      LDR      r0,[r4,#4]
        0x08002afa:    9012        ..      STR      r0,[sp,#0x48]
        0x08002afc:    68a0        .h      LDR      r0,[r4,#8]
        0x08002afe:    9015        ..      STR      r0,[sp,#0x54]
        0x08002b00:    6aa0        .j      LDR      r0,[r4,#0x28]
        0x08002b02:    07c1        ..      LSLS     r1,r0,#31
        0x08002b04:    d011        ..      BEQ      0x8002b2a ; mqtt_connect_with_results + 246
        0x08002b06:    f0000001    ....    AND      r0,r0,#1
        0x08002b0a:    f88d0023    ..#.    STRB     r0,[sp,#0x23]
        0x08002b0e:    6ca0        .l      LDR      r0,[r4,#0x48]
        0x08002b10:    6880        .h      LDR      r0,[r0,#8]
        0x08002b12:    900e        ..      STR      r0,[sp,#0x38]
        0x08002b14:    6ca0        .l      LDR      r0,[r4,#0x48]
        0x08002b16:    7800        .x      LDRB     r0,[r0,#0]
        0x08002b18:    f88d0045    ..E.    STRB     r0,[sp,#0x45]
        0x08002b1c:    6ca0        .l      LDR      r0,[r4,#0x48]
        0x08002b1e:    7840        @x      LDRB     r0,[r0,#1]
        0x08002b20:    f88d0044    ..D.    STRB     r0,[sp,#0x44]
        0x08002b24:    6ca0        .l      LDR      r0,[r4,#0x48]
        0x08002b26:    6840        @h      LDR      r0,[r0,#4]
        0x08002b28:    900b        ..      STR      r0,[sp,#0x2c]
        0x08002b2a:    8ca1        ..      LDRH     r1,[r4,#0x24]
        0x08002b2c:    f44f707a    O.zp    MOV      r0,#0x3e8
        0x08002b30:    4341        AC      MULS     r1,r0,r1
        0x08002b32:    f1040078    ..x.    ADD      r0,r4,#0x78
        0x08002b36:    f001fc33    ..3.    BL       platform_timer_cutdown ; 0x80043a0
        0x08002b3a:    f1040050    ..P.    ADD      r0,r4,#0x50
        0x08002b3e:    4682        .F      MOV      r10,r0
        0x08002b40:    f001fb14    ....    BL       platform_mutex_lock ; 0x800416c
        0x08002b44:    aa02        ..      ADD      r2,sp,#8
        0x08002b46:    6b61        ak      LDR      r1,[r4,#0x34]
        0x08002b48:    6a20         j      LDR      r0,[r4,#0x20]
        0x08002b4a:    f7fff933    ..3.    BL       MQTTSerialize_connect ; 0x8001db4
        0x08002b4e:    1e07        ..      SUBS     r7,r0,#0
        0x08002b50:    f44f6980    O..i    MOV      r9,#0x400
        0x08002b54:    dd75        u.      BLE      0x8002c42 ; mqtt_connect_with_results + 526
        0x08002b56:    a819        ..      ADD      r0,sp,#0x64
        0x08002b58:    f001fc2a    ..*.    BL       platform_timer_init ; 0x80043b0
        0x08002b5c:    a819        ..      ADD      r0,sp,#0x64
        0x08002b5e:    6ae1        .j      LDR      r1,[r4,#0x2c]
        0x08002b60:    f001fc1e    ....    BL       platform_timer_cutdown ; 0x80043a0
        0x08002b64:    aa19        ..      ADD      r2,sp,#0x64
        0x08002b66:    4639        9F      MOV      r1,r7
        0x08002b68:    4620         F      MOV      r0,r4
        0x08002b6a:    f000fd9d    ....    BL       mqtt_send_packet ; 0x80036a8
        0x08002b6e:    0005        ..      MOVS     r5,r0
        0x08002b70:    d15d        ].      BNE      0x8002c2e ; mqtt_connect_with_results + 506
        0x08002b72:    e00d        ..      B        0x8002b90 ; mqtt_connect_with_results + 348
        0x08002b74:    4b44        DK      LDR      r3,[pc,#272] ; [0x8002c88] = 0x8006298
        0x08002b76:    f24032c5    @..2    MOV      r2,#0x3c5
        0x08002b7a:    3b1b        .;      SUBS     r3,r3,#0x1b
        0x08002b7c:    a143        C.      ADR      r1,{pc}+0x110 ; 0x8002c8c
        0x08002b7e:    a058        X.      ADR      r0,{pc}+0x162 ; 0x8002ce0
        0x08002b80:    f7fdfb96    ....    BL       __2printf ; 0x80002b0
        0x08002b84:    a055        U.      ADR      r0,{pc}+0x158 ; 0x8002cdc
        0x08002b86:    f7fdfb93    ....    BL       __2printf ; 0x80002b0
        0x08002b8a:    f06f0002    o...    MVN      r0,#2
        0x08002b8e:    e777        w.      B        0x8002a80 ; mqtt_connect_with_results + 76
        0x08002b90:    2702        .'      MOVS     r7,#2
        0x08002b92:    f10d0864    ..d.    ADD      r8,sp,#0x64
        0x08002b96:    1efd        ..      SUBS     r5,r7,#3
        0x08002b98:    4640        @F      MOV      r0,r8
        0x08002b9a:    f001fc0c    ....    BL       platform_timer_is_expired ; 0x80043b6
        0x08002b9e:    b940        @.      CBNZ     r0,0x8002bb2 ; mqtt_connect_with_results + 382
        0x08002ba0:    4641        AF      MOV      r1,r8
        0x08002ba2:    4620         F      MOV      r0,r4
        0x08002ba4:    f000faf7    ....    BL       mqtt_packet_handle ; 0x8003196
        0x08002ba8:    4605        .F      MOV      r5,r0
        0x08002baa:    42b8        .B      CMP      r0,r7
        0x08002bac:    d010        ..      BEQ      0x8002bd0 ; mqtt_connect_with_results + 412
        0x08002bae:    2d00        .-      CMP      r5,#0
        0x08002bb0:    daf2        ..      BGE      0x8002b98 ; mqtt_connect_with_results + 356
        0x08002bb2:    2d02        .-      CMP      r5,#2
        0x08002bb4:    d00c        ..      BEQ      0x8002bd0 ; mqtt_connect_with_results + 412
        0x08002bb6:    4b34        4K      LDR      r3,[pc,#208] ; [0x8002c88] = 0x8006298
        0x08002bb8:    f2404207    @..B    MOV      r2,#0x407
        0x08002bbc:    3b1b        .;      SUBS     r3,r3,#0x1b
        0x08002bbe:    a133        3.      ADR      r1,{pc}+0xce ; 0x8002c8c
        0x08002bc0:    a050        P.      ADR      r0,{pc}+0x144 ; 0x8002d04
        0x08002bc2:    f7fdfb75    ..u.    BL       __2printf ; 0x80002b0
        0x08002bc6:    a045        E.      ADR      r0,{pc}+0x116 ; 0x8002cdc
        0x08002bc8:    f7fdfb72    ..r.    BL       __2printf ; 0x80002b0
        0x08002bcc:    4635        5F      MOV      r5,r6
        0x08002bce:    e02e        ..      B        0x8002c2e ; mqtt_connect_with_results + 506
        0x08002bd0:    4b2d        -K      LDR      r3,[pc,#180] ; [0x8002c88] = 0x8006298
        0x08002bd2:    f24032fd    @..2    MOV      r2,#0x3fd
        0x08002bd6:    3b1b        .;      SUBS     r3,r3,#0x1b
        0x08002bd8:    a12c        ,.      ADR      r1,{pc}+0xb4 ; 0x8002c8c
        0x08002bda:    a052        R.      ADR      r0,{pc}+0x14a ; 0x8002d24
        0x08002bdc:    f7fdfb68    ..h.    BL       __2printf ; 0x80002b0
        0x08002be0:    a03e        >.      ADR      r0,{pc}+0xfc ; 0x8002cdc
        0x08002be2:    f7fdfb65    ..e.    BL       __2printf ; 0x80002b0
        0x08002be6:    a918        ..      ADD      r1,sp,#0x60
        0x08002be8:    1c48        H.      ADDS     r0,r1,#1
        0x08002bea:    6b23        #k      LDR      r3,[r4,#0x30]
        0x08002bec:    69e2        .i      LDR      r2,[r4,#0x1c]
        0x08002bee:    f7feff8f    ....    BL       MQTTDeserialize_connack ; 0x8001b10
        0x08002bf2:    2801        .(      CMP      r0,#1
        0x08002bf4:    d00d        ..      BEQ      0x8002c12 ; mqtt_connect_with_results + 478
        0x08002bf6:    4b24        $K      LDR      r3,[pc,#144] ; [0x8002c88] = 0x8006298
        0x08002bf8:    4635        5F      MOV      r5,r6
        0x08002bfa:    3b1b        .;      SUBS     r3,r3,#0x1b
        0x08002bfc:    f2404204    @..B    MOV      r2,#0x404
        0x08002c00:    a122        ".      ADR      r1,{pc}+0x8c ; 0x8002c8c
        0x08002c02:    a04e        N.      ADR      r0,{pc}+0x13a ; 0x8002d3c
        0x08002c04:    9600        ..      STR      r6,[sp,#0]
        0x08002c06:    f7fdfb53    ..S.    BL       __2printf ; 0x80002b0
        0x08002c0a:    a034        4.      ADR      r0,{pc}+0xd2 ; 0x8002cdc
        0x08002c0c:    f7fdfb50    ..P.    BL       __2printf ; 0x80002b0
        0x08002c10:    e00d        ..      B        0x8002c2e ; mqtt_connect_with_results + 506
        0x08002c12:    4b1d        .K      LDR      r3,[pc,#116] ; [0x8002c88] = 0x8006298
        0x08002c14:    f89d5060    ..`P    LDRB     r5,[sp,#0x60]
        0x08002c18:    3b1b        .;      SUBS     r3,r3,#0x1b
        0x08002c1a:    464a        JF      MOV      r2,r9
        0x08002c1c:    a11b        ..      ADR      r1,{pc}+0x70 ; 0x8002c8c
        0x08002c1e:    a047        G.      ADR      r0,{pc}+0x11e ; 0x8002d3c
        0x08002c20:    9500        ..      STR      r5,[sp,#0]
        0x08002c22:    f7fdfb45    ..E.    BL       __2printf ; 0x80002b0
        0x08002c26:    a02d        -.      ADR      r0,{pc}+0xb6 ; 0x8002cdc
        0x08002c28:    f7fdfb42    ..B.    BL       __2printf ; 0x80002b0
        0x08002c2c:    b145        E.      CBZ      r5,0x8002c40 ; mqtt_connect_with_results + 524
        0x08002c2e:    2100        .!      MOVS     r1,#0
        0x08002c30:    4620         F      MOV      r0,r4
        0x08002c32:    f000fde3    ....    BL       mqtt_set_client_state ; 0x80037fc
        0x08002c36:    4650        PF      MOV      r0,r10
        0x08002c38:    f001fa9d    ....    BL       platform_mutex_unlock ; 0x8004176
        0x08002c3c:    4628        (F      MOV      r0,r5
        0x08002c3e:    e71f        ..      B        0x8002a80 ; mqtt_connect_with_results + 76
        0x08002c40:    e7ff        ..      B        0x8002c42 ; mqtt_connect_with_results + 526
        0x08002c42:    6ee0        .n      LDR      r0,[r4,#0x6c]
        0x08002c44:    b140        @.      CBZ      r0,0x8002c58 ; mqtt_connect_with_results + 548
        0x08002c46:    2101        .!      MOVS     r1,#1
        0x08002c48:    4620         F      MOV      r0,r4
        0x08002c4a:    f000fdd7    ....    BL       mqtt_set_client_state ; 0x80037fc
        0x08002c4e:    6aa0        .j      LDR      r0,[r4,#0x28]
        0x08002c50:    f020000c     ...    BIC      r0,r0,#0xc
        0x08002c54:    62a0        .b      STR      r0,[r4,#0x28]
        0x08002c56:    e7ee        ..      B        0x8002c36 ; mqtt_connect_with_results + 514
        0x08002c58:    2132        2!      MOVS     r1,#0x32
        0x08002c5a:    2005        .       MOVS     r0,#5
        0x08002c5c:    e9cd0100    ....    STRD     r0,r1,[sp,#0]
        0x08002c60:    464b        KF      MOV      r3,r9
        0x08002c62:    4622        "F      MOV      r2,r4
        0x08002c64:    493c        <I      LDR      r1,[pc,#240] ; [0x8002d58] = 0x8003e31
        0x08002c66:    a03d        =.      ADR      r0,{pc}+0xf6 ; 0x8002d5c
        0x08002c68:    f001fb77    ..w.    BL       platform_thread_init ; 0x800435a
        0x08002c6c:    66e0        .f      STR      r0,[r4,#0x6c]
        0x08002c6e:    2800        .(      CMP      r0,#0
        0x08002c70:    d0ed        ..      BEQ      0x8002c4e ; mqtt_connect_with_results + 538
        0x08002c72:    2101        .!      MOVS     r1,#1
        0x08002c74:    4620         F      MOV      r0,r4
        0x08002c76:    f000fdc1    ....    BL       mqtt_set_client_state ; 0x80037fc
        0x08002c7a:    6ee0        .n      LDR      r0,[r4,#0x6c]
        0x08002c7c:    f001fb8c    ....    BL       platform_thread_startup ; 0x8004398
        0x08002c80:    6ee0        .n      LDR      r0,[r4,#0x6c]
        0x08002c82:    f001fb86    ....    BL       platform_thread_start ; 0x8004392
        0x08002c86:    e7e2        ..      B        0x8002c4e ; mqtt_connect_with_results + 538
    $d
        0x08002c88:    08006298    .b..    DCD    134242968
        0x08002c8c:    6d5c2e2e    ..\m    DCD    1834757678
        0x08002c90:    63747471    qttc    DCD    1668576369
        0x08002c94:    6e65696c    lien    DCD    1852139884
        0x08002c98:    716d5c74    t\mq    DCD    1902992500
        0x08002c9c:    6c637474    ttcl    DCD    1818457204
        0x08002ca0:    746e6569    ient    DCD    1953391977
        0x08002ca4:    74716d5c    \mqt    DCD    1953590620
        0x08002ca8:    696c6374    tcli    DCD    1768711028
        0x08002cac:    2e746e65    ent.    DCD    779382373
        0x08002cb0:    00000063    c...    DCD    99
        0x08002cb4:    253a7325    %s:%    DCD    624587557
        0x08002cb8:    73252064    d %s    DCD    1931812964
        0x08002cbc:    2e2e2928    ()..    DCD    774777128
        0x08002cc0:    716d202e    . mq    DCD    1902977070
        0x08002cc4:    63207474    tt c    DCD    1663071348
        0x08002cc8:    656e6e6f    onne    DCD    1701736047
        0x08002ccc:    73207463    ct s    DCD    1931506787
        0x08002cd0:    65636375    ucce    DCD    1701012341
        0x08002cd4:    2e2e7373    ss..    DCD    774796147
        0x08002cd8:    0000002e    ....    DCD    46
        0x08002cdc:    00000a0d    ....    DCD    2573
        0x08002ce0:    253a7325    %s:%    DCD    624587557
        0x08002ce4:    73252064    d %s    DCD    1931812964
        0x08002ce8:    2e2e2928    ()..    DCD    774777128
        0x08002cec:    616d202e    . ma    DCD    1634541614
        0x08002cf0:    636f6c6c    lloc    DCD    1668246636
        0x08002cf4:    66756220     buf    DCD    1718968864
        0x08002cf8:    69616620     fai    DCD    1767990816
        0x08002cfc:    2e64656c    led.    DCD    778331500
        0x08002d00:    00002e2e    ....    DCD    11822
        0x08002d04:    253a7325    %s:%    DCD    624587557
        0x08002d08:    73252064    d %s    DCD    1931812964
        0x08002d0c:    63202928    () c    DCD    1663052072
        0x08002d10:    6f6e6e61    anno    DCD    1869508193
        0x08002d14:    65672074    t ge    DCD    1701257332
        0x08002d18:    4f432074    t CO    DCD    1329799284
        0x08002d1c:    43414e4e    NNAC    DCD    1128353358
        0x08002d20:    0000004b    K...    DCD    75
        0x08002d24:    253a7325    %s:%    DCD    624587557
        0x08002d28:    73252064    d %s    DCD    1931812964
        0x08002d2c:    67202928    () g    DCD    1730160936
        0x08002d30:    43207465    et C    DCD    1126200421
        0x08002d34:    414e4e4f    ONNA    DCD    1095650895
        0x08002d38:    00004b43    CK..    DCD    19267
        0x08002d3c:    253a7325    %s:%    DCD    624587557
        0x08002d40:    73252064    d %s    DCD    1931812964
        0x08002d44:    43202928    () C    DCD    1126181160
        0x08002d48:    414e4e4f    ONNA    DCD    1095650895
        0x08002d4c:    72204b43    CK r    DCD    1914719043
        0x08002d50:    203d2063    c =     DCD    540876899
        0x08002d54:    00006425    %d..    DCD    25637
        0x08002d58:    08003e31    1>..    DCD    134233649
        0x08002d5c:    7474716d    mqtt    DCD    1953788269
        0x08002d60:    6569795f    _yie    DCD    1701411167
        0x08002d64:    745f646c    ld_t    DCD    1952408684
        0x08002d68:    61657268    hrea    DCD    1634038376
        0x08002d6c:    00000064    d...    DCD    100
    $t
    i.mqtt_deliver_message
    mqtt_deliver_message
        0x08002d70:    e92d41f0    -..A    PUSH     {r4-r8,lr}
        0x08002d74:    b092        ..      SUB      sp,sp,#0x48
        0x08002d76:    4616        .F      MOV      r6,r2
        0x08002d78:    4688        .F      MOV      r8,r1
        0x08002d7a:    4607        .F      MOV      r7,r0
        0x08002d7c:    f04f35ff    O..5    MOV      r5,#0xffffffff
        0x08002d80:    f000f826    ..&.    BL       mqtt_get_msg_handler ; 0x8002dd0
        0x08002d84:    0004        ..      MOVS     r4,r0
        0x08002d86:    d006        ..      BEQ      0x8002d96 ; mqtt_deliver_message + 38
        0x08002d88:    4632        2F      MOV      r2,r6
        0x08002d8a:    4641        AF      MOV      r1,r8
        0x08002d8c:    4668        hF      MOV      r0,sp
        0x08002d8e:    f000f9f3    ....    BL       mqtt_new_message_data ; 0x8003178
        0x08002d92:    6922        "i      LDR      r2,[r4,#0x10]
        0x08002d94:    e009        ..      B        0x8002daa ; mqtt_deliver_message + 58
        0x08002d96:    f8d70080    ....    LDR      r0,[r7,#0x80]
        0x08002d9a:    b150        P.      CBZ      r0,0x8002db2 ; mqtt_deliver_message + 66
        0x08002d9c:    4632        2F      MOV      r2,r6
        0x08002d9e:    4641        AF      MOV      r1,r8
        0x08002da0:    4668        hF      MOV      r0,sp
        0x08002da2:    f000f9e9    ....    BL       mqtt_new_message_data ; 0x8003178
        0x08002da6:    f8d72080    ...     LDR      r2,[r7,#0x80]
        0x08002daa:    4669        iF      MOV      r1,sp
        0x08002dac:    4638        8F      MOV      r0,r7
        0x08002dae:    4790        .G      BLX      r2
        0x08002db0:    2500        .%      MOVS     r5,#0
        0x08002db2:    68f0        .h      LDR      r0,[r6,#0xc]
        0x08002db4:    f7fdfc22    ..".    BL       strlen ; 0x80005fc
        0x08002db8:    4601        .F      MOV      r1,r0
        0x08002dba:    68f0        .h      LDR      r0,[r6,#0xc]
        0x08002dbc:    f7fdfd13    ....    BL       __aeabi_memclr ; 0x80007e6
        0x08002dc0:    e9d81001    ....    LDRD     r1,r0,[r8,#4]
        0x08002dc4:    f7fdfd0f    ....    BL       __aeabi_memclr ; 0x80007e6
        0x08002dc8:    b012        ..      ADD      sp,sp,#0x48
        0x08002dca:    4628        (F      MOV      r0,r5
        0x08002dcc:    e8bd81f0    ....    POP      {r4-r8,pc}
    i.mqtt_get_msg_handler
    mqtt_get_msg_handler
        0x08002dd0:    e92d41f0    -..A    PUSH     {r4-r8,lr}
        0x08002dd4:    6d84        .m      LDR      r4,[r0,#0x58]
        0x08002dd6:    460f        .F      MOV      r7,r1
        0x08002dd8:    f1000658    ..X.    ADD      r6,r0,#0x58
        0x08002ddc:    6825        %h      LDR      r5,[r4,#0]
        0x08002dde:    e036        6.      B        0x8002e4e ; mqtt_get_msg_handler + 126
        0x08002de0:    68e1        .h      LDR      r1,[r4,#0xc]
        0x08002de2:    b391        ..      CBZ      r1,0x8002e4a ; mqtt_get_msg_handler + 122
        0x08002de4:    4638        8F      MOV      r0,r7
        0x08002de6:    f7feff92    ....    BL       MQTTPacket_equals ; 0x8001d0e
        0x08002dea:    bba8        ..      CBNZ     r0,0x8002e58 ; mqtt_get_msg_handler + 136
        0x08002dec:    e9d71001    ....    LDRD     r1,r0,[r7,#4]
        0x08002df0:    4401        .D      ADD      r1,r1,r0
        0x08002df2:    68e2        .h      LDR      r2,[r4,#0xc]
        0x08002df4:    e020         .      B        0x8002e38 ; mqtt_get_msg_handler + 104
        0x08002df6:    bf00        ..      NOP      
        0x08002df8:    f890c000    ....    LDRB     r12,[r0,#0]
        0x08002dfc:    f1bc0f2f    ../.    CMP      r12,#0x2f
        0x08002e00:    d00a        ..      BEQ      0x8002e18 ; mqtt_get_msg_handler + 72
        0x08002e02:    2b2b        ++      CMP      r3,#0x2b
        0x08002e04:    d00b        ..      BEQ      0x8002e1e ; mqtt_get_msg_handler + 78
        0x08002e06:    2b23        #+      CMP      r3,#0x23
        0x08002e08:    d013        ..      BEQ      0x8002e32 ; mqtt_get_msg_handler + 98
        0x08002e0a:    4563        cE      CMP      r3,r12
        0x08002e0c:    d118        ..      BNE      0x8002e40 ; mqtt_get_msg_handler + 112
        0x08002e0e:    2b2b        ++      CMP      r3,#0x2b
        0x08002e10:    d005        ..      BEQ      0x8002e1e ; mqtt_get_msg_handler + 78
        0x08002e12:    2b23        #+      CMP      r3,#0x23
        0x08002e14:    d00d        ..      BEQ      0x8002e32 ; mqtt_get_msg_handler + 98
        0x08002e16:    e00d        ..      B        0x8002e34 ; mqtt_get_msg_handler + 100
        0x08002e18:    2b2f        /+      CMP      r3,#0x2f
        0x08002e1a:    d111        ..      BNE      0x8002e40 ; mqtt_get_msg_handler + 112
        0x08002e1c:    e00a        ..      B        0x8002e34 ; mqtt_get_msg_handler + 100
        0x08002e1e:    1c43        C.      ADDS     r3,r0,#1
        0x08002e20:    e001        ..      B        0x8002e26 ; mqtt_get_msg_handler + 86
        0x08002e22:    1c83        ..      ADDS     r3,r0,#2
        0x08002e24:    1c40        @.      ADDS     r0,r0,#1
        0x08002e26:    428b        .B      CMP      r3,r1
        0x08002e28:    d204        ..      BCS      0x8002e34 ; mqtt_get_msg_handler + 100
        0x08002e2a:    781b        .x      LDRB     r3,[r3,#0]
        0x08002e2c:    2b2f        /+      CMP      r3,#0x2f
        0x08002e2e:    d1f8        ..      BNE      0x8002e22 ; mqtt_get_msg_handler + 82
        0x08002e30:    e000        ..      B        0x8002e34 ; mqtt_get_msg_handler + 100
        0x08002e32:    1e48        H.      SUBS     r0,r1,#1
        0x08002e34:    1c40        @.      ADDS     r0,r0,#1
        0x08002e36:    1c52        R.      ADDS     r2,r2,#1
        0x08002e38:    7813        .x      LDRB     r3,[r2,#0]
        0x08002e3a:    b10b        ..      CBZ      r3,0x8002e40 ; mqtt_get_msg_handler + 112
        0x08002e3c:    4288        .B      CMP      r0,r1
        0x08002e3e:    d3db        ..      BCC      0x8002df8 ; mqtt_get_msg_handler + 40
        0x08002e40:    4288        .B      CMP      r0,r1
        0x08002e42:    d102        ..      BNE      0x8002e4a ; mqtt_get_msg_handler + 122
        0x08002e44:    f0130fff    ....    TST      r3,#0xff
        0x08002e48:    d007        ..      BEQ      0x8002e5a ; mqtt_get_msg_handler + 138
        0x08002e4a:    462c        ,F      MOV      r4,r5
        0x08002e4c:    682d        -h      LDR      r5,[r5,#0]
        0x08002e4e:    42b4        .B      CMP      r4,r6
        0x08002e50:    d1c6        ..      BNE      0x8002de0 ; mqtt_get_msg_handler + 16
        0x08002e52:    2000        .       MOVS     r0,#0
        0x08002e54:    e8bd81f0    ....    POP      {r4-r8,pc}
        0x08002e58:    e7ff        ..      B        0x8002e5a ; mqtt_get_msg_handler + 138
        0x08002e5a:    4620         F      MOV      r0,r4
        0x08002e5c:    e7fa        ..      B        0x8002e54 ; mqtt_get_msg_handler + 132
    i.mqtt_get_next_packet_id
    mqtt_get_next_packet_id
        0x08002e5e:    b570        p.      PUSH     {r4-r6,lr}
        0x08002e60:    4604        .F      MOV      r4,r0
        0x08002e62:    3054        T0      ADDS     r0,r0,#0x54
        0x08002e64:    4605        .F      MOV      r5,r0
        0x08002e66:    f001f981    ....    BL       platform_mutex_lock ; 0x800416c
        0x08002e6a:    8ce0        ..      LDRH     r0,[r4,#0x26]
        0x08002e6c:    f5a0417f    ...A    SUB      r1,r0,#0xff00
        0x08002e70:    39fe        .9      SUBS     r1,r1,#0xfe
        0x08002e72:    d006        ..      BEQ      0x8002e82 ; mqtt_get_next_packet_id + 36
        0x08002e74:    1c40        @.      ADDS     r0,r0,#1
        0x08002e76:    84e0        ..      STRH     r0,[r4,#0x26]
        0x08002e78:    4628        (F      MOV      r0,r5
        0x08002e7a:    f001f97c    ..|.    BL       platform_mutex_unlock ; 0x8004176
        0x08002e7e:    8ce0        ..      LDRH     r0,[r4,#0x26]
        0x08002e80:    bd70        p.      POP      {r4-r6,pc}
        0x08002e82:    2001        .       MOVS     r0,#1
        0x08002e84:    e7f7        ..      B        0x8002e76 ; mqtt_get_next_packet_id + 24
        0x08002e86:    0000        ..      MOVS     r0,r0
    i.mqtt_init
    mqtt_init
        0x08002e88:    b510        ..      PUSH     {r4,lr}
        0x08002e8a:    4604        .F      MOV      r4,r0
        0x08002e8c:    200c        .       MOVS     r0,#0xc
        0x08002e8e:    f001f943    ..C.    BL       platform_memory_alloc ; 0x8004118
        0x08002e92:    66a0        .f      STR      r0,[r4,#0x68]
        0x08002e94:    1e01        ..      SUBS     r1,r0,#0
        0x08002e96:    d039        9.      BEQ      0x8002f0c ; mqtt_init + 132
        0x08002e98:    2000        .       MOVS     r0,#0
        0x08002e9a:    6008        .`      STR      r0,[r1,#0]
        0x08002e9c:    6048        H`      STR      r0,[r1,#4]
        0x08002e9e:    6088        .`      STR      r0,[r1,#8]
        0x08002ea0:    2101        .!      MOVS     r1,#1
        0x08002ea2:    84e1        ..      STRH     r1,[r4,#0x26]
        0x08002ea4:    f8941028    ..(.    LDRB     r1,[r4,#0x28]
        0x08002ea8:    f44f627a    O.zb    MOV      r2,#0xfa0
        0x08002eac:    62e2        .b      STR      r2,[r4,#0x2c]
        0x08002eae:    f884004c    ..L.    STRB     r0,[r4,#0x4c]
        0x08002eb2:    63e0        .c      STR      r0,[r4,#0x3c]
        0x08002eb4:    6420         d      STR      r0,[r4,#0x40]
        0x08002eb6:    2214        ."      MOVS     r2,#0x14
        0x08002eb8:    6460        `d      STR      r0,[r4,#0x44]
        0x08002eba:    84a2        ..      STRH     r2,[r4,#0x24]
        0x08002ebc:    2140        @!      MOVS     r1,#0x40
        0x08002ebe:    62a1        .b      STR      r1,[r4,#0x28]
        0x08002ec0:    64a0        .d      STR      r0,[r4,#0x48]
        0x08002ec2:    61a0        .a      STR      r0,[r4,#0x18]
        0x08002ec4:    f44f717a    O.zq    MOV      r1,#0x3e8
        0x08002ec8:    67e0        .g      STR      r0,[r4,#0x7c]
        0x08002eca:    63a1        .c      STR      r1,[r4,#0x38]
        0x08002ecc:    f8c40080    ....    STR      r0,[r4,#0x80]
        0x08002ed0:    f1040058    ..X.    ADD      r0,r4,#0x58
        0x08002ed4:    f000f8e7    ....    BL       mqtt_list_init ; 0x80030a6
        0x08002ed8:    f1040060    ..`.    ADD      r0,r4,#0x60
        0x08002edc:    f000f8e3    ....    BL       mqtt_list_init ; 0x80030a6
        0x08002ee0:    f1040050    ..P.    ADD      r0,r4,#0x50
        0x08002ee4:    f001f93a    ..:.    BL       platform_mutex_init ; 0x800415c
        0x08002ee8:    f1040054    ..T.    ADD      r0,r4,#0x54
        0x08002eec:    f001f936    ..6.    BL       platform_mutex_init ; 0x800415c
        0x08002ef0:    f1040070    ..p.    ADD      r0,r4,#0x70
        0x08002ef4:    f001fa5c    ..\.    BL       platform_timer_init ; 0x80043b0
        0x08002ef8:    f1040074    ..t.    ADD      r0,r4,#0x74
        0x08002efc:    f001fa58    ..X.    BL       platform_timer_init ; 0x80043b0
        0x08002f00:    f1040078    ..x.    ADD      r0,r4,#0x78
        0x08002f04:    f001fa54    ..T.    BL       platform_timer_init ; 0x80043b0
        0x08002f08:    2000        .       MOVS     r0,#0
        0x08002f0a:    bd10        ..      POP      {r4,pc}
        0x08002f0c:    4b06        .K      LDR      r3,[pc,#24] ; [0x8002f28] = 0x80062f0
        0x08002f0e:    f240422c    @.,B    MOV      r2,#0x42c
        0x08002f12:    a106        ..      ADR      r1,{pc}+0x1a ; 0x8002f2c
        0x08002f14:    a00f        ..      ADR      r0,{pc}+0x40 ; 0x8002f54
        0x08002f16:    f7fdf9cb    ....    BL       __2printf ; 0x80002b0
        0x08002f1a:    a018        ..      ADR      r0,{pc}+0x62 ; 0x8002f7c
        0x08002f1c:    f7fdf9c8    ....    BL       __2printf ; 0x80002b0
        0x08002f20:    f06f0002    o...    MVN      r0,#2
        0x08002f24:    bd10        ..      POP      {r4,pc}
    $d
        0x08002f26:    0000        ..      DCW    0
        0x08002f28:    080062f0    .b..    DCD    134243056
        0x08002f2c:    6d5c2e2e    ..\m    DCD    1834757678
        0x08002f30:    63747471    qttc    DCD    1668576369
        0x08002f34:    6e65696c    lien    DCD    1852139884
        0x08002f38:    716d5c74    t\mq    DCD    1902992500
        0x08002f3c:    6c637474    ttcl    DCD    1818457204
        0x08002f40:    746e6569    ient    DCD    1953391977
        0x08002f44:    74716d5c    \mqt    DCD    1953590620
        0x08002f48:    696c6374    tcli    DCD    1768711028
        0x08002f4c:    2e746e65    ent.    DCD    779382373
        0x08002f50:    00000063    c...    DCD    99
        0x08002f54:    253a7325    %s:%    DCD    624587557
        0x08002f58:    73252064    d %s    DCD    1931812964
        0x08002f5c:    2e2e2928    ()..    DCD    774777128
        0x08002f60:    616d202e    . ma    DCD    1634541614
        0x08002f64:    636f6c6c    lloc    DCD    1668246636
        0x08002f68:    6d656d20     mem    DCD    1835363616
        0x08002f6c:    2079726f    ory     DCD    544830063
        0x08002f70:    6c696166    fail    DCD    1818845542
        0x08002f74:    2e2e6465    ed..    DCD    774792293
        0x08002f78:    0000002e    ....    DCD    46
        0x08002f7c:    00000a0d    ....    DCD    2573
    $t
    i.mqtt_is_connected
    mqtt_is_connected
        0x08002f80:    f990004c    ..L.    LDRSB    r0,[r0,#0x4c]
        0x08002f84:    2803        .(      CMP      r0,#3
        0x08002f86:    d004        ..      BEQ      0x8002f92 ; mqtt_is_connected + 18
        0x08002f88:    2801        .(      CMP      r0,#1
        0x08002f8a:    d005        ..      BEQ      0x8002f98 ; mqtt_is_connected + 24
        0x08002f8c:    f06f000d    o...    MVN      r0,#0xd
        0x08002f90:    4770        pG      BX       lr
        0x08002f92:    f06f0017    o...    MVN      r0,#0x17
        0x08002f96:    4770        pG      BX       lr
        0x08002f98:    2000        .       MOVS     r0,#0
        0x08002f9a:    4770        pG      BX       lr
    i.mqtt_keep_alive
    mqtt_keep_alive
        0x08002f9c:    b538        8.      PUSH     {r3-r5,lr}
        0x08002f9e:    4604        .F      MOV      r4,r0
        0x08002fa0:    f7ffffee    ....    BL       mqtt_is_connected ; 0x8002f80
        0x08002fa4:    0005        ..      MOVS     r5,r0
        0x08002fa6:    d134        4.      BNE      0x8003012 ; mqtt_keep_alive + 118
        0x08002fa8:    f1040074    ..t.    ADD      r0,r4,#0x74
        0x08002fac:    f001fa03    ....    BL       platform_timer_is_expired ; 0x80043b6
        0x08002fb0:    b928        (.      CBNZ     r0,0x8002fbe ; mqtt_keep_alive + 34
        0x08002fb2:    f1040078    ..x.    ADD      r0,r4,#0x78
        0x08002fb6:    f001f9fe    ....    BL       platform_timer_is_expired ; 0x80043b6
        0x08002fba:    2800        .(      CMP      r0,#0
        0x08002fbc:    d028        (.      BEQ      0x8003010 ; mqtt_keep_alive + 116
        0x08002fbe:    f8940028    ..(.    LDRB     r0,[r4,#0x28]
        0x08002fc2:    f0100f0c    ....    TST      r0,#0xc
        0x08002fc6:    d010        ..      BEQ      0x8002fea ; mqtt_keep_alive + 78
        0x08002fc8:    4b12        .K      LDR      r3,[pc,#72] ; [0x8003014] = 0x8006466
        0x08002fca:    f2404275    @.uB    MOV      r2,#0x475
        0x08002fce:    a112        ..      ADR      r1,{pc}+0x4a ; 0x8003018
        0x08002fd0:    a01b        ..      ADR      r0,{pc}+0x70 ; 0x8003040
        0x08002fd2:    f7fdf96d    ..m.    BL       __2printf ; 0x80002b0
        0x08002fd6:    a022        ".      ADR      r0,{pc}+0x8a ; 0x8003060
        0x08002fd8:    f7fdf96a    ..j.    BL       __2printf ; 0x80002b0
        0x08002fdc:    2102        .!      MOVS     r1,#2
        0x08002fde:    4620         F      MOV      r0,r4
        0x08002fe0:    f000fc0c    ....    BL       mqtt_set_client_state ; 0x80037fc
        0x08002fe4:    f06f050d    o...    MVN      r5,#0xd
        0x08002fe8:    e012        ..      B        0x8003010 ; mqtt_keep_alive + 116
        0x08002fea:    6b61        ak      LDR      r1,[r4,#0x34]
        0x08002fec:    6a20         j      LDR      r0,[r4,#0x20]
        0x08002fee:    f7feffa8    ....    BL       MQTTSerialize_pingreq ; 0x8001f42
        0x08002ff2:    1e01        ..      SUBS     r1,r0,#0
        0x08002ff4:    dd04        ..      BLE      0x8003000 ; mqtt_keep_alive + 100
        0x08002ff6:    466a        jF      MOV      r2,sp
        0x08002ff8:    4620         F      MOV      r0,r4
        0x08002ffa:    f000fb55    ..U.    BL       mqtt_send_packet ; 0x80036a8
        0x08002ffe:    4605        .F      MOV      r5,r0
        0x08003000:    6aa0        .j      LDR      r0,[r4,#0x28]
        0x08003002:    f04f4180    O..A    MOV      r1,#0x40000000
        0x08003006:    eb011030    ..0.    ADD      r0,r1,r0,ROR #4
        0x0800300a:    ea4f7030    O.0p    ROR      r0,r0,#28
        0x0800300e:    62a0        .b      STR      r0,[r4,#0x28]
        0x08003010:    4628        (F      MOV      r0,r5
        0x08003012:    bd38        8.      POP      {r3-r5,pc}
    $d
        0x08003014:    08006466    fd..    DCD    134243430
        0x08003018:    6d5c2e2e    ..\m    DCD    1834757678
        0x0800301c:    63747471    qttc    DCD    1668576369
        0x08003020:    6e65696c    lien    DCD    1852139884
        0x08003024:    716d5c74    t\mq    DCD    1902992500
        0x08003028:    6c637474    ttcl    DCD    1818457204
        0x0800302c:    746e6569    ient    DCD    1953391977
        0x08003030:    74716d5c    \mqt    DCD    1953590620
        0x08003034:    696c6374    tcli    DCD    1768711028
        0x08003038:    2e746e65    ent.    DCD    779382373
        0x0800303c:    00000063    c...    DCD    99
        0x08003040:    253a7325    %s:%    DCD    624587557
        0x08003044:    73252064    d %s    DCD    1931812964
        0x08003048:    2e2e2928    ()..    DCD    774777128
        0x0800304c:    6970202e    . pi    DCD    1768955950
        0x08003050:    6f20676e    ng o    DCD    1864394606
        0x08003054:    74737475    utst    DCD    1953723509
        0x08003058:    69646e61    andi    DCD    1768189537
        0x0800305c:    0000676e    ng..    DCD    26478
        0x08003060:    00000a0d    ....    DCD    2573
    $t
    i.mqtt_lease
    mqtt_lease
        0x08003064:    b510        ..      PUSH     {r4,lr}
        0x08003066:    2084        .       MOVS     r0,#0x84
        0x08003068:    f001f856    ..V.    BL       platform_memory_alloc ; 0x8004118
        0x0800306c:    0004        ..      MOVS     r4,r0
        0x0800306e:    d006        ..      BEQ      0x800307e ; mqtt_lease + 26
        0x08003070:    2184        .!      MOVS     r1,#0x84
        0x08003072:    f7fdfbda    ....    BL       __aeabi_memclr4 ; 0x800082a
        0x08003076:    4620         F      MOV      r0,r4
        0x08003078:    f7ffff06    ....    BL       mqtt_init ; 0x8002e88
        0x0800307c:    b108        ..      CBZ      r0,0x8003082 ; mqtt_lease + 30
        0x0800307e:    2000        .       MOVS     r0,#0
        0x08003080:    bd10        ..      POP      {r4,pc}
        0x08003082:    4620         F      MOV      r0,r4
        0x08003084:    bd10        ..      POP      {r4,pc}
    i.mqtt_list_add_tail
    mqtt_list_add_tail
        0x08003086:    684b        Kh      LDR      r3,[r1,#4]
        0x08003088:    460a        .F      MOV      r2,r1
        0x0800308a:    4619        .F      MOV      r1,r3
        0x0800308c:    f7ffbada    ....    B        _mqtt_list_add ; 0x8002644
    i.mqtt_list_del
    mqtt_list_del
        0x08003090:    c803        ..      LDM      r0,{r0,r1}
        0x08003092:    6041        A`      STR      r1,[r0,#4]
        0x08003094:    6008        .`      STR      r0,[r1,#0]
        0x08003096:    4770        pG      BX       lr
    i.mqtt_list_del_init
    mqtt_list_del_init
        0x08003098:    e9d01200    ....    LDRD     r1,r2,[r0,#0]
        0x0800309c:    604a        J`      STR      r2,[r1,#4]
        0x0800309e:    6011        .`      STR      r1,[r2,#0]
        0x080030a0:    6000        .`      STR      r0,[r0,#0]
        0x080030a2:    6040        @`      STR      r0,[r0,#4]
        0x080030a4:    4770        pG      BX       lr
    i.mqtt_list_init
    mqtt_list_init
        0x080030a6:    6000        .`      STR      r0,[r0,#0]
        0x080030a8:    6040        @`      STR      r0,[r0,#4]
        0x080030aa:    4770        pG      BX       lr
    i.mqtt_list_is_empty
    mqtt_list_is_empty
        0x080030ac:    6801        .h      LDR      r1,[r0,#0]
        0x080030ae:    4281        .B      CMP      r1,r0
        0x080030b0:    d101        ..      BNE      0x80030b6 ; mqtt_list_is_empty + 10
        0x080030b2:    2001        .       MOVS     r0,#1
        0x080030b4:    4770        pG      BX       lr
        0x080030b6:    2000        .       MOVS     r0,#0
        0x080030b8:    4770        pG      BX       lr
    i.mqtt_msg_handler_create
    mqtt_msg_handler_create
        0x080030ba:    e92d41f0    -..A    PUSH     {r4-r8,lr}
        0x080030be:    4607        .F      MOV      r7,r0
        0x080030c0:    4615        .F      MOV      r5,r2
        0x080030c2:    460e        .F      MOV      r6,r1
        0x080030c4:    2014        .       MOVS     r0,#0x14
        0x080030c6:    f001f827    ..'.    BL       platform_memory_alloc ; 0x8004118
        0x080030ca:    0004        ..      MOVS     r4,r0
        0x080030cc:    d007        ..      BEQ      0x80030de ; mqtt_msg_handler_create + 36
        0x080030ce:    f7ffffea    ....    BL       mqtt_list_init ; 0x80030a6
        0x080030d2:    7226        &r      STRB     r6,[r4,#8]
        0x080030d4:    e9c47503    ...u    STRD     r7,r5,[r4,#0xc]
        0x080030d8:    4620         F      MOV      r0,r4
        0x080030da:    e8bd81f0    ....    POP      {r4-r8,pc}
        0x080030de:    2000        .       MOVS     r0,#0
        0x080030e0:    e7fb        ..      B        0x80030da ; mqtt_msg_handler_create + 32
    i.mqtt_msg_handler_destory
    mqtt_msg_handler_destory
        0x080030e2:    b510        ..      PUSH     {r4,lr}
        0x080030e4:    0004        ..      MOVS     r4,r0
        0x080030e6:    d006        ..      BEQ      0x80030f6 ; mqtt_msg_handler_destory + 20
        0x080030e8:    f7ffffd2    ....    BL       mqtt_list_del ; 0x8003090
        0x080030ec:    4620         F      MOV      r0,r4
        0x080030ee:    e8bd4010    ...@    POP      {r4,lr}
        0x080030f2:    f001b831    ..1.    B.W      platform_memory_free ; 0x8004158
        0x080030f6:    bd10        ..      POP      {r4,pc}
    i.mqtt_msg_handler_is_exist
    mqtt_msg_handler_is_exist
        0x080030f8:    e92d47fc    -..G    PUSH     {r2-r10,lr}
        0x080030fc:    4604        .F      MOV      r4,r0
        0x080030fe:    3058        X0      ADDS     r0,r0,#0x58
        0x08003100:    460e        .F      MOV      r6,r1
        0x08003102:    4607        .F      MOV      r7,r0
        0x08003104:    f7ffffd2    ....    BL       mqtt_list_is_empty ; 0x80030ac
        0x08003108:    b9d8        ..      CBNZ     r0,0x8003142 ; mqtt_msg_handler_is_exist + 74
        0x0800310a:    6da4        .m      LDR      r4,[r4,#0x58]
        0x0800310c:    e016        ..      B        0x800313c ; mqtt_msg_handler_is_exist + 68
        0x0800310e:    68e0        .h      LDR      r0,[r4,#0xc]
        0x08003110:    b198        ..      CBZ      r0,0x800313a ; mqtt_msg_handler_is_exist + 66
        0x08003112:    f8d6900c    ....    LDR      r9,[r6,#0xc]
        0x08003116:    4682        .F      MOV      r10,r0
        0x08003118:    4648        HF      MOV      r0,r9
        0x0800311a:    f7fdfa6f    ..o.    BL       strlen ; 0x80005fc
        0x0800311e:    4680        .F      MOV      r8,r0
        0x08003120:    4650        PF      MOV      r0,r10
        0x08003122:    f7fdfa6b    ..k.    BL       strlen ; 0x80005fc
        0x08003126:    4601        .F      MOV      r1,r0
        0x08003128:    4640        @F      MOV      r0,r8
        0x0800312a:    4541        AE      CMP      r1,r8
        0x0800312c:    d105        ..      BNE      0x800313a ; mqtt_msg_handler_is_exist + 66
        0x0800312e:    4602        .F      MOV      r2,r0
        0x08003130:    4649        IF      MOV      r1,r9
        0x08003132:    4650        PF      MOV      r0,r10
        0x08003134:    f7fdfa81    ....    BL       strncmp ; 0x800063a
        0x08003138:    b130        0.      CBZ      r0,0x8003148 ; mqtt_msg_handler_is_exist + 80
        0x0800313a:    462c        ,F      MOV      r4,r5
        0x0800313c:    42bc        .B      CMP      r4,r7
        0x0800313e:    6825        %h      LDR      r5,[r4,#0]
        0x08003140:    d1e5        ..      BNE      0x800310e ; mqtt_msg_handler_is_exist + 22
        0x08003142:    2000        .       MOVS     r0,#0
        0x08003144:    e8bd87fc    ....    POP      {r2-r10,pc}
        0x08003148:    68f1        .h      LDR      r1,[r6,#0xc]
        0x0800314a:    68e0        .h      LDR      r0,[r4,#0xc]
        0x0800314c:    e9cd0100    ....    STRD     r0,r1,[sp,#0]
        0x08003150:    4b06        .K      LDR      r3,[pc,#24] ; [0x800316c] = 0x8006208
        0x08003152:    f24012d1    @...    MOV      r2,#0x1d1
        0x08003156:    4906        .I      LDR      r1,[pc,#24] ; [0x8003170] = 0x8003b94
        0x08003158:    4806        .H      LDR      r0,[pc,#24] ; [0x8003174] = 0x8006504
        0x0800315a:    f7fdf8a9    ....    BL       __2printf ; 0x80002b0
        0x0800315e:    4804        .H      LDR      r0,[pc,#16] ; [0x8003170] = 0x8003b94
        0x08003160:    305c        \0      ADDS     r0,r0,#0x5c
        0x08003162:    f7fdf8a5    ....    BL       __2printf ; 0x80002b0
        0x08003166:    2001        .       MOVS     r0,#1
        0x08003168:    e7ec        ..      B        0x8003144 ; mqtt_msg_handler_is_exist + 76
    $d
        0x0800316a:    0000        ..      DCW    0
        0x0800316c:    08006208    .b..    DCD    134242824
        0x08003170:    08003b94    .;..    DCD    134232980
        0x08003174:    08006504    .e..    DCD    134243588
    $t
    i.mqtt_new_message_data
    mqtt_new_message_data
        0x08003178:    b570        p.      PUSH     {r4-r6,lr}
        0x0800317a:    684c        Lh      LDR      r4,[r1,#4]
        0x0800317c:    4616        .F      MOV      r6,r2
        0x0800317e:    4605        .F      MOV      r5,r0
        0x08003180:    2c3f        ?,      CMP      r4,#0x3f
        0x08003182:    db00        ..      BLT      0x8003186 ; mqtt_new_message_data + 14
        0x08003184:    243f        ?$      MOVS     r4,#0x3f
        0x08003186:    6889        .h      LDR      r1,[r1,#8]
        0x08003188:    4622        "F      MOV      r2,r4
        0x0800318a:    f7fdfaad    ....    BL       __aeabi_memcpy ; 0x80006e8
        0x0800318e:    2000        .       MOVS     r0,#0
        0x08003190:    5528        (U      STRB     r0,[r5,r4]
        0x08003192:    642e        .d      STR      r6,[r5,#0x40]
        0x08003194:    bd70        p.      POP      {r4-r6,pc}
    i.mqtt_packet_handle
    mqtt_packet_handle
        0x08003196:    b570        p.      PUSH     {r4-r6,lr}
        0x08003198:    b086        ..      SUB      sp,sp,#0x18
        0x0800319a:    460e        .F      MOV      r6,r1
        0x0800319c:    2500        .%      MOVS     r5,#0
        0x0800319e:    460a        .F      MOV      r2,r1
        0x080031a0:    4604        .F      MOV      r4,r0
        0x080031a2:    a903        ..      ADD      r1,sp,#0xc
        0x080031a4:    9503        ..      STR      r5,[sp,#0xc]
        0x080031a6:    f000f9e5    ....    BL       mqtt_read_packet ; 0x8003574
        0x080031aa:    9903        ..      LDR      r1,[sp,#0xc]
        0x080031ac:    290e        .)      CMP      r1,#0xe
        0x080031ae:    d25d        ].      BCS      0x800326c ; mqtt_packet_handle + 214
        0x080031b0:    e8dff001    ....    TBB      [pc,r1]
    $d
        0x080031b4:    325c5c59    Y\\2    DCD    844913753
        0x080031b8:    07373707    .77.    DCD    121059079
        0x080031bc:    195c145c    \.\.    DCD    425464924
        0x080031c0:    555c        \U      DCW    21852
    $t
        0x080031c2:    4620         F      MOV      r0,r4
        0x080031c4:    f7fffedc    ....    BL       mqtt_is_connected ; 0x8002f80
        0x080031c8:    bb28        (.      CBNZ     r0,0x8003216 ; mqtt_packet_handle + 128
        0x080031ca:    6b20         k      LDR      r0,[r4,#0x30]
        0x080031cc:    9000        ..      STR      r0,[sp,#0]
        0x080031ce:    aa01        ..      ADD      r2,sp,#4
        0x080031d0:    a904        ..      ADD      r1,sp,#0x10
        0x080031d2:    a802        ..      ADD      r0,sp,#8
        0x080031d4:    69e3        .i      LDR      r3,[r4,#0x1c]
        0x080031d6:    f7fefc77    ..w.    BL       MQTTDeserialize_ack ; 0x8001ac8
        0x080031da:    e037        7.      B        0x800324c ; mqtt_packet_handle + 182
        0x080031dc:    4631        1F      MOV      r1,r6
        0x080031de:    4620         F      MOV      r0,r4
        0x080031e0:    f000fc02    ....    BL       mqtt_suback_packet_handle ; 0x80039e8
        0x080031e4:    e03f        ?.      B        0x8003266 ; mqtt_packet_handle + 208
        0x080031e6:    f8ad5000    ...P    STRH     r5,[sp,#0]
        0x080031ea:    4620         F      MOV      r0,r4
        0x080031ec:    f7fffec8    ....    BL       mqtt_is_connected ; 0x8002f80
        0x080031f0:    b988        ..      CBNZ     r0,0x8003216 ; mqtt_packet_handle + 128
        0x080031f2:    4668        hF      MOV      r0,sp
        0x080031f4:    6b22        "k      LDR      r2,[r4,#0x30]
        0x080031f6:    69e1        .i      LDR      r1,[r4,#0x1c]
        0x080031f8:    f7fefd3c    ..<.    BL       MQTTDeserialize_unsuback ; 0x8001c74
        0x080031fc:    2801        .(      CMP      r0,#1
        0x080031fe:    d132        2.      BNE      0x8003266 ; mqtt_packet_handle + 208
        0x08003200:    ab01        ..      ADD      r3,sp,#4
        0x08003202:    f8bd2000    ...     LDRH     r2,[sp,#0]
        0x08003206:    210b        .!      MOVS     r1,#0xb
        0x08003208:    4620         F      MOV      r0,r4
        0x0800320a:    f7fffb8d    ....    BL       mqtt_ack_list_unrecord ; 0x8002928
        0x0800320e:    9801        ..      LDR      r0,[sp,#4]
        0x08003210:    b108        ..      CBZ      r0,0x8003216 ; mqtt_packet_handle + 128
        0x08003212:    f7ffff66    ..f.    BL       mqtt_msg_handler_destory ; 0x80030e2
        0x08003216:    e026        &.      B        0x8003266 ; mqtt_packet_handle + 208
        0x08003218:    4631        1F      MOV      r1,r6
        0x0800321a:    4620         F      MOV      r0,r4
        0x0800321c:    f000f938    ..8.    BL       mqtt_publish_packet_handle ; 0x8003490
        0x08003220:    e021        !.      B        0x8003266 ; mqtt_packet_handle + 208
        0x08003222:    4620         F      MOV      r0,r4
        0x08003224:    f7fffeac    ....    BL       mqtt_is_connected ; 0x8002f80
        0x08003228:    b9e8        ..      CBNZ     r0,0x8003266 ; mqtt_packet_handle + 208
        0x0800322a:    6b20         k      LDR      r0,[r4,#0x30]
        0x0800322c:    9000        ..      STR      r0,[sp,#0]
        0x0800322e:    aa01        ..      ADD      r2,sp,#4
        0x08003230:    a904        ..      ADD      r1,sp,#0x10
        0x08003232:    a802        ..      ADD      r0,sp,#8
        0x08003234:    69e3        .i      LDR      r3,[r4,#0x1c]
        0x08003236:    f7fefc47    ..G.    BL       MQTTDeserialize_ack ; 0x8001ac8
        0x0800323a:    2801        .(      CMP      r0,#1
        0x0800323c:    d113        ..      BNE      0x8003266 ; mqtt_packet_handle + 208
        0x0800323e:    f89d2008    ...     LDRB     r2,[sp,#8]
        0x08003242:    f8bd1004    ....    LDRH     r1,[sp,#4]
        0x08003246:    4620         F      MOV      r0,r4
        0x08003248:    f000f8de    ....    BL       mqtt_publish_ack_packet ; 0x8003408
        0x0800324c:    2300        .#      MOVS     r3,#0
        0x0800324e:    f8bd2004    ...     LDRH     r2,[sp,#4]
        0x08003252:    f89d1008    ....    LDRB     r1,[sp,#8]
        0x08003256:    4620         F      MOV      r0,r4
        0x08003258:    f7fffb66    ..f.    BL       mqtt_ack_list_unrecord ; 0x8002928
        0x0800325c:    e003        ..      B        0x8003266 ; mqtt_packet_handle + 208
        0x0800325e:    6aa0        .j      LDR      r0,[r4,#0x28]
        0x08003260:    f020000c     ...    BIC      r0,r0,#0xc
        0x08003264:    62a0        .b      STR      r0,[r4,#0x28]
        0x08003266:    4620         F      MOV      r0,r4
        0x08003268:    f7fffe98    ....    BL       mqtt_keep_alive ; 0x8002f9c
        0x0800326c:    2800        .(      CMP      r0,#0
        0x0800326e:    d100        ..      BNE      0x8003272 ; mqtt_packet_handle + 220
        0x08003270:    9803        ..      LDR      r0,[sp,#0xc]
        0x08003272:    b006        ..      ADD      sp,sp,#0x18
        0x08003274:    bd70        p.      POP      {r4-r6,pc}
        0x08003276:    0000        ..      MOVS     r0,r0
    i.mqtt_publish
    mqtt_publish
        0x08003278:    e92d47f0    -..G    PUSH     {r4-r10,lr}
        0x0800327c:    4606        .F      MOV      r6,r0
        0x0800327e:    f890004c    ..L.    LDRB     r0,[r0,#0x4c]
        0x08003282:    f04f0800    O...    MOV      r8,#0
        0x08003286:    b088        ..      SUB      sp,sp,#0x20
        0x08003288:    4614        .F      MOV      r4,r2
        0x0800328a:    f04f35ff    O..5    MOV      r5,#0xffffffff
        0x0800328e:    4647        GF      MOV      r7,r8
        0x08003290:    4689        .F      MOV      r9,r1
        0x08003292:    2801        .(      CMP      r0,#1
        0x08003294:    d006        ..      BEQ      0x80032a4 ; mqtt_publish + 44
        0x08003296:    f06f000d    o...    MVN      r0,#0xd
        0x0800329a:    f8c28008    ....    STR      r8,[r2,#8]
        0x0800329e:    b008        ..      ADD      sp,sp,#0x20
        0x080032a0:    e8bd87f0    ....    POP      {r4-r10,pc}
        0x080032a4:    68e0        .h      LDR      r0,[r4,#0xc]
        0x080032a6:    b120         .      CBZ      r0,0x80032b2 ; mqtt_publish + 58
        0x080032a8:    68a1        .h      LDR      r1,[r4,#8]
        0x080032aa:    b911        ..      CBNZ     r1,0x80032b2 ; mqtt_publish + 58
        0x080032ac:    f7fdf9a6    ....    BL       strlen ; 0x80005fc
        0x080032b0:    60a0        .`      STR      r0,[r4,#8]
        0x080032b2:    f1060050    ..P.    ADD      r0,r6,#0x50
        0x080032b6:    4682        .F      MOV      r10,r0
        0x080032b8:    f000ff58    ..X.    BL       platform_mutex_lock ; 0x800416c
        0x080032bc:    7820         x      LDRB     r0,[r4,#0]
        0x080032be:    b158        X.      CBZ      r0,0x80032d8 ; mqtt_publish + 96
        0x080032c0:    6ab0        .j      LDR      r0,[r6,#0x28]
        0x080032c2:    2140        @!      MOVS     r1,#0x40
        0x080032c4:    ebb12f10    .../    CMP      r1,r0,LSR #8
        0x080032c8:    d802        ..      BHI      0x80032d0 ; mqtt_publish + 88
        0x080032ca:    f06f0515    o...    MVN      r5,#0x15
        0x080032ce:    e04a        J.      B        0x8003366 ; mqtt_publish + 238
        0x080032d0:    4630        0F      MOV      r0,r6
        0x080032d2:    f7fffdc4    ....    BL       mqtt_get_next_packet_id ; 0x8002e5e
        0x080032d6:    80a0        ..      STRH     r0,[r4,#4]
        0x080032d8:    e9d40102    ....    LDRD     r0,r1,[r4,#8]
        0x080032dc:    e9cd9702    ....    STRD     r9,r7,[sp,#8]
        0x080032e0:    9704        ..      STR      r7,[sp,#0x10]
        0x080032e2:    e9cd1005    ....    STRD     r1,r0,[sp,#0x14]
        0x080032e6:    88a1        ..      LDRH     r1,[r4,#4]
        0x080032e8:    7860        `x      LDRB     r0,[r4,#1]
        0x080032ea:    e9cd0100    ....    STRD     r0,r1,[sp,#0]
        0x080032ee:    7823        #x      LDRB     r3,[r4,#0]
        0x080032f0:    2200        ."      MOVS     r2,#0
        0x080032f2:    6b71        qk      LDR      r1,[r6,#0x34]
        0x080032f4:    6a30        0j      LDR      r0,[r6,#0x20]
        0x080032f6:    f7fefe27    ..'.    BL       MQTTSerialize_publish ; 0x8001f48
        0x080032fa:    1e07        ..      SUBS     r7,r0,#0
        0x080032fc:    dd33        3.      BLE      0x8003366 ; mqtt_publish + 238
        0x080032fe:    4601        .F      MOV      r1,r0
        0x08003300:    aa07        ..      ADD      r2,sp,#0x1c
        0x08003302:    4630        0F      MOV      r0,r6
        0x08003304:    f000f9d0    ....    BL       mqtt_send_packet ; 0x80036a8
        0x08003308:    0005        ..      MOVS     r5,r0
        0x0800330a:    d12c        ,.      BNE      0x8003366 ; mqtt_publish + 238
        0x0800330c:    7820         x      LDRB     r0,[r4,#0]
        0x0800330e:    b350        P.      CBZ      r0,0x8003366 ; mqtt_publish + 238
        0x08003310:    6a30        0j      LDR      r0,[r6,#0x20]
        0x08003312:    9000        ..      STR      r0,[sp,#0]
        0x08003314:    6a30        0j      LDR      r0,[r6,#0x20]
        0x08003316:    9001        ..      STR      r0,[sp,#4]
        0x08003318:    6a30        0j      LDR      r0,[r6,#0x20]
        0x0800331a:    f04f0901    O...    MOV      r9,#1
        0x0800331e:    b168        h.      CBZ      r0,0x800333c ; mqtt_publish + 196
        0x08003320:    4668        hF      MOV      r0,sp
        0x08003322:    f001fd27    ..'.    BL       readChar ; 0x8004d74
        0x08003326:    4641        AF      MOV      r1,r8
        0x08003328:    f3600107    `...    BFI      r1,r0,#0,#8
        0x0800332c:    0908        ..      LSRS     r0,r1,#4
        0x0800332e:    2803        .(      CMP      r0,#3
        0x08003330:    d104        ..      BNE      0x800333c ; mqtt_publish + 196
        0x08003332:    f36901c3    i...    BFI      r1,r9,#3,#1
        0x08003336:    a801        ..      ADD      r0,sp,#4
        0x08003338:    f002f90a    ....    BL       writeChar ; 0x8005550
        0x0800333c:    7820         x      LDRB     r0,[r4,#0]
        0x0800333e:    2801        .(      CMP      r0,#1
        0x08003340:    d002        ..      BEQ      0x8003348 ; mqtt_publish + 208
        0x08003342:    2802        .(      CMP      r0,#2
        0x08003344:    d006        ..      BEQ      0x8003354 ; mqtt_publish + 220
        0x08003346:    e00e        ..      B        0x8003366 ; mqtt_publish + 238
        0x08003348:    f8cd8000    ....    STR      r8,[sp,#0]
        0x0800334c:    b2bb        ..      UXTH     r3,r7
        0x0800334e:    88a2        ..      LDRH     r2,[r4,#4]
        0x08003350:    2104        .!      MOVS     r1,#4
        0x08003352:    e004        ..      B        0x800335e ; mqtt_publish + 230
        0x08003354:    f8cd8000    ....    STR      r8,[sp,#0]
        0x08003358:    88a2        ..      LDRH     r2,[r4,#4]
        0x0800335a:    b2bb        ..      UXTH     r3,r7
        0x0800335c:    2105        .!      MOVS     r1,#5
        0x0800335e:    4630        0F      MOV      r0,r6
        0x08003360:    f7fffa5c    ..\.    BL       mqtt_ack_list_record ; 0x800281c
        0x08003364:    4605        .F      MOV      r5,r0
        0x08003366:    4650        PF      MOV      r0,r10
        0x08003368:    f8c48008    ....    STR      r8,[r4,#8]
        0x0800336c:    f000ff03    ....    BL       platform_mutex_unlock ; 0x8004176
        0x08003370:    f1150f16    ....    CMN      r5,#0x16
        0x08003374:    d001        ..      BEQ      0x800337a ; mqtt_publish + 258
        0x08003376:    1ce8        ..      ADDS     r0,r5,#3
        0x08003378:    d10d        ..      BNE      0x8003396 ; mqtt_publish + 286
        0x0800337a:    4b08        .K      LDR      r3,[pc,#32] ; [0x800339c] = 0x8006483
        0x0800337c:    f2405265    @.eR    MOV      r2,#0x565
        0x08003380:    a107        ..      ADR      r1,{pc}+0x20 ; 0x80033a0
        0x08003382:    a011        ..      ADR      r0,{pc}+0x46 ; 0x80033c8
        0x08003384:    f7fcff94    ....    BL       __2printf ; 0x80002b0
        0x08003388:    a01e        ..      ADR      r0,{pc}+0x7c ; 0x8003404
        0x0800338a:    f7fcff91    ....    BL       __2printf ; 0x80002b0
        0x0800338e:    2102        .!      MOVS     r1,#2
        0x08003390:    4630        0F      MOV      r0,r6
        0x08003392:    f000fa33    ..3.    BL       mqtt_set_client_state ; 0x80037fc
        0x08003396:    4628        (F      MOV      r0,r5
        0x08003398:    e781        ..      B        0x800329e ; mqtt_publish + 38
    $d
        0x0800339a:    0000        ..      DCW    0
        0x0800339c:    08006483    .d..    DCD    134243459
        0x080033a0:    6d5c2e2e    ..\m    DCD    1834757678
        0x080033a4:    63747471    qttc    DCD    1668576369
        0x080033a8:    6e65696c    lien    DCD    1852139884
        0x080033ac:    716d5c74    t\mq    DCD    1902992500
        0x080033b0:    6c637474    ttcl    DCD    1818457204
        0x080033b4:    746e6569    ient    DCD    1953391977
        0x080033b8:    74716d5c    \mqt    DCD    1953590620
        0x080033bc:    696c6374    tcli    DCD    1768711028
        0x080033c0:    2e746e65    ent.    DCD    779382373
        0x080033c4:    00000063    c...    DCD    99
        0x080033c8:    253a7325    %s:%    DCD    624587557
        0x080033cc:    73252064    d %s    DCD    1931812964
        0x080033d0:    2e2e2928    ()..    DCD    774777128
        0x080033d4:    6874202e    . th    DCD    1752440878
        0x080033d8:    20657265    ere     DCD    543519333
        0x080033dc:    6e207369    is n    DCD    1847620457
        0x080033e0:    6520746f    ot e    DCD    1696625775
        0x080033e4:    67756f6e    noug    DCD    1735749486
        0x080033e8:    656d2068    h me    DCD    1701650536
        0x080033ec:    79726f6d    mory    DCD    2037542765
        0x080033f0:    61707320     spa    DCD    1634759456
        0x080033f4:    74206563    ce t    DCD    1948280163
        0x080033f8:    6572206f    o re    DCD    1701978223
        0x080033fc:    64726f63    cord    DCD    1685221219
        0x08003400:    002e2e2e    ....    DCD    3026478
        0x08003404:    00000a0d    ....    DCD    2573
    $t
    i.mqtt_publish_ack_packet
    mqtt_publish_ack_packet
        0x08003408:    e92d41fc    -..A    PUSH     {r2-r8,lr}
        0x0800340c:    4604        .F      MOV      r4,r0
        0x0800340e:    4616        .F      MOV      r6,r2
        0x08003410:    460d        .F      MOV      r5,r1
        0x08003412:    a801        ..      ADD      r0,sp,#4
        0x08003414:    f000ffcc    ....    BL       platform_timer_init ; 0x80043b0
        0x08003418:    a801        ..      ADD      r0,sp,#4
        0x0800341a:    6ae1        .j      LDR      r1,[r4,#0x2c]
        0x0800341c:    f000ffc0    ....    BL       platform_timer_cutdown ; 0x80043a0
        0x08003420:    f1040050    ..P.    ADD      r0,r4,#0x50
        0x08003424:    4607        .F      MOV      r7,r0
        0x08003426:    f000fea1    ....    BL       platform_mutex_lock ; 0x800416c
        0x0800342a:    2e05        ..      CMP      r6,#5
        0x0800342c:    d004        ..      BEQ      0x8003438 ; mqtt_publish_ack_packet + 48
        0x0800342e:    2e06        ..      CMP      r6,#6
        0x08003430:    d015        ..      BEQ      0x800345e ; mqtt_publish_ack_packet + 86
        0x08003432:    f06f0509    o...    MVN      r5,#9
        0x08003436:    e025        %.      B        0x8003484 ; mqtt_publish_ack_packet + 124
        0x08003438:    9500        ..      STR      r5,[sp,#0]
        0x0800343a:    2300        .#      MOVS     r3,#0
        0x0800343c:    2206        ."      MOVS     r2,#6
        0x0800343e:    6b61        ak      LDR      r1,[r4,#0x34]
        0x08003440:    6a20         j      LDR      r0,[r4,#0x20]
        0x08003442:    f7fefc93    ....    BL       MQTTSerialize_ack ; 0x8001d6c
        0x08003446:    4606        .F      MOV      r6,r0
        0x08003448:    2000        .       MOVS     r0,#0
        0x0800344a:    9000        ..      STR      r0,[sp,#0]
        0x0800344c:    b2b3        ..      UXTH     r3,r6
        0x0800344e:    462a        *F      MOV      r2,r5
        0x08003450:    2107        .!      MOVS     r1,#7
        0x08003452:    4620         F      MOV      r0,r4
        0x08003454:    f7fff9e2    ....    BL       mqtt_ack_list_record ; 0x800281c
        0x08003458:    0005        ..      MOVS     r5,r0
        0x0800345a:    d113        ..      BNE      0x8003484 ; mqtt_publish_ack_packet + 124
        0x0800345c:    e007        ..      B        0x800346e ; mqtt_publish_ack_packet + 102
        0x0800345e:    9500        ..      STR      r5,[sp,#0]
        0x08003460:    2300        .#      MOVS     r3,#0
        0x08003462:    2207        ."      MOVS     r2,#7
        0x08003464:    6b61        ak      LDR      r1,[r4,#0x34]
        0x08003466:    6a20         j      LDR      r0,[r4,#0x20]
        0x08003468:    f7fefc80    ....    BL       MQTTSerialize_ack ; 0x8001d6c
        0x0800346c:    4606        .F      MOV      r6,r0
        0x0800346e:    2e00        ..      CMP      r6,#0
        0x08003470:    dc02        ..      BGT      0x8003478 ; mqtt_publish_ack_packet + 112
        0x08003472:    f06f050a    o...    MVN      r5,#0xa
        0x08003476:    e005        ..      B        0x8003484 ; mqtt_publish_ack_packet + 124
        0x08003478:    aa01        ..      ADD      r2,sp,#4
        0x0800347a:    4631        1F      MOV      r1,r6
        0x0800347c:    4620         F      MOV      r0,r4
        0x0800347e:    f000f913    ....    BL       mqtt_send_packet ; 0x80036a8
        0x08003482:    4605        .F      MOV      r5,r0
        0x08003484:    4638        8F      MOV      r0,r7
        0x08003486:    f000fe76    ..v.    BL       platform_mutex_unlock ; 0x8004176
        0x0800348a:    4628        (F      MOV      r0,r5
        0x0800348c:    e8bd81fc    ....    POP      {r2-r8,pc}
    i.mqtt_publish_packet_handle
    mqtt_publish_packet_handle
        0x08003490:    e92d43f0    -..C    PUSH     {r4-r9,lr}
        0x08003494:    b08d        ..      SUB      sp,sp,#0x34
        0x08003496:    2600        .&      MOVS     r6,#0
        0x08003498:    4688        .F      MOV      r8,r1
        0x0800349a:    4604        .F      MOV      r4,r0
        0x0800349c:    4637        7F      MOV      r7,r6
        0x0800349e:    9607        ..      STR      r6,[sp,#0x1c]
        0x080034a0:    f7fffd6e    ..n.    BL       mqtt_is_connected ; 0x8002f80
        0x080034a4:    0005        ..      MOVS     r5,r0
        0x080034a6:    d114        ..      BNE      0x80034d2 ; mqtt_publish_packet_handle + 66
        0x080034a8:    aa07        ..      ADD      r2,sp,#0x1c
        0x080034aa:    69e1        .i      LDR      r1,[r4,#0x1c]
        0x080034ac:    6b20         k      LDR      r0,[r4,#0x30]
        0x080034ae:    9202        ..      STR      r2,[sp,#8]
        0x080034b0:    e9cd1003    ....    STRD     r1,r0,[sp,#0xc]
        0x080034b4:    ab08        ..      ADD      r3,sp,#0x20
        0x080034b6:    a80a        ..      ADD      r0,sp,#0x28
        0x080034b8:    e9cd0300    ....    STRD     r0,r3,[sp,#0]
        0x080034bc:    a805        ..      ADD      r0,sp,#0x14
        0x080034be:    1d03        ..      ADDS     r3,r0,#4
        0x080034c0:    1c42        B.      ADDS     r2,r0,#1
        0x080034c2:    a909        ..      ADD      r1,sp,#0x24
        0x080034c4:    1c80        ..      ADDS     r0,r0,#2
        0x080034c6:    f7fefb51    ..Q.    BL       MQTTDeserialize_publish ; 0x8001b6c
        0x080034ca:    2801        .(      CMP      r0,#1
        0x080034cc:    d004        ..      BEQ      0x80034d8 ; mqtt_publish_packet_handle + 72
        0x080034ce:    f06f0010    o...    MVN      r0,#0x10
        0x080034d2:    b00d        ..      ADD      sp,sp,#0x34
        0x080034d4:    e8bd83f0    ....    POP      {r4-r9,pc}
        0x080034d8:    9809        ..      LDR      r0,[sp,#0x24]
        0x080034da:    f01000ff    ....    ANDS     r0,r0,#0xff
        0x080034de:    f88d0014    ....    STRB     r0,[sp,#0x14]
        0x080034e2:    d02f        /.      BEQ      0x8003544 ; mqtt_publish_packet_handle + 180
        0x080034e4:    f1040050    ..P.    ADD      r0,r4,#0x50
        0x080034e8:    4681        .F      MOV      r9,r0
        0x080034ea:    f000fe3f    ..?.    BL       platform_mutex_lock ; 0x800416c
        0x080034ee:    f89d0014    ....    LDRB     r0,[sp,#0x14]
        0x080034f2:    2801        .(      CMP      r0,#1
        0x080034f4:    d002        ..      BEQ      0x80034fc ; mqtt_publish_packet_handle + 108
        0x080034f6:    2802        .(      CMP      r0,#2
        0x080034f8:    d008        ..      BEQ      0x800350c ; mqtt_publish_packet_handle + 124
        0x080034fa:    e012        ..      B        0x8003522 ; mqtt_publish_packet_handle + 146
        0x080034fc:    f8bd0018    ....    LDRH     r0,[sp,#0x18]
        0x08003500:    9000        ..      STR      r0,[sp,#0]
        0x08003502:    2300        .#      MOVS     r3,#0
        0x08003504:    2204        ."      MOVS     r2,#4
        0x08003506:    6b61        ak      LDR      r1,[r4,#0x34]
        0x08003508:    6a20         j      LDR      r0,[r4,#0x20]
        0x0800350a:    e006        ..      B        0x800351a ; mqtt_publish_packet_handle + 138
        0x0800350c:    f8bd0018    ....    LDRH     r0,[sp,#0x18]
        0x08003510:    9000        ..      STR      r0,[sp,#0]
        0x08003512:    2300        .#      MOVS     r3,#0
        0x08003514:    2205        ."      MOVS     r2,#5
        0x08003516:    6b61        ak      LDR      r1,[r4,#0x34]
        0x08003518:    6a20         j      LDR      r0,[r4,#0x20]
        0x0800351a:    f7fefc27    ..'.    BL       MQTTSerialize_ack ; 0x8001d6c
        0x0800351e:    1e06        ..      SUBS     r6,r0,#0
        0x08003520:    dc05        ..      BGT      0x800352e ; mqtt_publish_packet_handle + 158
        0x08003522:    f06f0511    o...    MVN      r5,#0x11
        0x08003526:    4648        HF      MOV      r0,r9
        0x08003528:    f000fe25    ..%.    BL       platform_mutex_unlock ; 0x8004176
        0x0800352c:    e01f        ..      B        0x800356e ; mqtt_publish_packet_handle + 222
        0x0800352e:    4601        .F      MOV      r1,r0
        0x08003530:    4642        BF      MOV      r2,r8
        0x08003532:    4620         F      MOV      r0,r4
        0x08003534:    f000f8b8    ....    BL       mqtt_send_packet ; 0x80036a8
        0x08003538:    4605        .F      MOV      r5,r0
        0x0800353a:    4648        HF      MOV      r0,r9
        0x0800353c:    f000fe1b    ....    BL       platform_mutex_unlock ; 0x8004176
        0x08003540:    2d00        .-      CMP      r5,#0
        0x08003542:    db14        ..      BLT      0x800356e ; mqtt_publish_packet_handle + 222
        0x08003544:    f89d0014    ....    LDRB     r0,[sp,#0x14]
        0x08003548:    2802        .(      CMP      r0,#2
        0x0800354a:    d10b        ..      BNE      0x8003564 ; mqtt_publish_packet_handle + 212
        0x0800354c:    b2b3        ..      UXTH     r3,r6
        0x0800354e:    9700        ..      STR      r7,[sp,#0]
        0x08003550:    f8bd2018    ...     LDRH     r2,[sp,#0x18]
        0x08003554:    2106        .!      MOVS     r1,#6
        0x08003556:    4620         F      MOV      r0,r4
        0x08003558:    f7fff960    ..`.    BL       mqtt_ack_list_record ; 0x800281c
        0x0800355c:    4605        .F      MOV      r5,r0
        0x0800355e:    f1100f17    ....    CMN      r0,#0x17
        0x08003562:    d004        ..      BEQ      0x800356e ; mqtt_publish_packet_handle + 222
        0x08003564:    aa05        ..      ADD      r2,sp,#0x14
        0x08003566:    a90a        ..      ADD      r1,sp,#0x28
        0x08003568:    4620         F      MOV      r0,r4
        0x0800356a:    f7fffc01    ....    BL       mqtt_deliver_message ; 0x8002d70
        0x0800356e:    4628        (F      MOV      r0,r5
        0x08003570:    e7af        ..      B        0x80034d2 ; mqtt_publish_packet_handle + 66
        0x08003572:    0000        ..      MOVS     r0,r0
    i.mqtt_read_packet
    mqtt_read_packet
        0x08003574:    e92d4ff7    -..O    PUSH     {r0-r2,r4-r11,lr}
        0x08003578:    f04f0800    O...    MOV      r8,#0
        0x0800357c:    b082        ..      SUB      sp,sp,#8
        0x0800357e:    ea5f0901    _...    MOVS     r9,r1
        0x08003582:    4605        .F      MOV      r5,r0
        0x08003584:    f04f0701    O...    MOV      r7,#1
        0x08003588:    4644        DF      MOV      r4,r8
        0x0800358a:    d018        ..      BEQ      0x80035be ; mqtt_read_packet + 74
        0x0800358c:    f8dfb114    ....    LDR      r11,[pc,#276] ; [0x80036a4] = 0x200000b4
        0x08003590:    1eb8        ..      SUBS     r0,r7,#2
        0x08003592:    f8cb0000    ....    STR      r0,[r11,#0]
        0x08003596:    9804        ..      LDR      r0,[sp,#0x10]
        0x08003598:    f000ff0a    ....    BL       platform_timer_init ; 0x80043b0
        0x0800359c:    6ae9        .j      LDR      r1,[r5,#0x2c]
        0x0800359e:    9804        ..      LDR      r0,[sp,#0x10]
        0x080035a0:    f000fefe    ....    BL       platform_timer_cutdown ; 0x80043a0
        0x080035a4:    9804        ..      LDR      r0,[sp,#0x10]
        0x080035a6:    f000ff13    ....    BL       platform_timer_remain ; 0x80043d0
        0x080035aa:    6eae        .n      LDR      r6,[r5,#0x68]
        0x080035ac:    4603        .F      MOV      r3,r0
        0x080035ae:    463a        :F      MOV      r2,r7
        0x080035b0:    4630        0F      MOV      r0,r6
        0x080035b2:    69e9        .i      LDR      r1,[r5,#0x1c]
        0x080035b4:    f000fd02    ....    BL       network_read ; 0x8003fbc
        0x080035b8:    2801        .(      CMP      r0,#1
        0x080035ba:    d15d        ].      BNE      0x8003678 ; mqtt_read_packet + 260
        0x080035bc:    e004        ..      B        0x80035c8 ; mqtt_read_packet + 84
        0x080035be:    f06f0001    o...    MVN      r0,#1
        0x080035c2:    b005        ..      ADD      sp,sp,#0x14
        0x080035c4:    e8bd8ff0    ....    POP      {r4-r11,pc}
        0x080035c8:    9804        ..      LDR      r0,[sp,#0x10]
        0x080035ca:    f000ff01    ....    BL       platform_timer_remain ; 0x80043d0
        0x080035ce:    2601        .&      MOVS     r6,#1
        0x080035d0:    46b2        .F      MOV      r10,r6
        0x080035d2:    9001        ..      STR      r0,[sp,#4]
        0x080035d4:    e005        ..      B        0x80035e2 ; mqtt_read_packet + 110
        0x080035d6:    bf00        ..      NOP      
        0x080035d8:    f10a0a01    ....    ADD      r10,r10,#1
        0x080035dc:    f1ba0f04    ....    CMP      r10,#4
        0x080035e0:    dc10        ..      BGT      0x8003604 ; mqtt_read_packet + 144
        0x080035e2:    6ea8        .n      LDR      r0,[r5,#0x68]
        0x080035e4:    2201        ."      MOVS     r2,#1
        0x080035e6:    4669        iF      MOV      r1,sp
        0x080035e8:    9b01        ..      LDR      r3,[sp,#4]
        0x080035ea:    f000fce7    ....    BL       network_read ; 0x8003fbc
        0x080035ee:    2801        .(      CMP      r0,#1
        0x080035f0:    d108        ..      BNE      0x8003604 ; mqtt_read_packet + 144
        0x080035f2:    f89d0000    ....    LDRB     r0,[sp,#0]
        0x080035f6:    f000017f    ....    AND      r1,r0,#0x7f
        0x080035fa:    fb014406    ...D    MLA      r4,r1,r6,r4
        0x080035fe:    01f6        ..      LSLS     r6,r6,#7
        0x08003600:    0600        ..      LSLS     r0,r0,#24
        0x08003602:    d4e9        ..      BMI      0x80035d8 ; mqtt_read_packet + 100
        0x08003604:    69e8        .i      LDR      r0,[r5,#0x1c]
        0x08003606:    4621        !F      MOV      r1,r4
        0x08003608:    4438        8D      ADD      r0,r0,r7
        0x0800360a:    f7fefb6b    ..k.    BL       MQTTPacket_encode ; 0x8001ce4
        0x0800360e:    19c6        ..      ADDS     r6,r0,r7
        0x08003610:    6b28        (k      LDR      r0,[r5,#0x30]
        0x08003612:    1931        1.      ADDS     r1,r6,r4
        0x08003614:    4281        .B      CMP      r1,r0
        0x08003616:    d91f        ..      BLS      0x8003658 ; mqtt_read_packet + 228
        0x08003618:    4627        'F      MOV      r7,r4
        0x0800361a:    2600        .&      MOVS     r6,#0
        0x0800361c:    f8dd8010    ....    LDR      r8,[sp,#0x10]
        0x08003620:    42b8        .B      CMP      r0,r7
        0x08003622:    d800        ..      BHI      0x8003626 ; mqtt_read_packet + 178
        0x08003624:    4604        .F      MOV      r4,r0
        0x08003626:    4640        @F      MOV      r0,r8
        0x08003628:    f000fed2    ....    BL       platform_timer_remain ; 0x80043d0
        0x0800362c:    f8d5c068    ..h.    LDR      r12,[r5,#0x68]
        0x08003630:    4603        .F      MOV      r3,r0
        0x08003632:    4622        "F      MOV      r2,r4
        0x08003634:    4660        `F      MOV      r0,r12
        0x08003636:    69e9        .i      LDR      r1,[r5,#0x1c]
        0x08003638:    f000fcc0    ....    BL       network_read ; 0x8003fbc
        0x0800363c:    b128        (.      CBZ      r0,0x800364a ; mqtt_read_packet + 214
        0x0800363e:    4406        .D      ADD      r6,r6,r0
        0x08003640:    6b2c        ,k      LDR      r4,[r5,#0x30]
        0x08003642:    1bb9        ..      SUBS     r1,r7,r6
        0x08003644:    42a1        .B      CMP      r1,r4
        0x08003646:    d200        ..      BCS      0x800364a ; mqtt_read_packet + 214
        0x08003648:    460c        .F      MOV      r4,r1
        0x0800364a:    42be        .B      CMP      r6,r7
        0x0800364c:    da01        ..      BGE      0x8003652 ; mqtt_read_packet + 222
        0x0800364e:    2800        .(      CMP      r0,#0
        0x08003650:    d1e9        ..      BNE      0x8003626 ; mqtt_read_packet + 178
        0x08003652:    f06f0007    o...    MVN      r0,#7
        0x08003656:    e7b4        ..      B        0x80035c2 ; mqtt_read_packet + 78
        0x08003658:    f8cb4000    ...@    STR      r4,[r11,#0]
        0x0800365c:    2c00        .,      CMP      r4,#0
        0x0800365e:    dd0e        ..      BLE      0x800367e ; mqtt_read_packet + 266
        0x08003660:    9804        ..      LDR      r0,[sp,#0x10]
        0x08003662:    f000feb5    ....    BL       platform_timer_remain ; 0x80043d0
        0x08003666:    4603        .F      MOV      r3,r0
        0x08003668:    69e8        .i      LDR      r0,[r5,#0x1c]
        0x0800366a:    4622        "F      MOV      r2,r4
        0x0800366c:    1981        ..      ADDS     r1,r0,r6
        0x0800366e:    6ea8        .n      LDR      r0,[r5,#0x68]
        0x08003670:    f000fca4    ....    BL       network_read ; 0x8003fbc
        0x08003674:    42a0        .B      CMP      r0,r4
        0x08003676:    d002        ..      BEQ      0x800367e ; mqtt_read_packet + 266
        0x08003678:    f06f0006    o...    MVN      r0,#6
        0x0800367c:    e7a1        ..      B        0x80035c2 ; mqtt_read_packet + 78
        0x0800367e:    69e8        .i      LDR      r0,[r5,#0x1c]
        0x08003680:    7801        .x      LDRB     r1,[r0,#0]
        0x08003682:    4640        @F      MOV      r0,r8
        0x08003684:    f3610007    a...    BFI      r0,r1,#0,#8
        0x08003688:    0901        ..      LSRS     r1,r0,#4
        0x0800368a:    f8c91000    ....    STR      r1,[r9,#0]
        0x0800368e:    8ca9        ..      LDRH     r1,[r5,#0x24]
        0x08003690:    f44f707a    O.zp    MOV      r0,#0x3e8
        0x08003694:    4341        AC      MULS     r1,r0,r1
        0x08003696:    f1050078    ..x.    ADD      r0,r5,#0x78
        0x0800369a:    f000fe81    ....    BL       platform_timer_cutdown ; 0x80043a0
        0x0800369e:    2000        .       MOVS     r0,#0
        0x080036a0:    e78f        ..      B        0x80035c2 ; mqtt_read_packet + 78
    $d
        0x080036a2:    0000        ..      DCW    0
        0x080036a4:    200000b4    ...     DCD    536871092
    $t
    i.mqtt_send_packet
    mqtt_send_packet
        0x080036a8:    e92d41f0    -..A    PUSH     {r4-r8,lr}
        0x080036ac:    4605        .F      MOV      r5,r0
        0x080036ae:    460e        .F      MOV      r6,r1
        0x080036b0:    4617        .F      MOV      r7,r2
        0x080036b2:    2400        .$      MOVS     r4,#0
        0x080036b4:    4610        .F      MOV      r0,r2
        0x080036b6:    f000fe7b    ..{.    BL       platform_timer_init ; 0x80043b0
        0x080036ba:    4638        8F      MOV      r0,r7
        0x080036bc:    6ae9        .j      LDR      r1,[r5,#0x2c]
        0x080036be:    f000fe6f    ..o.    BL       platform_timer_cutdown ; 0x80043a0
        0x080036c2:    e00c        ..      B        0x80036de ; mqtt_send_packet + 54
        0x080036c4:    4638        8F      MOV      r0,r7
        0x080036c6:    f000fe83    ....    BL       platform_timer_remain ; 0x80043d0
        0x080036ca:    4603        .F      MOV      r3,r0
        0x080036cc:    6a28        (j      LDR      r0,[r5,#0x20]
        0x080036ce:    4632        2F      MOV      r2,r6
        0x080036d0:    1901        ..      ADDS     r1,r0,r4
        0x080036d2:    6ea8        .n      LDR      r0,[r5,#0x68]
        0x080036d4:    f000fc74    ..t.    BL       network_write ; 0x8003fc0
        0x080036d8:    2800        .(      CMP      r0,#0
        0x080036da:    dd07        ..      BLE      0x80036ec ; mqtt_send_packet + 68
        0x080036dc:    4404        .D      ADD      r4,r4,r0
        0x080036de:    42b4        .B      CMP      r4,r6
        0x080036e0:    da04        ..      BGE      0x80036ec ; mqtt_send_packet + 68
        0x080036e2:    4638        8F      MOV      r0,r7
        0x080036e4:    f000fe67    ..g.    BL       platform_timer_is_expired ; 0x80043b6
        0x080036e8:    2800        .(      CMP      r0,#0
        0x080036ea:    d0eb        ..      BEQ      0x80036c4 ; mqtt_send_packet + 28
        0x080036ec:    42b4        .B      CMP      r4,r6
        0x080036ee:    d10a        ..      BNE      0x8003706 ; mqtt_send_packet + 94
        0x080036f0:    8ca9        ..      LDRH     r1,[r5,#0x24]
        0x080036f2:    f44f707a    O.zp    MOV      r0,#0x3e8
        0x080036f6:    4341        AC      MULS     r1,r0,r1
        0x080036f8:    f1050074    ..t.    ADD      r0,r5,#0x74
        0x080036fc:    f000fe50    ..P.    BL       platform_timer_cutdown ; 0x80043a0
        0x08003700:    2000        .       MOVS     r0,#0
        0x08003702:    e8bd81f0    ....    POP      {r4-r8,pc}
        0x08003706:    f06f0012    o...    MVN      r0,#0x12
        0x0800370a:    e7fa        ..      B        0x8003702 ; mqtt_send_packet + 90
    i.mqtt_set_clean_session
    mqtt_set_clean_session
        0x0800370c:    b510        ..      PUSH     {r4,lr}
        0x0800370e:    b130        0.      CBZ      r0,0x800371e ; mqtt_set_clean_session + 18
        0x08003710:    6a82        .j      LDR      r2,[r0,#0x28]
        0x08003712:    f3610241    a.A.    BFI      r2,r1,#1,#1
        0x08003716:    6282        .b      STR      r2,[r0,#0x28]
        0x08003718:    f3c20040    ..@.    UBFX     r0,r2,#1,#1
        0x0800371c:    bd10        ..      POP      {r4,pc}
        0x0800371e:    4b06        .K      LDR      r3,[pc,#24] ; [0x8003738] = 0x80063a2
        0x08003720:    f240425d    @.]B    MOV      r2,#0x45d
        0x08003724:    a105        ..      ADR      r1,{pc}+0x18 ; 0x800373c
        0x08003726:    a00f        ..      ADR      r0,{pc}+0x3e ; 0x8003764
        0x08003728:    f7fcfdc2    ....    BL       __2printf ; 0x80002b0
        0x0800372c:    a015        ..      ADR      r0,{pc}+0x58 ; 0x8003784
        0x0800372e:    f7fcfdbf    ....    BL       __2printf ; 0x80002b0
        0x08003732:    2000        .       MOVS     r0,#0
        0x08003734:    bd10        ..      POP      {r4,pc}
    $d
        0x08003736:    0000        ..      DCW    0
        0x08003738:    080063a2    .c..    DCD    134243234
        0x0800373c:    6d5c2e2e    ..\m    DCD    1834757678
        0x08003740:    63747471    qttc    DCD    1668576369
        0x08003744:    6e65696c    lien    DCD    1852139884
        0x08003748:    716d5c74    t\mq    DCD    1902992500
        0x0800374c:    6c637474    ttcl    DCD    1818457204
        0x08003750:    746e6569    ient    DCD    1953391977
        0x08003754:    74716d5c    \mqt    DCD    1953590620
        0x08003758:    696c6374    tcli    DCD    1768711028
        0x0800375c:    2e746e65    ent.    DCD    779382373
        0x08003760:    00000063    c...    DCD    99
        0x08003764:    253a7325    %s:%    DCD    624587557
        0x08003768:    73252064    d %s    DCD    1931812964
        0x0800376c:    2e2e2928    ()..    DCD    774777128
        0x08003770:    6863202e    . ch    DCD    1751326766
        0x08003774:    206b6365    eck     DCD    543908709
        0x08003778:    20726f66    for     DCD    544370534
        0x0800377c:    6f727265    erro    DCD    1869771365
        0x08003780:    00002e72    r...    DCD    11890
        0x08003784:    00000a0d    ....    DCD    2573
    $t
    i.mqtt_set_client_id
    mqtt_set_client_id
        0x08003788:    b510        ..      PUSH     {r4,lr}
        0x0800378a:    b110        ..      CBZ      r0,0x8003792 ; mqtt_set_client_id + 10
        0x0800378c:    6001        .`      STR      r1,[r0,#0]
        0x0800378e:    4608        .F      MOV      r0,r1
        0x08003790:    bd10        ..      POP      {r4,pc}
        0x08003792:    4b06        .K      LDR      r3,[pc,#24] ; [0x80037ac] = 0x80062fa
        0x08003794:    f2404254    @.TB    MOV      r2,#0x454
        0x08003798:    a105        ..      ADR      r1,{pc}+0x18 ; 0x80037b0
        0x0800379a:    a00f        ..      ADR      r0,{pc}+0x3e ; 0x80037d8
        0x0800379c:    f7fcfd88    ....    BL       __2printf ; 0x80002b0
        0x080037a0:    a015        ..      ADR      r0,{pc}+0x58 ; 0x80037f8
        0x080037a2:    f7fcfd85    ....    BL       __2printf ; 0x80002b0
        0x080037a6:    2000        .       MOVS     r0,#0
        0x080037a8:    bd10        ..      POP      {r4,pc}
    $d
        0x080037aa:    0000        ..      DCW    0
        0x080037ac:    080062fa    .b..    DCD    134243066
        0x080037b0:    6d5c2e2e    ..\m    DCD    1834757678
        0x080037b4:    63747471    qttc    DCD    1668576369
        0x080037b8:    6e65696c    lien    DCD    1852139884
        0x080037bc:    716d5c74    t\mq    DCD    1902992500
        0x080037c0:    6c637474    ttcl    DCD    1818457204
        0x080037c4:    746e6569    ient    DCD    1953391977
        0x080037c8:    74716d5c    \mqt    DCD    1953590620
        0x080037cc:    696c6374    tcli    DCD    1768711028
        0x080037d0:    2e746e65    ent.    DCD    779382373
        0x080037d4:    00000063    c...    DCD    99
        0x080037d8:    253a7325    %s:%    DCD    624587557
        0x080037dc:    73252064    d %s    DCD    1931812964
        0x080037e0:    2e2e2928    ()..    DCD    774777128
        0x080037e4:    6863202e    . ch    DCD    1751326766
        0x080037e8:    206b6365    eck     DCD    543908709
        0x080037ec:    20726f66    for     DCD    544370534
        0x080037f0:    6f727265    erro    DCD    1869771365
        0x080037f4:    00002e72    r...    DCD    11890
        0x080037f8:    00000a0d    ....    DCD    2573
    $t
    i.mqtt_set_client_state
    mqtt_set_client_state
        0x080037fc:    b570        p.      PUSH     {r4-r6,lr}
        0x080037fe:    4604        .F      MOV      r4,r0
        0x08003800:    3054        T0      ADDS     r0,r0,#0x54
        0x08003802:    460d        .F      MOV      r5,r1
        0x08003804:    4606        .F      MOV      r6,r0
        0x08003806:    f000fcb1    ....    BL       platform_mutex_lock ; 0x800416c
        0x0800380a:    f884504c    ..LP    STRB     r5,[r4,#0x4c]
        0x0800380e:    4630        0F      MOV      r0,r6
        0x08003810:    e8bd4070    ..p@    POP      {r4-r6,lr}
        0x08003814:    f000bcaf    ....    B.W      platform_mutex_unlock ; 0x8004176
    i.mqtt_set_host
    mqtt_set_host
        0x08003818:    b510        ..      PUSH     {r4,lr}
        0x0800381a:    b110        ..      CBZ      r0,0x8003822 ; mqtt_set_host + 10
        0x0800381c:    60c1        .`      STR      r1,[r0,#0xc]
        0x0800381e:    4608        .F      MOV      r0,r1
        0x08003820:    bd10        ..      POP      {r4,pc}
        0x08003822:    4b06        .K      LDR      r3,[pc,#24] ; [0x800383c] = 0x8006332
        0x08003824:    f2404257    @.WB    MOV      r2,#0x457
        0x08003828:    a105        ..      ADR      r1,{pc}+0x18 ; 0x8003840
        0x0800382a:    a00f        ..      ADR      r0,{pc}+0x3e ; 0x8003868
        0x0800382c:    f7fcfd40    ..@.    BL       __2printf ; 0x80002b0
        0x08003830:    a015        ..      ADR      r0,{pc}+0x58 ; 0x8003888
        0x08003832:    f7fcfd3d    ..=.    BL       __2printf ; 0x80002b0
        0x08003836:    2000        .       MOVS     r0,#0
        0x08003838:    bd10        ..      POP      {r4,pc}
    $d
        0x0800383a:    0000        ..      DCW    0
        0x0800383c:    08006332    2c..    DCD    134243122
        0x08003840:    6d5c2e2e    ..\m    DCD    1834757678
        0x08003844:    63747471    qttc    DCD    1668576369
        0x08003848:    6e65696c    lien    DCD    1852139884
        0x0800384c:    716d5c74    t\mq    DCD    1902992500
        0x08003850:    6c637474    ttcl    DCD    1818457204
        0x08003854:    746e6569    ient    DCD    1953391977
        0x08003858:    74716d5c    \mqt    DCD    1953590620
        0x0800385c:    696c6374    tcli    DCD    1768711028
        0x08003860:    2e746e65    ent.    DCD    779382373
        0x08003864:    00000063    c...    DCD    99
        0x08003868:    253a7325    %s:%    DCD    624587557
        0x0800386c:    73252064    d %s    DCD    1931812964
        0x08003870:    2e2e2928    ()..    DCD    774777128
        0x08003874:    6863202e    . ch    DCD    1751326766
        0x08003878:    206b6365    eck     DCD    543908709
        0x0800387c:    20726f66    for     DCD    544370534
        0x08003880:    6f727265    erro    DCD    1869771365
        0x08003884:    00002e72    r...    DCD    11890
        0x08003888:    00000a0d    ....    DCD    2573
    $t
    i.mqtt_set_password
    mqtt_set_password
        0x0800388c:    b510        ..      PUSH     {r4,lr}
        0x0800388e:    b110        ..      CBZ      r0,0x8003896 ; mqtt_set_password + 10
        0x08003890:    6081        .`      STR      r1,[r0,#8]
        0x08003892:    4608        .F      MOV      r0,r1
        0x08003894:    bd10        ..      POP      {r4,pc}
        0x08003896:    4b06        .K      LDR      r3,[pc,#24] ; [0x80038b0] = 0x8006320
        0x08003898:    f2404256    @.VB    MOV      r2,#0x456
        0x0800389c:    a105        ..      ADR      r1,{pc}+0x18 ; 0x80038b4
        0x0800389e:    a00f        ..      ADR      r0,{pc}+0x3e ; 0x80038dc
        0x080038a0:    f7fcfd06    ....    BL       __2printf ; 0x80002b0
        0x080038a4:    a015        ..      ADR      r0,{pc}+0x58 ; 0x80038fc
        0x080038a6:    f7fcfd03    ....    BL       __2printf ; 0x80002b0
        0x080038aa:    2000        .       MOVS     r0,#0
        0x080038ac:    bd10        ..      POP      {r4,pc}
    $d
        0x080038ae:    0000        ..      DCW    0
        0x080038b0:    08006320     c..    DCD    134243104
        0x080038b4:    6d5c2e2e    ..\m    DCD    1834757678
        0x080038b8:    63747471    qttc    DCD    1668576369
        0x080038bc:    6e65696c    lien    DCD    1852139884
        0x080038c0:    716d5c74    t\mq    DCD    1902992500
        0x080038c4:    6c637474    ttcl    DCD    1818457204
        0x080038c8:    746e6569    ient    DCD    1953391977
        0x080038cc:    74716d5c    \mqt    DCD    1953590620
        0x080038d0:    696c6374    tcli    DCD    1768711028
        0x080038d4:    2e746e65    ent.    DCD    779382373
        0x080038d8:    00000063    c...    DCD    99
        0x080038dc:    253a7325    %s:%    DCD    624587557
        0x080038e0:    73252064    d %s    DCD    1931812964
        0x080038e4:    2e2e2928    ()..    DCD    774777128
        0x080038e8:    6863202e    . ch    DCD    1751326766
        0x080038ec:    206b6365    eck     DCD    543908709
        0x080038f0:    20726f66    for     DCD    544370534
        0x080038f4:    6f727265    erro    DCD    1869771365
        0x080038f8:    00002e72    r...    DCD    11890
        0x080038fc:    00000a0d    ....    DCD    2573
    $t
    i.mqtt_set_port
    mqtt_set_port
        0x08003900:    b510        ..      PUSH     {r4,lr}
        0x08003902:    b110        ..      CBZ      r0,0x800390a ; mqtt_set_port + 10
        0x08003904:    6101        .a      STR      r1,[r0,#0x10]
        0x08003906:    4608        .F      MOV      r0,r1
        0x08003908:    bd10        ..      POP      {r4,pc}
        0x0800390a:    4b06        .K      LDR      r3,[pc,#24] ; [0x8003924] = 0x8006340
        0x0800390c:    f44f628b    O..b    MOV      r2,#0x458
        0x08003910:    a105        ..      ADR      r1,{pc}+0x18 ; 0x8003928
        0x08003912:    a00f        ..      ADR      r0,{pc}+0x3e ; 0x8003950
        0x08003914:    f7fcfccc    ....    BL       __2printf ; 0x80002b0
        0x08003918:    a015        ..      ADR      r0,{pc}+0x58 ; 0x8003970
        0x0800391a:    f7fcfcc9    ....    BL       __2printf ; 0x80002b0
        0x0800391e:    2000        .       MOVS     r0,#0
        0x08003920:    bd10        ..      POP      {r4,pc}
    $d
        0x08003922:    0000        ..      DCW    0
        0x08003924:    08006340    @c..    DCD    134243136
        0x08003928:    6d5c2e2e    ..\m    DCD    1834757678
        0x0800392c:    63747471    qttc    DCD    1668576369
        0x08003930:    6e65696c    lien    DCD    1852139884
        0x08003934:    716d5c74    t\mq    DCD    1902992500
        0x08003938:    6c637474    ttcl    DCD    1818457204
        0x0800393c:    746e6569    ient    DCD    1953391977
        0x08003940:    74716d5c    \mqt    DCD    1953590620
        0x08003944:    696c6374    tcli    DCD    1768711028
        0x08003948:    2e746e65    ent.    DCD    779382373
        0x0800394c:    00000063    c...    DCD    99
        0x08003950:    253a7325    %s:%    DCD    624587557
        0x08003954:    73252064    d %s    DCD    1931812964
        0x08003958:    2e2e2928    ()..    DCD    774777128
        0x0800395c:    6863202e    . ch    DCD    1751326766
        0x08003960:    206b6365    eck     DCD    543908709
        0x08003964:    20726f66    for     DCD    544370534
        0x08003968:    6f727265    erro    DCD    1869771365
        0x0800396c:    00002e72    r...    DCD    11890
        0x08003970:    00000a0d    ....    DCD    2573
    $t
    i.mqtt_set_user_name
    mqtt_set_user_name
        0x08003974:    b510        ..      PUSH     {r4,lr}
        0x08003976:    b110        ..      CBZ      r0,0x800397e ; mqtt_set_user_name + 10
        0x08003978:    6041        A`      STR      r1,[r0,#4]
        0x0800397a:    4608        .F      MOV      r0,r1
        0x0800397c:    bd10        ..      POP      {r4,pc}
        0x0800397e:    4b06        .K      LDR      r3,[pc,#24] ; [0x8003998] = 0x800630d
        0x08003980:    f2404255    @.UB    MOV      r2,#0x455
        0x08003984:    a105        ..      ADR      r1,{pc}+0x18 ; 0x800399c
        0x08003986:    a00f        ..      ADR      r0,{pc}+0x3e ; 0x80039c4
        0x08003988:    f7fcfc92    ....    BL       __2printf ; 0x80002b0
        0x0800398c:    a015        ..      ADR      r0,{pc}+0x58 ; 0x80039e4
        0x0800398e:    f7fcfc8f    ....    BL       __2printf ; 0x80002b0
        0x08003992:    2000        .       MOVS     r0,#0
        0x08003994:    bd10        ..      POP      {r4,pc}
    $d
        0x08003996:    0000        ..      DCW    0
        0x08003998:    0800630d    .c..    DCD    134243085
        0x0800399c:    6d5c2e2e    ..\m    DCD    1834757678
        0x080039a0:    63747471    qttc    DCD    1668576369
        0x080039a4:    6e65696c    lien    DCD    1852139884
        0x080039a8:    716d5c74    t\mq    DCD    1902992500
        0x080039ac:    6c637474    ttcl    DCD    1818457204
        0x080039b0:    746e6569    ient    DCD    1953391977
        0x080039b4:    74716d5c    \mqt    DCD    1953590620
        0x080039b8:    696c6374    tcli    DCD    1768711028
        0x080039bc:    2e746e65    ent.    DCD    779382373
        0x080039c0:    00000063    c...    DCD    99
        0x080039c4:    253a7325    %s:%    DCD    624587557
        0x080039c8:    73252064    d %s    DCD    1931812964
        0x080039cc:    2e2e2928    ()..    DCD    774777128
        0x080039d0:    6863202e    . ch    DCD    1751326766
        0x080039d4:    206b6365    eck     DCD    543908709
        0x080039d8:    20726f66    for     DCD    544370534
        0x080039dc:    6f727265    erro    DCD    1869771365
        0x080039e0:    00002e72    r...    DCD    11890
        0x080039e4:    00000a0d    ....    DCD    2573
    $t
    i.mqtt_suback_packet_handle
    mqtt_suback_packet_handle
        0x080039e8:    b530        0.      PUSH     {r4,r5,lr}
        0x080039ea:    b087        ..      SUB      sp,sp,#0x1c
        0x080039ec:    4604        .F      MOV      r4,r0
        0x080039ee:    2000        .       MOVS     r0,#0
        0x080039f0:    9004        ..      STR      r0,[sp,#0x10]
        0x080039f2:    9002        ..      STR      r0,[sp,#8]
        0x080039f4:    9003        ..      STR      r0,[sp,#0xc]
        0x080039f6:    4620         F      MOV      r0,r4
        0x080039f8:    f7fffac2    ....    BL       mqtt_is_connected ; 0x8002f80
        0x080039fc:    2800        .(      CMP      r0,#0
        0x080039fe:    d10d        ..      BNE      0x8003a1c ; mqtt_suback_packet_handle + 52
        0x08003a00:    6b21        !k      LDR      r1,[r4,#0x30]
        0x08003a02:    69e0        .i      LDR      r0,[r4,#0x1c]
        0x08003a04:    e9cd0100    ....    STRD     r0,r1,[sp,#0]
        0x08003a08:    ab02        ..      ADD      r3,sp,#8
        0x08003a0a:    aa04        ..      ADD      r2,sp,#0x10
        0x08003a0c:    2101        .!      MOVS     r1,#1
        0x08003a0e:    a805        ..      ADD      r0,sp,#0x14
        0x08003a10:    f7fef8f2    ....    BL       MQTTDeserialize_suback ; 0x8001bf8
        0x08003a14:    2801        .(      CMP      r0,#1
        0x08003a16:    d003        ..      BEQ      0x8003a20 ; mqtt_suback_packet_handle + 56
        0x08003a18:    f06f000c    o...    MVN      r0,#0xc
        0x08003a1c:    b007        ..      ADD      sp,sp,#0x1c
        0x08003a1e:    bd30        0.      POP      {r4,r5,pc}
        0x08003a20:    9802        ..      LDR      r0,[sp,#8]
        0x08003a22:    2880        .(      CMP      r0,#0x80
        0x08003a24:    d015        ..      BEQ      0x8003a52 ; mqtt_suback_packet_handle + 106
        0x08003a26:    2500        .%      MOVS     r5,#0
        0x08003a28:    ab03        ..      ADD      r3,sp,#0xc
        0x08003a2a:    f8bd2014    ...     LDRH     r2,[sp,#0x14]
        0x08003a2e:    2109        .!      MOVS     r1,#9
        0x08003a30:    4620         F      MOV      r0,r4
        0x08003a32:    f7feff79    ..y.    BL       mqtt_ack_list_unrecord ; 0x8002928
        0x08003a36:    9803        ..      LDR      r0,[sp,#0xc]
        0x08003a38:    b168        h.      CBZ      r0,0x8003a56 ; mqtt_suback_packet_handle + 110
        0x08003a3a:    b17d        }.      CBZ      r5,0x8003a5c ; mqtt_suback_packet_handle + 116
        0x08003a3c:    f7fffb51    ..Q.    BL       mqtt_msg_handler_destory ; 0x80030e2
        0x08003a40:    a011        ..      ADR      r0,{pc}+0x48 ; 0x8003a88
        0x08003a42:    f7fcfc35    ..5.    BL       __2printf ; 0x80002b0
        0x08003a46:    4817        .H      LDR      r0,[pc,#92] ; [0x8003aa4] = 0x8003bf0
        0x08003a48:    f7fcfc32    ..2.    BL       __2printf ; 0x80002b0
        0x08003a4c:    f06f000e    o...    MVN      r0,#0xe
        0x08003a50:    e7e4        ..      B        0x8003a1c ; mqtt_suback_packet_handle + 52
        0x08003a52:    2501        .%      MOVS     r5,#1
        0x08003a54:    e7e8        ..      B        0x8003a28 ; mqtt_suback_packet_handle + 64
        0x08003a56:    f06f0002    o...    MVN      r0,#2
        0x08003a5a:    e7df        ..      B        0x8003a1c ; mqtt_suback_packet_handle + 52
        0x08003a5c:    4605        .F      MOV      r5,r0
        0x08003a5e:    b144        D.      CBZ      r4,0x8003a72 ; mqtt_suback_packet_handle + 138
        0x08003a60:    4629        )F      MOV      r1,r5
        0x08003a62:    4620         F      MOV      r0,r4
        0x08003a64:    f7fffb48    ..H.    BL       mqtt_msg_handler_is_exist ; 0x80030f8
        0x08003a68:    b130        0.      CBZ      r0,0x8003a78 ; mqtt_suback_packet_handle + 144
        0x08003a6a:    4628        (F      MOV      r0,r5
        0x08003a6c:    f7fffb39    ..9.    BL       mqtt_msg_handler_destory ; 0x80030e2
        0x08003a70:    e007        ..      B        0x8003a82 ; mqtt_suback_packet_handle + 154
        0x08003a72:    f06f0001    o...    MVN      r0,#1
        0x08003a76:    e7d1        ..      B        0x8003a1c ; mqtt_suback_packet_handle + 52
        0x08003a78:    f1040158    ..X.    ADD      r1,r4,#0x58
        0x08003a7c:    4628        (F      MOV      r0,r5
        0x08003a7e:    f7fffb02    ....    BL       mqtt_list_add_tail ; 0x8003086
        0x08003a82:    2000        .       MOVS     r0,#0
        0x08003a84:    e7ca        ..      B        0x8003a1c ; mqtt_suback_packet_handle + 52
    $d
        0x08003a86:    0000        ..      DCW    0
        0x08003a88:    73627573    subs    DCD    1935832435
        0x08003a8c:    62697263    crib    DCD    1651077731
        0x08003a90:    6f742065    e to    DCD    1869881445
        0x08003a94:    20636970    pic     DCD    543385968
        0x08003a98:    6c696166    fail    DCD    1818845542
        0x08003a9c:    2e2e6465    ed..    DCD    774792293
        0x08003aa0:    0000002e    ....    DCD    46
        0x08003aa4:    08003bf0    .;..    DCD    134233072
    $t
    i.mqtt_subscribe
    mqtt_subscribe
        0x08003aa8:    e92d47ff    -..G    PUSH     {r0-r10,lr}
        0x08003aac:    b088        ..      SUB      sp,sp,#0x20
        0x08003aae:    4604        .F      MOV      r4,r0
        0x08003ab0:    2000        .       MOVS     r0,#0
        0x08003ab2:    9004        ..      STR      r0,[sp,#0x10]
        0x08003ab4:    9103        ..      STR      r1,[sp,#0xc]
        0x08003ab6:    9005        ..      STR      r0,[sp,#0x14]
        0x08003ab8:    f894004c    ..L.    LDRB     r0,[r4,#0x4c]
        0x08003abc:    461f        .F      MOV      r7,r3
        0x08003abe:    4688        .F      MOV      r8,r1
        0x08003ac0:    f06f0613    o...    MVN      r6,#0x13
        0x08003ac4:    2801        .(      CMP      r0,#1
        0x08003ac6:    d003        ..      BEQ      0x8003ad0 ; mqtt_subscribe + 40
        0x08003ac8:    1db0        ..      ADDS     r0,r6,#6
        0x08003aca:    b00c        ..      ADD      sp,sp,#0x30
        0x08003acc:    e8bd87f0    ....    POP      {r4-r10,pc}
        0x08003ad0:    f1040050    ..P.    ADD      r0,r4,#0x50
        0x08003ad4:    4682        .F      MOV      r10,r0
        0x08003ad6:    f000fb49    ..I.    BL       platform_mutex_lock ; 0x800416c
        0x08003ada:    4620         F      MOV      r0,r4
        0x08003adc:    f7fff9bf    ....    BL       mqtt_get_next_packet_id ; 0x8002e5e
        0x08003ae0:    4681        .F      MOV      r9,r0
        0x08003ae2:    aa0a        ..      ADD      r2,sp,#0x28
        0x08003ae4:    a903        ..      ADD      r1,sp,#0xc
        0x08003ae6:    2001        .       MOVS     r0,#1
        0x08003ae8:    e88d0007    ....    STM      sp,{r0-r2}
        0x08003aec:    464b        KF      MOV      r3,r9
        0x08003aee:    2200        ."      MOVS     r2,#0
        0x08003af0:    6b61        ak      LDR      r1,[r4,#0x34]
        0x08003af2:    6a20         j      LDR      r0,[r4,#0x20]
        0x08003af4:    f7fefa7a    ..z.    BL       MQTTSerialize_subscribe ; 0x8001fec
        0x08003af8:    1e05        ..      SUBS     r5,r0,#0
        0x08003afa:    dd17        ..      BLE      0x8003b2c ; mqtt_subscribe + 132
        0x08003afc:    4601        .F      MOV      r1,r0
        0x08003afe:    aa06        ..      ADD      r2,sp,#0x18
        0x08003b00:    4620         F      MOV      r0,r4
        0x08003b02:    f7fffdd1    ....    BL       mqtt_send_packet ; 0x80036a8
        0x08003b06:    0006        ..      MOVS     r6,r0
        0x08003b08:    d110        ..      BNE      0x8003b2c ; mqtt_subscribe + 132
        0x08003b0a:    b907        ..      CBNZ     r7,0x8003b0e ; mqtt_subscribe + 102
        0x08003b0c:    4f0d        .O      LDR      r7,[pc,#52] ; [0x8003b44] = 0x8002675
        0x08003b0e:    f89d1028    ..(.    LDRB     r1,[sp,#0x28]
        0x08003b12:    463a        :F      MOV      r2,r7
        0x08003b14:    4640        @F      MOV      r0,r8
        0x08003b16:    f7fffad0    ....    BL       mqtt_msg_handler_create ; 0x80030ba
        0x08003b1a:    b160        `.      CBZ      r0,0x8003b36 ; mqtt_subscribe + 142
        0x08003b1c:    9000        ..      STR      r0,[sp,#0]
        0x08003b1e:    b2ab        ..      UXTH     r3,r5
        0x08003b20:    464a        JF      MOV      r2,r9
        0x08003b22:    2109        .!      MOVS     r1,#9
        0x08003b24:    4620         F      MOV      r0,r4
        0x08003b26:    f7fefe79    ..y.    BL       mqtt_ack_list_record ; 0x800281c
        0x08003b2a:    4606        .F      MOV      r6,r0
        0x08003b2c:    4650        PF      MOV      r0,r10
        0x08003b2e:    f000fb22    ..".    BL       platform_mutex_unlock ; 0x8004176
        0x08003b32:    4630        0F      MOV      r0,r6
        0x08003b34:    e7c9        ..      B        0x8003aca ; mqtt_subscribe + 34
        0x08003b36:    4650        PF      MOV      r0,r10
        0x08003b38:    f000fb1d    ....    BL       platform_mutex_unlock ; 0x8004176
        0x08003b3c:    f06f0002    o...    MVN      r0,#2
        0x08003b40:    e7c3        ..      B        0x8003aca ; mqtt_subscribe + 34
    $d
        0x08003b42:    0000        ..      DCW    0
        0x08003b44:    08002675    u&..    DCD    134227573
    $t
    i.mqtt_try_do_reconnect
    mqtt_try_do_reconnect
        0x08003b48:    b538        8.      PUSH     {r3-r5,lr}
        0x08003b4a:    4605        .F      MOV      r5,r0
        0x08003b4c:    f890004c    ..L.    LDRB     r0,[r0,#0x4c]
        0x08003b50:    f06f0403    o...    MVN      r4,#3
        0x08003b54:    2801        .(      CMP      r0,#1
        0x08003b56:    d00c        ..      BEQ      0x8003b72 ; mqtt_try_do_reconnect + 42
        0x08003b58:    4628        (F      MOV      r0,r5
        0x08003b5a:    f7feff69    ..i.    BL       mqtt_connect ; 0x8002a30
        0x08003b5e:    0004        ..      MOVS     r4,r0
        0x08003b60:    d107        ..      BNE      0x8003b72 ; mqtt_try_do_reconnect + 42
        0x08003b62:    4628        (F      MOV      r0,r5
        0x08003b64:    f000f846    ..F.    BL       mqtt_try_resubscribe ; 0x8003bf4
        0x08003b68:    4604        .F      MOV      r4,r0
        0x08003b6a:    2100        .!      MOVS     r1,#0
        0x08003b6c:    4628        (F      MOV      r0,r5
        0x08003b6e:    f7fefeac    ....    BL       mqtt_ack_list_scan ; 0x80028ca
        0x08003b72:    4260        `B      RSBS     r0,r4,#0
        0x08003b74:    9000        ..      STR      r0,[sp,#0]
        0x08003b76:    4b06        .K      LDR      r3,[pc,#24] ; [0x8003b90] = 0x800624a
        0x08003b78:    f240224d    @.M"    MOV      r2,#0x24d
        0x08003b7c:    a105        ..      ADR      r1,{pc}+0x18 ; 0x8003b94
        0x08003b7e:    a00f        ..      ADR      r0,{pc}+0x3e ; 0x8003bbc
        0x08003b80:    f7fcfb96    ....    BL       __2printf ; 0x80002b0
        0x08003b84:    a01a        ..      ADR      r0,{pc}+0x6c ; 0x8003bf0
        0x08003b86:    f7fcfb93    ....    BL       __2printf ; 0x80002b0
        0x08003b8a:    4620         F      MOV      r0,r4
        0x08003b8c:    bd38        8.      POP      {r3-r5,pc}
    $d
        0x08003b8e:    0000        ..      DCW    0
        0x08003b90:    0800624a    Jb..    DCD    134242890
        0x08003b94:    6d5c2e2e    ..\m    DCD    1834757678
        0x08003b98:    63747471    qttc    DCD    1668576369
        0x08003b9c:    6e65696c    lien    DCD    1852139884
        0x08003ba0:    716d5c74    t\mq    DCD    1902992500
        0x08003ba4:    6c637474    ttcl    DCD    1818457204
        0x08003ba8:    746e6569    ient    DCD    1953391977
        0x08003bac:    74716d5c    \mqt    DCD    1953590620
        0x08003bb0:    696c6374    tcli    DCD    1768711028
        0x08003bb4:    2e746e65    ent.    DCD    779382373
        0x08003bb8:    00000063    c...    DCD    99
        0x08003bbc:    253a7325    %s:%    DCD    624587557
        0x08003bc0:    73252064    d %s    DCD    1931812964
        0x08003bc4:    2e2e2928    ()..    DCD    774777128
        0x08003bc8:    716d202e    . mq    DCD    1902977070
        0x08003bcc:    74207474    tt t    DCD    1948284020
        0x08003bd0:    63207972    ry c    DCD    1663072626
        0x08003bd4:    656e6e6f    onne    DCD    1701736047
        0x08003bd8:    72207463    ct r    DCD    1914729571
        0x08003bdc:    6c757365    esul    DCD    1819636581
        0x08003be0:    73692074    t is    DCD    1936269428
        0x08003be4:    78302d20     -0x    DCD    2016423200
        0x08003be8:    78343025    %04x    DCD    2016686117
        0x08003bec:    00000000    ....    DCD    0
        0x08003bf0:    00000a0d    ....    DCD    2573
    $t
    i.mqtt_try_resubscribe
    mqtt_try_resubscribe
        0x08003bf4:    e92d41f0    -..A    PUSH     {r4-r8,lr}
        0x08003bf8:    4606        .F      MOV      r6,r0
        0x08003bfa:    f06f0514    o...    MVN      r5,#0x14
        0x08003bfe:    4b1d        .K      LDR      r3,[pc,#116] ; [0x8003c74] = 0x8006235
        0x08003c00:    f240222d    @.-"    MOV      r2,#0x22d
        0x08003c04:    a11c        ..      ADR      r1,{pc}+0x74 ; 0x8003c78
        0x08003c06:    a026        &.      ADR      r0,{pc}+0x9a ; 0x8003ca0
        0x08003c08:    f7fcfb52    ..R.    BL       __2printf ; 0x80002b0
        0x08003c0c:    a02e        ..      ADR      r0,{pc}+0xbc ; 0x8003cc8
        0x08003c0e:    f7fcfb4f    ..O.    BL       __2printf ; 0x80002b0
        0x08003c12:    f1060058    ..X.    ADD      r0,r6,#0x58
        0x08003c16:    4607        .F      MOV      r7,r0
        0x08003c18:    f7fffa48    ..H.    BL       mqtt_list_is_empty ; 0x80030ac
        0x08003c1c:    b160        `.      CBZ      r0,0x8003c38 ; mqtt_try_resubscribe + 68
        0x08003c1e:    4b15        .K      LDR      r3,[pc,#84] ; [0x8003c74] = 0x8006235
        0x08003c20:    f44f720c    O..r    MOV      r2,#0x230
        0x08003c24:    a114        ..      ADR      r1,{pc}+0x54 ; 0x8003c78
        0x08003c26:    a029        ).      ADR      r0,{pc}+0xa6 ; 0x8003ccc
        0x08003c28:    f7fcfb42    ..B.    BL       __2printf ; 0x80002b0
        0x08003c2c:    a026        &.      ADR      r0,{pc}+0x9c ; 0x8003cc8
        0x08003c2e:    f7fcfb3f    ..?.    BL       __2printf ; 0x80002b0
        0x08003c32:    2000        .       MOVS     r0,#0
        0x08003c34:    e8bd81f0    ....    POP      {r4-r8,pc}
        0x08003c38:    6db0        .m      LDR      r0,[r6,#0x58]
        0x08003c3a:    f2402839    @.9(    MOV      r8,#0x239
        0x08003c3e:    6804        .h      LDR      r4,[r0,#0]
        0x08003c40:    e014        ..      B        0x8003c6c ; mqtt_try_resubscribe + 120
        0x08003c42:    e9d01303    ....    LDRD     r1,r3,[r0,#0xc]
        0x08003c46:    7a02        .z      LDRB     r2,[r0,#8]
        0x08003c48:    4630        0F      MOV      r0,r6
        0x08003c4a:    f7ffff2d    ..-.    BL       mqtt_subscribe ; 0x8003aa8
        0x08003c4e:    4605        .F      MOV      r5,r0
        0x08003c50:    f1100f16    ....    CMN      r0,#0x16
        0x08003c54:    d108        ..      BNE      0x8003c68 ; mqtt_try_resubscribe + 116
        0x08003c56:    4b07        .K      LDR      r3,[pc,#28] ; [0x8003c74] = 0x8006235
        0x08003c58:    4642        BF      MOV      r2,r8
        0x08003c5a:    a107        ..      ADR      r1,{pc}+0x1e ; 0x8003c78
        0x08003c5c:    a026        &.      ADR      r0,{pc}+0x9c ; 0x8003cf8
        0x08003c5e:    f7fcfb27    ..'.    BL       __2printf ; 0x80002b0
        0x08003c62:    a019        ..      ADR      r0,{pc}+0x66 ; 0x8003cc8
        0x08003c64:    f7fcfb24    ..$.    BL       __2printf ; 0x80002b0
        0x08003c68:    4620         F      MOV      r0,r4
        0x08003c6a:    6824        $h      LDR      r4,[r4,#0]
        0x08003c6c:    42b8        .B      CMP      r0,r7
        0x08003c6e:    d1e8        ..      BNE      0x8003c42 ; mqtt_try_resubscribe + 78
        0x08003c70:    4628        (F      MOV      r0,r5
        0x08003c72:    e7df        ..      B        0x8003c34 ; mqtt_try_resubscribe + 64
    $d
        0x08003c74:    08006235    5b..    DCD    134242869
        0x08003c78:    6d5c2e2e    ..\m    DCD    1834757678
        0x08003c7c:    63747471    qttc    DCD    1668576369
        0x08003c80:    6e65696c    lien    DCD    1852139884
        0x08003c84:    716d5c74    t\mq    DCD    1902992500
        0x08003c88:    6c637474    ttcl    DCD    1818457204
        0x08003c8c:    746e6569    ient    DCD    1953391977
        0x08003c90:    74716d5c    \mqt    DCD    1953590620
        0x08003c94:    696c6374    tcli    DCD    1768711028
        0x08003c98:    2e746e65    ent.    DCD    779382373
        0x08003c9c:    00000063    c...    DCD    99
        0x08003ca0:    253a7325    %s:%    DCD    624587557
        0x08003ca4:    73252064    d %s    DCD    1931812964
        0x08003ca8:    2e2e2928    ()..    DCD    774777128
        0x08003cac:    716d202e    . mq    DCD    1902977070
        0x08003cb0:    74207474    tt t    DCD    1948284020
        0x08003cb4:    72207972    ry r    DCD    1914730866
        0x08003cb8:    62757365    esub    DCD    1651864421
        0x08003cbc:    69726373    scri    DCD    1769104243
        0x08003cc0:    2e206562    be .    DCD    773875042
        0x08003cc4:    00002e2e    ....    DCD    11822
        0x08003cc8:    00000a0d    ....    DCD    2573
        0x08003ccc:    253a7325    %s:%    DCD    624587557
        0x08003cd0:    73252064    d %s    DCD    1931812964
        0x08003cd4:    6d202928    () m    DCD    1830824232
        0x08003cd8:    5f747471    qtt_    DCD    1601467505
        0x08003cdc:    5f67736d    msg_    DCD    1600615277
        0x08003ce0:    646e6168    hand    DCD    1684955496
        0x08003ce4:    5f72656c    ler_    DCD    1601332588
        0x08003ce8:    7473696c    list    DCD    1953720684
        0x08003cec:    20736920     is     DCD    544434464
        0x08003cf0:    74706d65    empt    DCD    1953525093
        0x08003cf4:    00000079    y...    DCD    121
        0x08003cf8:    253a7325    %s:%    DCD    624587557
        0x08003cfc:    73252064    d %s    DCD    1931812964
        0x08003d00:    2e2e2928    ()..    DCD    774777128
        0x08003d04:    716d202e    . mq    DCD    1902977070
        0x08003d08:    61207474    tt a    DCD    1629516916
        0x08003d0c:    68206b63    ck h    DCD    1746955107
        0x08003d10:    6c646e61    andl    DCD    1818521185
        0x08003d14:    6e207265    er n    DCD    1847620197
        0x08003d18:    74206d75    um t    DCD    1948282229
        0x08003d1c:    6d206f6f    oo m    DCD    1830842223
        0x08003d20:    20686375    uch     DCD    543712117
        0x08003d24:    002e2e2e    ....    DCD    3026478
    $t
    i.mqtt_yield
    mqtt_yield
        0x08003d28:    b5f8        ..      PUSH     {r3-r7,lr}
        0x08003d2a:    460e        .F      MOV      r6,r1
        0x08003d2c:    0004        ..      MOVS     r4,r0
        0x08003d2e:    f04f0500    O...    MOV      r5,#0
        0x08003d32:    d001        ..      BEQ      0x8003d38 ; mqtt_yield + 16
        0x08003d34:    b11e        ..      CBZ      r6,0x8003d3e ; mqtt_yield + 22
        0x08003d36:    e003        ..      B        0x8003d40 ; mqtt_yield + 24
        0x08003d38:    f04f30ff    O..0    MOV      r0,#0xffffffff
        0x08003d3c:    bdf8        ..      POP      {r3-r7,pc}
        0x08003d3e:    6ae6        .j      LDR      r6,[r4,#0x2c]
        0x08003d40:    4668        hF      MOV      r0,sp
        0x08003d42:    f000fb35    ..5.    BL       platform_timer_init ; 0x80043b0
        0x08003d46:    4631        1F      MOV      r1,r6
        0x08003d48:    4668        hF      MOV      r0,sp
        0x08003d4a:    f000fb29    ..).    BL       platform_timer_cutdown ; 0x80043a0
        0x08003d4e:    f1040670    ..p.    ADD      r6,r4,#0x70
        0x08003d52:    e03d        =.      B        0x8003dd0 ; mqtt_yield + 168
        0x08003d54:    f994004c    ..L.    LDRSB    r0,[r4,#0x4c]
        0x08003d58:    2803        .(      CMP      r0,#3
        0x08003d5a:    d016        ..      BEQ      0x8003d8a ; mqtt_yield + 98
        0x08003d5c:    2801        .(      CMP      r0,#1
        0x08003d5e:    d01b        ..      BEQ      0x8003d98 ; mqtt_yield + 112
        0x08003d60:    4620         F      MOV      r0,r4
        0x08003d62:    f7fffef1    ....    BL       mqtt_try_do_reconnect ; 0x8003b48
        0x08003d66:    0005        ..      MOVS     r5,r0
        0x08003d68:    d032        2.      BEQ      0x8003dd0 ; mqtt_yield + 168
        0x08003d6a:    4630        0F      MOV      r0,r6
        0x08003d6c:    f000fb23    ..#.    BL       platform_timer_is_expired ; 0x80043b6
        0x08003d70:    b170        p.      CBZ      r0,0x8003d90 ; mqtt_yield + 104
        0x08003d72:    4630        0F      MOV      r0,r6
        0x08003d74:    6ba1        .k      LDR      r1,[r4,#0x38]
        0x08003d76:    f000fb13    ....    BL       platform_timer_cutdown ; 0x80043a0
        0x08003d7a:    6fe2        .o      LDR      r2,[r4,#0x7c]
        0x08003d7c:    b112        ..      CBZ      r2,0x8003d84 ; mqtt_yield + 92
        0x08003d7e:    4620         F      MOV      r0,r4
        0x08003d80:    69a1        .i      LDR      r1,[r4,#0x18]
        0x08003d82:    4790        .G      BLX      r2
        0x08003d84:    f06f050f    o...    MVN      r5,#0xf
        0x08003d88:    e027        '.      B        0x8003dda ; mqtt_yield + 178
        0x08003d8a:    f06f0017    o...    MVN      r0,#0x17
        0x08003d8e:    bdf8        ..      POP      {r3-r7,pc}
        0x08003d90:    f1150f10    ....    CMN      r5,#0x10
        0x08003d94:    d11c        ..      BNE      0x8003dd0 ; mqtt_yield + 168
        0x08003d96:    e020         .      B        0x8003dda ; mqtt_yield + 178
        0x08003d98:    4669        iF      MOV      r1,sp
        0x08003d9a:    4620         F      MOV      r0,r4
        0x08003d9c:    f7fff9fb    ....    BL       mqtt_packet_handle ; 0x8003196
        0x08003da0:    0005        ..      MOVS     r5,r0
        0x08003da2:    d404        ..      BMI      0x8003dae ; mqtt_yield + 134
        0x08003da4:    2101        .!      MOVS     r1,#1
        0x08003da6:    4620         F      MOV      r0,r4
        0x08003da8:    f7fefd8f    ....    BL       mqtt_ack_list_scan ; 0x80028ca
        0x08003dac:    e010        ..      B        0x8003dd0 ; mqtt_yield + 168
        0x08003dae:    f1150f0e    ....    CMN      r5,#0xe
        0x08003db2:    d112        ..      BNE      0x8003dda ; mqtt_yield + 178
        0x08003db4:    4b0a        .K      LDR      r3,[pc,#40] ; [0x8003de0] = 0x8006260
        0x08003db6:    f44f7261    O.ar    MOV      r2,#0x384
        0x08003dba:    a10a        ..      ADR      r1,{pc}+0x2a ; 0x8003de4
        0x08003dbc:    a013        ..      ADR      r0,{pc}+0x50 ; 0x8003e0c
        0x08003dbe:    f7fcfa77    ..w.    BL       __2printf ; 0x80002b0
        0x08003dc2:    a01a        ..      ADR      r0,{pc}+0x6a ; 0x8003e2c
        0x08003dc4:    f7fcfa74    ..t.    BL       __2printf ; 0x80002b0
        0x08003dc8:    4630        0F      MOV      r0,r6
        0x08003dca:    6ba1        .k      LDR      r1,[r4,#0x38]
        0x08003dcc:    f000fae8    ....    BL       platform_timer_cutdown ; 0x80043a0
        0x08003dd0:    4668        hF      MOV      r0,sp
        0x08003dd2:    f000faf0    ....    BL       platform_timer_is_expired ; 0x80043b6
        0x08003dd6:    2800        .(      CMP      r0,#0
        0x08003dd8:    d0bc        ..      BEQ      0x8003d54 ; mqtt_yield + 44
        0x08003dda:    4628        (F      MOV      r0,r5
        0x08003ddc:    bdf8        ..      POP      {r3-r7,pc}
    $d
        0x08003dde:    0000        ..      DCW    0
        0x08003de0:    08006260    `b..    DCD    134242912
        0x08003de4:    6d5c2e2e    ..\m    DCD    1834757678
        0x08003de8:    63747471    qttc    DCD    1668576369
        0x08003dec:    6e65696c    lien    DCD    1852139884
        0x08003df0:    716d5c74    t\mq    DCD    1902992500
        0x08003df4:    6c637474    ttcl    DCD    1818457204
        0x08003df8:    746e6569    ient    DCD    1953391977
        0x08003dfc:    74716d5c    \mqt    DCD    1953590620
        0x08003e00:    696c6374    tcli    DCD    1768711028
        0x08003e04:    2e746e65    ent.    DCD    779382373
        0x08003e08:    00000063    c...    DCD    99
        0x08003e0c:    253a7325    %s:%    DCD    624587557
        0x08003e10:    73252064    d %s    DCD    1931812964
        0x08003e14:    2e2e2928    ()..    DCD    774777128
        0x08003e18:    716d202e    . mq    DCD    1902977070
        0x08003e1c:    6e207474    tt n    DCD    1847620724
        0x08003e20:    6320746f    ot c    DCD    1663071343
        0x08003e24:    656e6e6f    onne    DCD    1701736047
        0x08003e28:    00007463    ct..    DCD    29795
        0x08003e2c:    00000a0d    ....    DCD    2573
    $t
    i.mqtt_yield_thread
    mqtt_yield_thread
        0x08003e30:    b570        p.      PUSH     {r4-r6,lr}
        0x08003e32:    4604        .F      MOV      r4,r0
        0x08003e34:    f890004c    ..L.    LDRB     r0,[r0,#0x4c]
        0x08003e38:    2801        .(      CMP      r0,#1
        0x08003e3a:    d00c        ..      BEQ      0x8003e56 ; mqtt_yield_thread + 38
        0x08003e3c:    4b1b        .K      LDR      r3,[pc,#108] ; [0x8003eac] = 0x800626b
        0x08003e3e:    f44f7266    O.fr    MOV      r2,#0x398
        0x08003e42:    a11b        ..      ADR      r1,{pc}+0x6e ; 0x8003eb0
        0x08003e44:    a024        $.      ADR      r0,{pc}+0x94 ; 0x8003ed8
        0x08003e46:    f7fcfa33    ..3.    BL       __2printf ; 0x80002b0
        0x08003e4a:    a031        1.      ADR      r0,{pc}+0xc6 ; 0x8003f10
        0x08003e4c:    f7fcfa30    ..0.    BL       __2printf ; 0x80002b0
        0x08003e50:    6ee0        .n      LDR      r0,[r4,#0x6c]
        0x08003e52:    f000faa2    ....    BL       platform_thread_stop ; 0x800439a
        0x08003e56:    f44f7569    O.iu    MOV      r5,#0x3a4
        0x08003e5a:    4620         F      MOV      r0,r4
        0x08003e5c:    6ae1        .j      LDR      r1,[r4,#0x2c]
        0x08003e5e:    f7ffff63    ..c.    BL       mqtt_yield ; 0x8003d28
        0x08003e62:    f1100f18    ....    CMN      r0,#0x18
        0x08003e66:    d00b        ..      BEQ      0x8003e80 ; mqtt_yield_thread + 80
        0x08003e68:    3010        .0      ADDS     r0,r0,#0x10
        0x08003e6a:    d1f6        ..      BNE      0x8003e5a ; mqtt_yield_thread + 42
        0x08003e6c:    4b0f        .K      LDR      r3,[pc,#60] ; [0x8003eac] = 0x800626b
        0x08003e6e:    462a        *F      MOV      r2,r5
        0x08003e70:    a10f        ..      ADR      r1,{pc}+0x40 ; 0x8003eb0
        0x08003e72:    a028        (.      ADR      r0,{pc}+0xa2 ; 0x8003f14
        0x08003e74:    f7fcfa1c    ....    BL       __2printf ; 0x80002b0
        0x08003e78:    a025        %.      ADR      r0,{pc}+0x98 ; 0x8003f10
        0x08003e7a:    f7fcfa19    ....    BL       __2printf ; 0x80002b0
        0x08003e7e:    e7ec        ..      B        0x8003e5a ; mqtt_yield_thread + 42
        0x08003e80:    4b0a        .K      LDR      r3,[pc,#40] ; [0x8003eac] = 0x800626b
        0x08003e82:    f240329f    @..2    MOV      r2,#0x39f
        0x08003e86:    a10a        ..      ADR      r1,{pc}+0x2a ; 0x8003eb0
        0x08003e88:    a02d        -.      ADR      r0,{pc}+0xb8 ; 0x8003f40
        0x08003e8a:    f7fcfa11    ....    BL       __2printf ; 0x80002b0
        0x08003e8e:    a020         .      ADR      r0,{pc}+0x82 ; 0x8003f10
        0x08003e90:    f7fcfa0e    ....    BL       __2printf ; 0x80002b0
        0x08003e94:    6ea0        .n      LDR      r0,[r4,#0x68]
        0x08003e96:    f000f885    ....    BL       network_disconnect ; 0x8003fa4
        0x08003e9a:    4620         F      MOV      r0,r4
        0x08003e9c:    f7fefd76    ..v.    BL       mqtt_clean_session ; 0x800298c
        0x08003ea0:    6ee0        .n      LDR      r0,[r4,#0x6c]
        0x08003ea2:    e8bd4070    ..p@    POP      {r4-r6,lr}
        0x08003ea6:    f000ba4d    ..M.    B.W      platform_thread_destroy ; 0x8004344
    $d
        0x08003eaa:    0000        ..      DCW    0
        0x08003eac:    0800626b    kb..    DCD    134242923
        0x08003eb0:    6d5c2e2e    ..\m    DCD    1834757678
        0x08003eb4:    63747471    qttc    DCD    1668576369
        0x08003eb8:    6e65696c    lien    DCD    1852139884
        0x08003ebc:    716d5c74    t\mq    DCD    1902992500
        0x08003ec0:    6c637474    ttcl    DCD    1818457204
        0x08003ec4:    746e6569    ient    DCD    1953391977
        0x08003ec8:    74716d5c    \mqt    DCD    1953590620
        0x08003ecc:    696c6374    tcli    DCD    1768711028
        0x08003ed0:    2e746e65    ent.    DCD    779382373
        0x08003ed4:    00000063    c...    DCD    99
        0x08003ed8:    253a7325    %s:%    DCD    624587557
        0x08003edc:    73252064    d %s    DCD    1931812964
        0x08003ee0:    2e2e2928    ()..    DCD    774777128
        0x08003ee4:    6d202c2e    ., m    DCD    1830825006
        0x08003ee8:    20747471    qtt     DCD    544502897
        0x08003eec:    6e207369    is n    DCD    1847620457
        0x08003ef0:    6320746f    ot c    DCD    1663071343
        0x08003ef4:    656e6e6f    onne    DCD    1701736047
        0x08003ef8:    64657463    cted    DCD    1684370531
        0x08003efc:    206f7420     to     DCD    544175136
        0x08003f00:    20656874    the     DCD    543516788
        0x08003f04:    76726573    serv    DCD    1987208563
        0x08003f08:    2e2e7265    er..    DCD    774795877
        0x08003f0c:    0000002e    ....    DCD    46
        0x08003f10:    00000a0d    ....    DCD    2573
        0x08003f14:    253a7325    %s:%    DCD    624587557
        0x08003f18:    73252064    d %s    DCD    1931812964
        0x08003f1c:    2e2e2928    ()..    DCD    774777128
        0x08003f20:    6d202c2e    ., m    DCD    1830825006
        0x08003f24:    20747471    qtt     DCD    544502897
        0x08003f28:    6f636572    reco    DCD    1868785010
        0x08003f2c:    63656e6e    nnec    DCD    1667591790
        0x08003f30:    69742074    t ti    DCD    1769218164
        0x08003f34:    756f656d    meou    DCD    1970234733
        0x08003f38:    2e2e2e74    t...    DCD    774778484
        0x08003f3c:    0000002e    ....    DCD    46
        0x08003f40:    253a7325    %s:%    DCD    624587557
        0x08003f44:    73252064    d %s    DCD    1931812964
        0x08003f48:    2e2e2928    ()..    DCD    774777128
        0x08003f4c:    6d202c2e    ., m    DCD    1830825006
        0x08003f50:    20747471    qtt     DCD    544502897
        0x08003f54:    61656c63    clea    DCD    1634036835
        0x08003f58:    6573206e    n se    DCD    1702043758
        0x08003f5c:    6f697373    ssio    DCD    1869181811
        0x08003f60:    2e2e2e6e    n...    DCD    774778478
        0x08003f64:    0000002e    ....    DCD    46
    $t
    i.nettype_tcp_connect
    nettype_tcp_connect
        0x08003f68:    b510        ..      PUSH     {r4,lr}
        0x08003f6a:    4604        .F      MOV      r4,r0
        0x08003f6c:    2200        ."      MOVS     r2,#0
        0x08003f6e:    e9d40100    ....    LDRD     r0,r1,[r4,#0]
        0x08003f72:    f000f919    ....    BL       platform_net_socket_connect ; 0x80041a8
        0x08003f76:    60a0        .`      STR      r0,[r4,#8]
        0x08003f78:    2800        .(      CMP      r0,#0
        0x08003f7a:    db00        ..      BLT      0x8003f7e ; nettype_tcp_connect + 22
        0x08003f7c:    2000        .       MOVS     r0,#0
        0x08003f7e:    bd10        ..      POP      {r4,pc}
    i.nettype_tcp_disconnect
    nettype_tcp_disconnect
        0x08003f80:    b510        ..      PUSH     {r4,lr}
        0x08003f82:    0004        ..      MOVS     r4,r0
        0x08003f84:    d002        ..      BEQ      0x8003f8c ; nettype_tcp_disconnect + 12
        0x08003f86:    68a0        .h      LDR      r0,[r4,#8]
        0x08003f88:    f000f8fc    ....    BL       platform_net_socket_close ; 0x8004184
        0x08003f8c:    f04f30ff    O..0    MOV      r0,#0xffffffff
        0x08003f90:    60a0        .`      STR      r0,[r4,#8]
        0x08003f92:    bd10        ..      POP      {r4,pc}
    i.nettype_tcp_read
    nettype_tcp_read
        0x08003f94:    6880        .h      LDR      r0,[r0,#8]
        0x08003f96:    f000b983    ....    B.W      platform_net_socket_recv_timeout ; 0x80042a0
    i.nettype_tcp_write
    nettype_tcp_write
        0x08003f9a:    6880        .h      LDR      r0,[r0,#8]
        0x08003f9c:    f000b99a    ....    B.W      platform_net_socket_write_timeout ; 0x80042d4
    i.network_connect
    network_connect
        0x08003fa0:    f7ffbfe2    ....    B.W      nettype_tcp_connect ; 0x8003f68
    i.network_disconnect
    network_disconnect
        0x08003fa4:    f7ffbfec    ....    B.W      nettype_tcp_disconnect ; 0x8003f80
    i.network_init
    network_init
        0x08003fa8:    b128        (.      CBZ      r0,0x8003fb6 ; network_init + 14
        0x08003faa:    f04f33ff    O..3    MOV      r3,#0xffffffff
        0x08003fae:    e880000e    ....    STM      r0,{r1-r3}
        0x08003fb2:    2000        .       MOVS     r0,#0
        0x08003fb4:    4770        pG      BX       lr
        0x08003fb6:    f06f0001    o...    MVN      r0,#1
        0x08003fba:    4770        pG      BX       lr
    i.network_read
    network_read
        0x08003fbc:    f7ffbfea    ....    B.W      nettype_tcp_read ; 0x8003f94
    i.network_write
    network_write
        0x08003fc0:    f7ffbfeb    ....    B.W      nettype_tcp_write ; 0x8003f9a
    i.osDelay
    osDelay
        0x08003fc4:    b510        ..      PUSH     {r4,lr}
        0x08003fc6:    f3ef8105    ....    MRS      r1,IPSR
        0x08003fca:    b949        I.      CBNZ     r1,0x8003fe0 ; osDelay + 28
        0x08003fcc:    f3ef8110    ....    MRS      r1,PRIMASK
        0x08003fd0:    b931        1.      CBNZ     r1,0x8003fe0 ; osDelay + 28
        0x08003fd2:    4908        .I      LDR      r1,[pc,#32] ; [0x8003ff4] = 0x2000008c
        0x08003fd4:    6809        .h      LDR      r1,[r1,#0]
        0x08003fd6:    2902        .)      CMP      r1,#2
        0x08003fd8:    d105        ..      BNE      0x8003fe6 ; osDelay + 34
        0x08003fda:    f3ef8111    ....    MRS      r1,BASEPRI
        0x08003fde:    b111        ..      CBZ      r1,0x8003fe6 ; osDelay + 34
        0x08003fe0:    f06f0405    o...    MVN      r4,#5
        0x08003fe4:    e003        ..      B        0x8003fee ; osDelay + 42
        0x08003fe6:    2400        .$      MOVS     r4,#0
        0x08003fe8:    b108        ..      CBZ      r0,0x8003fee ; osDelay + 42
        0x08003fea:    f001f89b    ....    BL       vTaskDelay ; 0x8005124
        0x08003fee:    4620         F      MOV      r0,r4
        0x08003ff0:    bd10        ..      POP      {r4,pc}
    $d
        0x08003ff2:    0000        ..      DCW    0
        0x08003ff4:    2000008c    ...     DCD    536871052
    $t
    i.osKernelInitialize
    osKernelInitialize
        0x08003ff8:    f3ef8005    ....    MRS      r0,IPSR
        0x08003ffc:    b958        X.      CBNZ     r0,0x8004016 ; osKernelInitialize + 30
        0x08003ffe:    f3ef8010    ....    MRS      r0,PRIMASK
        0x08004002:    b940        @.      CBNZ     r0,0x8004016 ; osKernelInitialize + 30
        0x08004004:    4909        .I      LDR      r1,[pc,#36] ; [0x800402c] = 0x2000008c
        0x08004006:    6808        .h      LDR      r0,[r1,#0]
        0x08004008:    2802        .(      CMP      r0,#2
        0x0800400a:    d001        ..      BEQ      0x8004010 ; osKernelInitialize + 24
        0x0800400c:    b130        0.      CBZ      r0,0x800401c ; osKernelInitialize + 36
        0x0800400e:    e009        ..      B        0x8004024 ; osKernelInitialize + 44
        0x08004010:    f3ef8011    ....    MRS      r0,BASEPRI
        0x08004014:    b130        0.      CBZ      r0,0x8004024 ; osKernelInitialize + 44
        0x08004016:    f06f0005    o...    MVN      r0,#5
        0x0800401a:    4770        pG      BX       lr
        0x0800401c:    2001        .       MOVS     r0,#1
        0x0800401e:    6008        .`      STR      r0,[r1,#0]
        0x08004020:    2000        .       MOVS     r0,#0
        0x08004022:    4770        pG      BX       lr
        0x08004024:    f04f30ff    O..0    MOV      r0,#0xffffffff
        0x08004028:    4770        pG      BX       lr
    $d
        0x0800402a:    0000        ..      DCW    0
        0x0800402c:    2000008c    ...     DCD    536871052
    $t
    i.osKernelStart
    osKernelStart
        0x08004030:    b510        ..      PUSH     {r4,lr}
        0x08004032:    f3ef8005    ....    MRS      r0,IPSR
        0x08004036:    b960        `.      CBNZ     r0,0x8004052 ; osKernelStart + 34
        0x08004038:    f3ef8010    ....    MRS      r0,PRIMASK
        0x0800403c:    b948        H.      CBNZ     r0,0x8004052 ; osKernelStart + 34
        0x0800403e:    490b        .I      LDR      r1,[pc,#44] ; [0x800406c] = 0x2000008c
        0x08004040:    6808        .h      LDR      r0,[r1,#0]
        0x08004042:    2802        .(      CMP      r0,#2
        0x08004044:    d002        ..      BEQ      0x800404c ; osKernelStart + 28
        0x08004046:    2801        .(      CMP      r0,#1
        0x08004048:    d006        ..      BEQ      0x8004058 ; osKernelStart + 40
        0x0800404a:    e00b        ..      B        0x8004064 ; osKernelStart + 52
        0x0800404c:    f3ef8011    ....    MRS      r0,BASEPRI
        0x08004050:    b140        @.      CBZ      r0,0x8004064 ; osKernelStart + 52
        0x08004052:    f06f0005    o...    MVN      r0,#5
        0x08004056:    bd10        ..      POP      {r4,pc}
        0x08004058:    2002        .       MOVS     r0,#2
        0x0800405a:    6008        .`      STR      r0,[r1,#0]
        0x0800405c:    f001f998    ....    BL       vTaskStartScheduler ; 0x8005390
        0x08004060:    2000        .       MOVS     r0,#0
        0x08004062:    bd10        ..      POP      {r4,pc}
        0x08004064:    f04f30ff    O..0    MOV      r0,#0xffffffff
        0x08004068:    bd10        ..      POP      {r4,pc}
    $d
        0x0800406a:    0000        ..      DCW    0
        0x0800406c:    2000008c    ...     DCD    536871052
    $t
    i.osThreadNew
    osThreadNew
        0x08004070:    b5f0        ..      PUSH     {r4-r7,lr}
        0x08004072:    b085        ..      SUB      sp,sp,#0x14
        0x08004074:    ea4f0301    O...    MOV.W    r3,r1
        0x08004078:    f04f0400    O...    MOV      r4,#0
        0x0800407c:    f3ef8105    ....    MRS      r1,IPSR
        0x08004080:    9403        ..      STR      r4,[sp,#0xc]
        0x08004082:    bba9        ..      CBNZ     r1,0x80040f0 ; osThreadNew + 128
        0x08004084:    f3ef8110    ....    MRS      r1,PRIMASK
        0x08004088:    bb91        ..      CBNZ     r1,0x80040f0 ; osThreadNew + 128
        0x0800408a:    4922        "I      LDR      r1,[pc,#136] ; [0x8004114] = 0x2000008c
        0x0800408c:    6809        .h      LDR      r1,[r1,#0]
        0x0800408e:    2902        .)      CMP      r1,#2
        0x08004090:    d102        ..      BNE      0x8004098 ; osThreadNew + 40
        0x08004092:    f3ef8111    ....    MRS      r1,BASEPRI
        0x08004096:    bb59        Y.      CBNZ     r1,0x80040f0 ; osThreadNew + 128
        0x08004098:    b350        P.      CBZ      r0,0x80040f0 ; osThreadNew + 128
        0x0800409a:    f44f7600    O..v    MOV      r6,#0x200
        0x0800409e:    2118        .!      MOVS     r1,#0x18
        0x080040a0:    f88d4010    ...@    STRB     r4,[sp,#0x10]
        0x080040a4:    ad04        ..      ADD      r5,sp,#0x10
        0x080040a6:    b342        B.      CBZ      r2,0x80040fa ; osThreadNew + 138
        0x080040a8:    6817        .h      LDR      r7,[r2,#0]
        0x080040aa:    b107        ..      CBZ      r7,0x80040ae ; osThreadNew + 62
        0x080040ac:    463d        =F      MOV      r5,r7
        0x080040ae:    6997        .i      LDR      r7,[r2,#0x18]
        0x080040b0:    b11f        ..      CBZ      r7,0x80040ba ; osThreadNew + 74
        0x080040b2:    4639        9F      MOV      r1,r7
        0x080040b4:    1e7f        ..      SUBS     r7,r7,#1
        0x080040b6:    2f38        8/      CMP      r7,#0x38
        0x080040b8:    d202        ..      BCS      0x80040c0 ; osThreadNew + 80
        0x080040ba:    7917        .y      LDRB     r7,[r2,#4]
        0x080040bc:    07ff        ..      LSLS     r7,r7,#31
        0x080040be:    d002        ..      BEQ      0x80040c6 ; osThreadNew + 86
        0x080040c0:    2000        .       MOVS     r0,#0
        0x080040c2:    b005        ..      ADD      sp,sp,#0x14
        0x080040c4:    bdf0        ..      POP      {r4-r7,pc}
        0x080040c6:    6957        Wi      LDR      r7,[r2,#0x14]
        0x080040c8:    b107        ..      CBZ      r7,0x80040cc ; osThreadNew + 92
        0x080040ca:    08be        ..      LSRS     r6,r7,#2
        0x080040cc:    f8d2c008    ....    LDR      r12,[r2,#8]
        0x080040d0:    f1bc0f00    ....    CMP      r12,#0
        0x080040d4:    d00d        ..      BEQ      0x80040f2 ; osThreadNew + 130
        0x080040d6:    68d4        .h      LDR      r4,[r2,#0xc]
        0x080040d8:    2c5c        \,      CMP      r4,#0x5c
        0x080040da:    d318        ..      BCC      0x800410e ; osThreadNew + 158
        0x080040dc:    6912        .i      LDR      r2,[r2,#0x10]
        0x080040de:    b13a        :.      CBZ      r2,0x80040f0 ; osThreadNew + 128
        0x080040e0:    b137        7.      CBZ      r7,0x80040f0 ; osThreadNew + 128
        0x080040e2:    e88d1006    ....    STM      sp,{r1,r2,r12}
        0x080040e6:    4632        2F      MOV      r2,r6
        0x080040e8:    4629        )F      MOV      r1,r5
        0x080040ea:    f001fe28    ..(.    BL       xTaskCreateStatic ; 0x8005d3e
        0x080040ee:    9003        ..      STR      r0,[sp,#0xc]
        0x080040f0:    e00d        ..      B        0x800410e ; osThreadNew + 158
        0x080040f2:    68d7        .h      LDR      r7,[r2,#0xc]
        0x080040f4:    b95f        _.      CBNZ     r7,0x800410e ; osThreadNew + 158
        0x080040f6:    6912        .i      LDR      r2,[r2,#0x10]
        0x080040f8:    b94a        J.      CBNZ     r2,0x800410e ; osThreadNew + 158
        0x080040fa:    aa03        ..      ADD      r2,sp,#0xc
        0x080040fc:    e9cd1200    ....    STRD     r1,r2,[sp,#0]
        0x08004100:    b2b2        ..      UXTH     r2,r6
        0x08004102:    4629        )F      MOV      r1,r5
        0x08004104:    f001fdee    ....    BL       xTaskCreate ; 0x8005ce4
        0x08004108:    2801        .(      CMP      r0,#1
        0x0800410a:    d000        ..      BEQ      0x800410e ; osThreadNew + 158
        0x0800410c:    9403        ..      STR      r4,[sp,#0xc]
        0x0800410e:    9803        ..      LDR      r0,[sp,#0xc]
        0x08004110:    e7d7        ..      B        0x80040c2 ; osThreadNew + 82
    $d
        0x08004112:    0000        ..      DCW    0
        0x08004114:    2000008c    ...     DCD    536871052
    $t
    i.platform_memory_alloc
    platform_memory_alloc
        0x08004118:    b570        p.      PUSH     {r4-r6,lr}
        0x0800411a:    4605        .F      MOV      r5,r0
        0x0800411c:    f000fd2c    ..,.    BL       pvPortMalloc ; 0x8004b78
        0x08004120:    0004        ..      MOVS     r4,r0
        0x08004122:    4629        )F      MOV      r1,r5
        0x08004124:    d002        ..      BEQ      0x800412c ; platform_memory_alloc + 20
        0x08004126:    f7fcfb5e    ..^.    BL       __aeabi_memclr ; 0x80007e6
        0x0800412a:    e002        ..      B        0x8004132 ; platform_memory_alloc + 26
        0x0800412c:    a002        ..      ADR      r0,{pc}+0xc ; 0x8004138
        0x0800412e:    f7fcf8bf    ....    BL       __2printf ; 0x80002b0
        0x08004132:    4620         F      MOV      r0,r4
        0x08004134:    bd70        p.      POP      {r4-r6,pc}
    $d
        0x08004136:    0000        ..      DCW    0
        0x08004138:    74616c70    plat    DCD    1952541808
        0x0800413c:    6d726f66    form    DCD    1836216166
        0x08004140:    6d656d5f    _mem    DCD    1835363679
        0x08004144:    5f79726f    ory_    DCD    1601794671
        0x08004148:    6f6c6c61    allo    DCD    1869376609
        0x0800414c:    64252863    c(%d    DCD    1680156771
        0x08004150:    72652029    ) er    DCD    1919229993
        0x08004154:    000a0d72    r...    DCD    658802
    $t
    i.platform_memory_free
    platform_memory_free
        0x08004158:    f000bf44    ..D.    B.W      vPortFree ; 0x8004fe4
    i.platform_mutex_init
    platform_mutex_init
        0x0800415c:    b510        ..      PUSH     {r4,lr}
        0x0800415e:    4604        .F      MOV      r4,r0
        0x08004160:    2001        .       MOVS     r0,#1
        0x08004162:    f001fa79    ..y.    BL       xQueueCreateMutex ; 0x8005658
        0x08004166:    6020         `      STR      r0,[r4,#0]
        0x08004168:    2000        .       MOVS     r0,#0
        0x0800416a:    bd10        ..      POP      {r4,pc}
    i.platform_mutex_lock
    platform_mutex_lock
        0x0800416c:    6800        .h      LDR      r0,[r0,#0]
        0x0800416e:    f04f31ff    O..1    MOV      r1,#0xffffffff
        0x08004172:    f001bcc1    ....    B.W      xQueueSemaphoreTake ; 0x8005af8
    i.platform_mutex_unlock
    platform_mutex_unlock
        0x08004176:    2300        .#      MOVS     r3,#0
        0x08004178:    6800        .h      LDR      r0,[r0,#0]
        0x0800417a:    461a        .F      MOV      r2,r3
        0x0800417c:    4619        .F      MOV      r1,r3
        0x0800417e:    f001bb11    ....    B.W      xQueueGenericSend ; 0x80057a4
        0x08004182:    0000        ..      MOVS     r0,r0
    i.platform_net_socket_close
    platform_net_socket_close
        0x08004184:    b510        ..      PUSH     {r4,lr}
        0x08004186:    f44f72fa    O..r    MOV      r2,#0x1f4
        0x0800418a:    a103        ..      ADR      r1,{pc}+0xe ; 0x8004198
        0x0800418c:    a003        ..      ADR      r0,{pc}+0x10 ; 0x800419c
        0x0800418e:    f7fcfd4d    ..M.    BL       ESP8266_SendCommand ; 0x8000c2c
        0x08004192:    2000        .       MOVS     r0,#0
        0x08004194:    bd10        ..      POP      {r4,pc}
    $d
        0x08004196:    0000        ..      DCW    0
        0x08004198:    00004b4f    OK..    DCD    19279
        0x0800419c:    432b5441    AT+C    DCD    1126913089
        0x080041a0:    4c435049    IPCL    DCD    1279479881
        0x080041a4:    0045534f    OSE.    DCD    4543311
    $t
    i.platform_net_socket_connect
    platform_net_socket_connect
        0x080041a8:    e92d43f0    -..C    PUSH     {r4-r9,lr}
        0x080041ac:    4688        .F      MOV      r8,r1
        0x080041ae:    4681        .F      MOV      r9,r0
        0x080041b0:    b099        ..      SUB      sp,sp,#0x64
        0x080041b2:    a520         .      ADR      r5,{pc}+0x82 ; 0x8004234
        0x080041b4:    a422        ".      ADR      r4,{pc}+0x8c ; 0x8004240
        0x080041b6:    f44f62fa    O..b    MOV      r2,#0x7d0
        0x080041ba:    a124        $.      ADR      r1,{pc}+0x92 ; 0x800424c
        0x080041bc:    a024        $.      ADR      r0,{pc}+0x94 ; 0x8004250
        0x080041be:    f7fcfd35    ..5.    BL       ESP8266_SendCommand ; 0x8000c2c
        0x080041c2:    f04f36ff    O..6    MOV      r6,#0xffffffff
        0x080041c6:    2800        .(      CMP      r0,#0
        0x080041c8:    d12b        +.      BNE      0x8004222 ; platform_net_socket_connect + 122
        0x080041ca:    f44f7048    O.Hp    MOV      r0,#0x320
        0x080041ce:    f7fcfdff    ....    BL       HAL_Delay ; 0x8000dd0
        0x080041d2:    f44f77fa    O..w    MOV      r7,#0x1f4
        0x080041d6:    463a        :F      MOV      r2,r7
        0x080041d8:    a11c        ..      ADR      r1,{pc}+0x74 ; 0x800424c
        0x080041da:    a01f        ..      ADR      r0,{pc}+0x7e ; 0x8004258
        0x080041dc:    f7fcfd26    ..&.    BL       ESP8266_SendCommand ; 0x8000c2c
        0x080041e0:    2800        .(      CMP      r0,#0
        0x080041e2:    d11e        ..      BNE      0x8004222 ; platform_net_socket_connect + 122
        0x080041e4:    4623        #F      MOV      r3,r4
        0x080041e6:    462a        *F      MOV      r2,r5
        0x080041e8:    a11e        ..      ADR      r1,{pc}+0x7c ; 0x8004264
        0x080041ea:    4668        hF      MOV      r0,sp
        0x080041ec:    f7fcf86c    ..l.    BL       __2sprintf ; 0x80002c8
        0x080041f0:    f2413488    A..4    MOV      r4,#0x1388
        0x080041f4:    4622        "F      MOV      r2,r4
        0x080041f6:    a115        ..      ADR      r1,{pc}+0x56 ; 0x800424c
        0x080041f8:    4668        hF      MOV      r0,sp
        0x080041fa:    f7fcfd17    ....    BL       ESP8266_SendCommand ; 0x8000c2c
        0x080041fe:    b980        ..      CBNZ     r0,0x8004222 ; platform_net_socket_connect + 122
        0x08004200:    463a        :F      MOV      r2,r7
        0x08004202:    a112        ..      ADR      r1,{pc}+0x4a ; 0x800424c
        0x08004204:    a01c        ..      ADR      r0,{pc}+0x74 ; 0x8004278
        0x08004206:    f7fcfd11    ....    BL       ESP8266_SendCommand ; 0x8000c2c
        0x0800420a:    4643        CF      MOV      r3,r8
        0x0800420c:    464a        JF      MOV      r2,r9
        0x0800420e:    a11d        ..      ADR      r1,{pc}+0x76 ; 0x8004284
        0x08004210:    4668        hF      MOV      r0,sp
        0x08004212:    f7fcf859    ..Y.    BL       __2sprintf ; 0x80002c8
        0x08004216:    4622        "F      MOV      r2,r4
        0x08004218:    a10c        ..      ADR      r1,{pc}+0x34 ; 0x800424c
        0x0800421a:    4668        hF      MOV      r0,sp
        0x0800421c:    f7fcfd06    ....    BL       ESP8266_SendCommand ; 0x8000c2c
        0x08004220:    b118        ..      CBZ      r0,0x800422a ; platform_net_socket_connect + 130
        0x08004222:    4630        0F      MOV      r0,r6
        0x08004224:    b019        ..      ADD      sp,sp,#0x64
        0x08004226:    e8bd83f0    ....    POP      {r4-r9,pc}
        0x0800422a:    f7fcfcb5    ....    BL       ESP8266_GetIP ; 0x8000b98
        0x0800422e:    2000        .       MOVS     r0,#0
        0x08004230:    e7f8        ..      B        0x8004224 ; platform_net_socket_connect + 124
    $d
        0x08004232:    0000        ..      DCW    0
        0x08004234:    31303257    W201    DCD    825242199
        0x08004238:    48343133    314H    DCD    1211380019
        0x0800423c:    00000000    ....    DCD    0
        0x08004240:    75676568    hegu    DCD    1969710440
        0x08004244:    6f61626f    obao    DCD    1868653167
        0x08004248:    00000000    ....    DCD    0
        0x0800424c:    00004b4f    OK..    DCD    19279
        0x08004250:    522b5441    AT+R    DCD    1378571329
        0x08004254:    00005453    ST..    DCD    21587
        0x08004258:    432b5441    AT+C    DCD    1126913089
        0x0800425c:    444f4d57    WMOD    DCD    1146047831
        0x08004260:    00313d45    E=1.    DCD    3226949
        0x08004264:    432b5441    AT+C    DCD    1126913089
        0x08004268:    50414a57    WJAP    DCD    1346456151
        0x0800426c:    7325223d    ="%s    DCD    1931813437
        0x08004270:    25222c22    ","%    DCD    622996514
        0x08004274:    00002273    s"..    DCD    8819
        0x08004278:    432b5441    AT+C    DCD    1126913089
        0x0800427c:    4c435049    IPCL    DCD    1279479881
        0x08004280:    0045534f    OSE.    DCD    4543311
        0x08004284:    432b5441    AT+C    DCD    1126913089
        0x08004288:    54535049    IPST    DCD    1414746185
        0x0800428c:    3d545241    ART=    DCD    1028936257
        0x08004290:    50435422    "TCP    DCD    1346589730
        0x08004294:    25222c22    ","%    DCD    622996514
        0x08004298:    252c2273    s",%    DCD    623649395
        0x0800429c:    00302c73    s,0.    DCD    3157107
    $t
    i.platform_net_socket_recv_timeout
    platform_net_socket_recv_timeout
        0x080042a0:    e92d41f0    -..A    PUSH     {r4-r8,lr}
        0x080042a4:    461f        .F      MOV      r7,r3
        0x080042a6:    4614        .F      MOV      r4,r2
        0x080042a8:    460d        .F      MOV      r5,r1
        0x080042aa:    f000f88f    ....    BL       platform_timer_now ; 0x80043cc
        0x080042ae:    4626        &F      MOV      r6,r4
        0x080042b0:    4407        .D      ADD      r7,r7,r0
        0x080042b2:    e005        ..      B        0x80042c0 ; platform_net_socket_recv_timeout + 32
        0x080042b4:    4621        !F      MOV      r1,r4
        0x080042b6:    4628        (F      MOV      r0,r5
        0x080042b8:    f7fcfc56    ..V.    BL       ESP8266ReadPacket ; 0x8000b68
        0x080042bc:    4405        .D      ADD      r5,r5,r0
        0x080042be:    1a24        $.      SUBS     r4,r4,r0
        0x080042c0:    f000f884    ....    BL       platform_timer_now ; 0x80043cc
        0x080042c4:    42b8        .B      CMP      r0,r7
        0x080042c6:    d201        ..      BCS      0x80042cc ; platform_net_socket_recv_timeout + 44
        0x080042c8:    2c00        .,      CMP      r4,#0
        0x080042ca:    d1f3        ..      BNE      0x80042b4 ; platform_net_socket_recv_timeout + 20
        0x080042cc:    1b30        0.      SUBS     r0,r6,r4
        0x080042ce:    e8bd81f0    ....    POP      {r4-r8,pc}
        0x080042d2:    0000        ..      MOVS     r0,r0
    i.platform_net_socket_write_timeout
    platform_net_socket_write_timeout
        0x080042d4:    b570        p.      PUSH     {r4-r6,lr}
        0x080042d6:    4616        .F      MOV      r6,r2
        0x080042d8:    460d        .F      MOV      r5,r1
        0x080042da:    2a02        .*      CMP      r2,#2
        0x080042dc:    d104        ..      BNE      0x80042e8 ; platform_net_socket_write_timeout + 20
        0x080042de:    786a        jx      LDRB     r2,[r5,#1]
        0x080042e0:    7829        )x      LDRB     r1,[r5,#0]
        0x080042e2:    a00c        ..      ADR      r0,{pc}+0x32 ; 0x8004314
        0x080042e4:    f7fbffe4    ....    BL       __2printf ; 0x80002b0
        0x080042e8:    a00f        ..      ADR      r0,{pc}+0x40 ; 0x8004328
        0x080042ea:    f7fbffe1    ....    BL       __2printf ; 0x80002b0
        0x080042ee:    2400        .$      MOVS     r4,#0
        0x080042f0:    e004        ..      B        0x80042fc ; platform_net_socket_write_timeout + 40
        0x080042f2:    5d29        )]      LDRB     r1,[r5,r4]
        0x080042f4:    a010        ..      ADR      r0,{pc}+0x44 ; 0x8004338
        0x080042f6:    f7fbffdb    ....    BL       __2printf ; 0x80002b0
        0x080042fa:    1c64        d.      ADDS     r4,r4,#1
        0x080042fc:    42b4        .B      CMP      r4,r6
        0x080042fe:    dbf8        ..      BLT      0x80042f2 ; platform_net_socket_write_timeout + 30
        0x08004300:    a00f        ..      ADR      r0,{pc}+0x40 ; 0x8004340
        0x08004302:    f7fbffd5    ....    BL       __2printf ; 0x80002b0
        0x08004306:    4631        1F      MOV      r1,r6
        0x08004308:    4628        (F      MOV      r0,r5
        0x0800430a:    e8bd4070    ..p@    POP      {r4-r6,lr}
        0x0800430e:    f7fcbd17    ....    B        ESP8266_Send_Packet ; 0x8000d40
    $d
        0x08004312:    0000        ..      DCW    0
        0x08004314:    61746164    data    DCD    1635017060
        0x08004318:    30203a73    s: 0    DCD    807418483
        0x0800431c:    2c782578    x%x,    DCD    746071416
        0x08004320:    25783020     0x%    DCD    628633632
        0x08004324:    000a0d78    x...    DCD    658808
        0x08004328:    646e6553    Send    DCD    1684956499
        0x0800432c:    63615020     Pac    DCD    1667321888
        0x08004330:    3a74656b    ket:    DCD    980706667
        0x08004334:    00000020     ...    DCD    32
        0x08004338:    78323025    %02x    DCD    2016555045
        0x0800433c:    00000020     ...    DCD    32
        0x08004340:    00000a0d    ....    DCD    2573
    $t
    i.platform_thread_destroy
    platform_thread_destroy
        0x08004344:    b510        ..      PUSH     {r4,lr}
        0x08004346:    0004        ..      MOVS     r4,r0
        0x08004348:    d002        ..      BEQ      0x8004350 ; platform_thread_destroy + 12
        0x0800434a:    6820         h      LDR      r0,[r4,#0]
        0x0800434c:    f000ff10    ....    BL       vTaskDelete ; 0x8005170
        0x08004350:    4620         F      MOV      r0,r4
        0x08004352:    e8bd4010    ...@    POP      {r4,lr}
        0x08004356:    f7ffbeff    ....    B.W      platform_memory_free ; 0x8004158
    i.platform_thread_init
    platform_thread_init
        0x0800435a:    e92d47fc    -..G    PUSH     {r2-r10,lr}
        0x0800435e:    4607        .F      MOV      r7,r0
        0x08004360:    461d        .F      MOV      r5,r3
        0x08004362:    4616        .F      MOV      r6,r2
        0x08004364:    4689        .F      MOV      r9,r1
        0x08004366:    2004        .       MOVS     r0,#4
        0x08004368:    f8dd8028    ..(.    LDR      r8,[sp,#0x28]
        0x0800436c:    f7fffed4    ....    BL       platform_memory_alloc ; 0x8004118
        0x08004370:    4604        .F      MOV      r4,r0
        0x08004372:    e9cd8400    ....    STRD     r8,r4,[sp,#0]
        0x08004376:    b2aa        ..      UXTH     r2,r5
        0x08004378:    4633        3F      MOV      r3,r6
        0x0800437a:    4639        9F      MOV      r1,r7
        0x0800437c:    4648        HF      MOV      r0,r9
        0x0800437e:    f001fcb1    ....    BL       xTaskCreate ; 0x8005ce4
        0x08004382:    2801        .(      CMP      r0,#1
        0x08004384:    4620         F      MOV      r0,r4
        0x08004386:    d002        ..      BEQ      0x800438e ; platform_thread_init + 52
        0x08004388:    f7fffee6    ....    BL       platform_memory_free ; 0x8004158
        0x0800438c:    2000        .       MOVS     r0,#0
        0x0800438e:    e8bd87fc    ....    POP      {r2-r10,pc}
    i.platform_thread_start
    platform_thread_start
        0x08004392:    6800        .h      LDR      r0,[r0,#0]
        0x08004394:    f000bfbe    ....    B.W      vTaskResume ; 0x8005314
    i.platform_thread_startup
    platform_thread_startup
        0x08004398:    4770        pG      BX       lr
    i.platform_thread_stop
    platform_thread_stop
        0x0800439a:    6800        .h      LDR      r0,[r0,#0]
        0x0800439c:    f001b83c    ..<.    B.W      vTaskSuspend ; 0x8005418
    i.platform_timer_cutdown
    platform_timer_cutdown
        0x080043a0:    b570        p.      PUSH     {r4-r6,lr}
        0x080043a2:    460c        .F      MOV      r4,r1
        0x080043a4:    4605        .F      MOV      r5,r0
        0x080043a6:    f001fd03    ....    BL       xTaskGetTickCount ; 0x8005db0
        0x080043aa:    4420         D      ADD      r0,r0,r4
        0x080043ac:    6028        (`      STR      r0,[r5,#0]
        0x080043ae:    bd70        p.      POP      {r4-r6,pc}
    i.platform_timer_init
    platform_timer_init
        0x080043b0:    2100        .!      MOVS     r1,#0
        0x080043b2:    6001        .`      STR      r1,[r0,#0]
        0x080043b4:    4770        pG      BX       lr
    i.platform_timer_is_expired
    platform_timer_is_expired
        0x080043b6:    b510        ..      PUSH     {r4,lr}
        0x080043b8:    4604        .F      MOV      r4,r0
        0x080043ba:    f001fcf9    ....    BL       xTaskGetTickCount ; 0x8005db0
        0x080043be:    6821        !h      LDR      r1,[r4,#0]
        0x080043c0:    4288        .B      CMP      r0,r1
        0x080043c2:    d901        ..      BLS      0x80043c8 ; platform_timer_is_expired + 18
        0x080043c4:    2001        .       MOVS     r0,#1
        0x080043c6:    bd10        ..      POP      {r4,pc}
        0x080043c8:    2000        .       MOVS     r0,#0
        0x080043ca:    bd10        ..      POP      {r4,pc}
    i.platform_timer_now
    platform_timer_now
        0x080043cc:    f001bcf0    ....    B.W      xTaskGetTickCount ; 0x8005db0
    i.platform_timer_remain
    platform_timer_remain
        0x080043d0:    b510        ..      PUSH     {r4,lr}
        0x080043d2:    4604        .F      MOV      r4,r0
        0x080043d4:    f001fcec    ....    BL       xTaskGetTickCount ; 0x8005db0
        0x080043d8:    6821        !h      LDR      r1,[r4,#0]
        0x080043da:    4281        .B      CMP      r1,r0
        0x080043dc:    d801        ..      BHI      0x80043e2 ; platform_timer_remain + 18
        0x080043de:    2000        .       MOVS     r0,#0
        0x080043e0:    bd10        ..      POP      {r4,pc}
        0x080043e2:    1a08        ..      SUBS     r0,r1,r0
        0x080043e4:    bd10        ..      POP      {r4,pc}
        0x080043e6:    0000        ..      MOVS     r0,r0
    i.prvAddCurrentTaskToDelayedList
    prvAddCurrentTaskToDelayedList
        0x080043e8:    e92d41f0    -..A    PUSH     {r4-r8,lr}
        0x080043ec:    4c13        .L      LDR      r4,[pc,#76] ; [0x800443c] = 0x2000003c
        0x080043ee:    460f        .F      MOV      r7,r1
        0x080043f0:    4605        .F      MOV      r5,r0
        0x080043f2:    6966        fi      LDR      r6,[r4,#0x14]
        0x080043f4:    6820         h      LDR      r0,[r4,#0]
        0x080043f6:    1d00        ..      ADDS     r0,r0,#4
        0x080043f8:    f000fd62    ..b.    BL       uxListRemove ; 0x8004ec0
        0x080043fc:    1c68        h.      ADDS     r0,r5,#1
        0x080043fe:    d107        ..      BNE      0x8004410 ; prvAddCurrentTaskToDelayedList + 40
        0x08004400:    b137        7.      CBZ      r7,0x8004410 ; prvAddCurrentTaskToDelayedList + 40
        0x08004402:    6821        !h      LDR      r1,[r4,#0]
        0x08004404:    e8bd41f0    ...A    POP      {r4-r8,lr}
        0x08004408:    480d        .H      LDR      r0,[pc,#52] ; [0x8004440] = 0x20000b48
        0x0800440a:    1d09        ..      ADDS     r1,r1,#4
        0x0800440c:    f000bdaa    ....    B.W      vListInsertEnd ; 0x8004f64
        0x08004410:    6820         h      LDR      r0,[r4,#0]
        0x08004412:    4435        5D      ADD      r5,r5,r6
        0x08004414:    42b5        .B      CMP      r5,r6
        0x08004416:    6045        E`      STR      r5,[r0,#4]
        0x08004418:    6821        !h      LDR      r1,[r4,#0]
        0x0800441a:    d205        ..      BCS      0x8004428 ; prvAddCurrentTaskToDelayedList + 64
        0x0800441c:    68a0        .h      LDR      r0,[r4,#8]
        0x0800441e:    e8bd41f0    ...A    POP      {r4-r8,lr}
        0x08004422:    1d09        ..      ADDS     r1,r1,#4
        0x08004424:    f000bd86    ....    B.W      vListInsert ; 0x8004f34
        0x08004428:    6860        `h      LDR      r0,[r4,#4]
        0x0800442a:    1d09        ..      ADDS     r1,r1,#4
        0x0800442c:    f000fd82    ....    BL       vListInsert ; 0x8004f34
        0x08004430:    6b20         k      LDR      r0,[r4,#0x30]
        0x08004432:    4285        .B      CMP      r5,r0
        0x08004434:    d200        ..      BCS      0x8004438 ; prvAddCurrentTaskToDelayedList + 80
        0x08004436:    6325        %c      STR      r5,[r4,#0x30]
        0x08004438:    e8bd81f0    ....    POP      {r4-r8,pc}
    $d
        0x0800443c:    2000003c    <..     DCD    536870972
        0x08004440:    20000b48    H..     DCD    536873800
    $t
    i.prvAddNewTaskToReadyList
    prvAddNewTaskToReadyList
        0x08004444:    e92d41f0    -..A    PUSH     {r4-r8,lr}
        0x08004448:    4605        .F      MOV      r5,r0
        0x0800444a:    f000fd97    ....    BL       vPortEnterCritical ; 0x8004f7c
        0x0800444e:    4c2d        -L      LDR      r4,[pc,#180] ; [0x8004504] = 0x2000003c
        0x08004450:    6920         i      LDR      r0,[r4,#0x10]
        0x08004452:    1c40        @.      ADDS     r0,r0,#1
        0x08004454:    6120         a      STR      r0,[r4,#0x10]
        0x08004456:    6820         h      LDR      r0,[r4,#0]
        0x08004458:    4f2b        +O      LDR      r7,[pc,#172] ; [0x8004508] = 0x20000698
        0x0800445a:    b110        ..      CBZ      r0,0x8004462 ; prvAddNewTaskToReadyList + 30
        0x0800445c:    69e0        .i      LDR      r0,[r4,#0x1c]
        0x0800445e:    b330        0.      CBZ      r0,0x80044ae ; prvAddNewTaskToReadyList + 106
        0x08004460:    e02b        +.      B        0x80044ba ; prvAddNewTaskToReadyList + 118
        0x08004462:    6025        %`      STR      r5,[r4,#0]
        0x08004464:    6920         i      LDR      r0,[r4,#0x10]
        0x08004466:    2801        .(      CMP      r0,#1
        0x08004468:    d127        '.      BNE      0x80044ba ; prvAddNewTaskToReadyList + 118
        0x0800446a:    2600        .&      MOVS     r6,#0
        0x0800446c:    eb060086    ....    ADD      r0,r6,r6,LSL #2
        0x08004470:    eb070080    ....    ADD      r0,r7,r0,LSL #2
        0x08004474:    f000fd50    ..P.    BL       vListInitialise ; 0x8004f18
        0x08004478:    1c76        v.      ADDS     r6,r6,#1
        0x0800447a:    2e38        8.      CMP      r6,#0x38
        0x0800447c:    d3f6        ..      BCC      0x800446c ; prvAddNewTaskToReadyList + 40
        0x0800447e:    4823        #H      LDR      r0,[pc,#140] ; [0x800450c] = 0x20000af8
        0x08004480:    f000fd4a    ..J.    BL       vListInitialise ; 0x8004f18
        0x08004484:    4821        !H      LDR      r0,[pc,#132] ; [0x800450c] = 0x20000af8
        0x08004486:    3014        .0      ADDS     r0,r0,#0x14
        0x08004488:    f000fd46    ..F.    BL       vListInitialise ; 0x8004f18
        0x0800448c:    481f        .H      LDR      r0,[pc,#124] ; [0x800450c] = 0x20000af8
        0x0800448e:    3028        (0      ADDS     r0,r0,#0x28
        0x08004490:    f000fd42    ..B.    BL       vListInitialise ; 0x8004f18
        0x08004494:    481d        .H      LDR      r0,[pc,#116] ; [0x800450c] = 0x20000af8
        0x08004496:    303c        <0      ADDS     r0,r0,#0x3c
        0x08004498:    f000fd3e    ..>.    BL       vListInitialise ; 0x8004f18
        0x0800449c:    481b        .H      LDR      r0,[pc,#108] ; [0x800450c] = 0x20000af8
        0x0800449e:    3050        P0      ADDS     r0,r0,#0x50
        0x080044a0:    f000fd3a    ..:.    BL       vListInitialise ; 0x8004f18
        0x080044a4:    4819        .H      LDR      r0,[pc,#100] ; [0x800450c] = 0x20000af8
        0x080044a6:    6060        ``      STR      r0,[r4,#4]
        0x080044a8:    3014        .0      ADDS     r0,r0,#0x14
        0x080044aa:    60a0        .`      STR      r0,[r4,#8]
        0x080044ac:    e005        ..      B        0x80044ba ; prvAddNewTaskToReadyList + 118
        0x080044ae:    6820         h      LDR      r0,[r4,#0]
        0x080044b0:    6ae9        .j      LDR      r1,[r5,#0x2c]
        0x080044b2:    6ac0        .j      LDR      r0,[r0,#0x2c]
        0x080044b4:    4288        .B      CMP      r0,r1
        0x080044b6:    d800        ..      BHI      0x80044ba ; prvAddNewTaskToReadyList + 118
        0x080044b8:    6025        %`      STR      r5,[r4,#0]
        0x080044ba:    6ae0        .j      LDR      r0,[r4,#0x2c]
        0x080044bc:    1c40        @.      ADDS     r0,r0,#1
        0x080044be:    62e0        .b      STR      r0,[r4,#0x2c]
        0x080044c0:    6468        hd      STR      r0,[r5,#0x44]
        0x080044c2:    6ae8        .j      LDR      r0,[r5,#0x2c]
        0x080044c4:    69a1        .i      LDR      r1,[r4,#0x18]
        0x080044c6:    4288        .B      CMP      r0,r1
        0x080044c8:    d900        ..      BLS      0x80044cc ; prvAddNewTaskToReadyList + 136
        0x080044ca:    61a0        .a      STR      r0,[r4,#0x18]
        0x080044cc:    eb000080    ....    ADD      r0,r0,r0,LSL #2
        0x080044d0:    eb070080    ....    ADD      r0,r7,r0,LSL #2
        0x080044d4:    1d29        ).      ADDS     r1,r5,#4
        0x080044d6:    f000fd45    ..E.    BL       vListInsertEnd ; 0x8004f64
        0x080044da:    f000fd6f    ..o.    BL       vPortExitCritical ; 0x8004fbc
        0x080044de:    69e0        .i      LDR      r0,[r4,#0x1c]
        0x080044e0:    2800        .(      CMP      r0,#0
        0x080044e2:    d00c        ..      BEQ      0x80044fe ; prvAddNewTaskToReadyList + 186
        0x080044e4:    6820         h      LDR      r0,[r4,#0]
        0x080044e6:    6ae9        .j      LDR      r1,[r5,#0x2c]
        0x080044e8:    6ac0        .j      LDR      r0,[r0,#0x2c]
        0x080044ea:    4288        .B      CMP      r0,r1
        0x080044ec:    d207        ..      BCS      0x80044fe ; prvAddNewTaskToReadyList + 186
        0x080044ee:    4908        .I      LDR      r1,[pc,#32] ; [0x8004510] = 0xe000ed04
        0x080044f0:    f04f5080    O..P    MOV      r0,#0x10000000
        0x080044f4:    6008        .`      STR      r0,[r1,#0]
        0x080044f6:    f3bf8f4f    ..O.    DSB      
        0x080044fa:    f3bf8f6f    ..o.    ISB      
        0x080044fe:    e8bd81f0    ....    POP      {r4-r8,pc}
    $d
        0x08004502:    0000        ..      DCW    0
        0x08004504:    2000003c    <..     DCD    536870972
        0x08004508:    20000698    ...     DCD    536872600
        0x0800450c:    20000af8    ...     DCD    536873720
        0x08004510:    e000ed04    ....    DCD    3758157060
    $t
    i.prvCheckForValidListAndQueue
    prvCheckForValidListAndQueue
        0x08004514:    b538        8.      PUSH     {r3-r5,lr}
        0x08004516:    f000fd31    ..1.    BL       vPortEnterCritical ; 0x8004f7c
        0x0800451a:    4c10        .L      LDR      r4,[pc,#64] ; [0x800455c] = 0x20000078
        0x0800451c:    68a0        .h      LDR      r0,[r4,#8]
        0x0800451e:    b9c8        ..      CBNZ     r0,0x8004554 ; prvCheckForValidListAndQueue + 64
        0x08004520:    480f        .H      LDR      r0,[pc,#60] ; [0x8004560] = 0x20000b5c
        0x08004522:    f000fcf9    ....    BL       vListInitialise ; 0x8004f18
        0x08004526:    480e        .H      LDR      r0,[pc,#56] ; [0x8004560] = 0x20000b5c
        0x08004528:    3014        .0      ADDS     r0,r0,#0x14
        0x0800452a:    f000fcf5    ....    BL       vListInitialise ; 0x8004f18
        0x0800452e:    480c        .H      LDR      r0,[pc,#48] ; [0x8004560] = 0x20000b5c
        0x08004530:    6020         `      STR      r0,[r4,#0]
        0x08004532:    3014        .0      ADDS     r0,r0,#0x14
        0x08004534:    6060        ``      STR      r0,[r4,#4]
        0x08004536:    4b0a        .K      LDR      r3,[pc,#40] ; [0x8004560] = 0x20000b5c
        0x08004538:    2000        .       MOVS     r0,#0
        0x0800453a:    3328        (3      ADDS     r3,r3,#0x28
        0x0800453c:    9000        ..      STR      r0,[sp,#0]
        0x0800453e:    f1030250    ..P.    ADD      r2,r3,#0x50
        0x08004542:    2110        .!      MOVS     r1,#0x10
        0x08004544:    200a        .       MOVS     r0,#0xa
        0x08004546:    f001f8b6    ....    BL       xQueueGenericCreateStatic ; 0x80056b6
        0x0800454a:    60a0        .`      STR      r0,[r4,#8]
        0x0800454c:    b110        ..      CBZ      r0,0x8004554 ; prvCheckForValidListAndQueue + 64
        0x0800454e:    a105        ..      ADR      r1,{pc}+0x16 ; 0x8004564
        0x08004550:    f000fdb2    ....    BL       vQueueAddToRegistry ; 0x80050b8
        0x08004554:    e8bd4038    ..8@    POP      {r3-r5,lr}
        0x08004558:    f000bd30    ..0.    B.W      vPortExitCritical ; 0x8004fbc
    $d
        0x0800455c:    20000078    x..     DCD    536871032
        0x08004560:    20000b5c    \..     DCD    536873820
        0x08004564:    51726d54    TmrQ    DCD    1366453588
        0x08004568:    00000000    ....    DCD    0
    $t
    i.prvCopyDataFromQueue
    prvCopyDataFromQueue
        0x0800456c:    b430        0.      PUSH     {r4,r5}
        0x0800456e:    6c02        .l      LDR      r2,[r0,#0x40]
        0x08004570:    460b        .F      MOV      r3,r1
        0x08004572:    2a00        .*      CMP      r2,#0
        0x08004574:    d00b        ..      BEQ      0x800458e ; prvCopyDataFromQueue + 34
        0x08004576:    68c1        .h      LDR      r1,[r0,#0xc]
        0x08004578:    4411        .D      ADD      r1,r1,r2
        0x0800457a:    60c1        .`      STR      r1,[r0,#0xc]
        0x0800457c:    6844        Dh      LDR      r4,[r0,#4]
        0x0800457e:    42a1        .B      CMP      r1,r4
        0x08004580:    d301        ..      BCC      0x8004586 ; prvCopyDataFromQueue + 26
        0x08004582:    6801        .h      LDR      r1,[r0,#0]
        0x08004584:    60c1        .`      STR      r1,[r0,#0xc]
        0x08004586:    bc30        0.      POP      {r4,r5}
        0x08004588:    4618        .F      MOV      r0,r3
        0x0800458a:    f7fcb8ad    ....    B        __aeabi_memcpy ; 0x80006e8
        0x0800458e:    bc30        0.      POP      {r4,r5}
        0x08004590:    4770        pG      BX       lr
    i.prvCopyDataToQueue
    prvCopyDataToQueue
        0x08004592:    e92d41f0    -..A    PUSH     {r4-r8,lr}
        0x08004596:    6b85        .k      LDR      r5,[r0,#0x38]
        0x08004598:    4617        .F      MOV      r7,r2
        0x0800459a:    4604        .F      MOV      r4,r0
        0x0800459c:    2600        .&      MOVS     r6,#0
        0x0800459e:    6c02        .l      LDR      r2,[r0,#0x40]
        0x080045a0:    b182        ..      CBZ      r2,0x80045c4 ; prvCopyDataToQueue + 50
        0x080045a2:    b1c7        ..      CBZ      r7,0x80045d6 ; prvCopyDataToQueue + 68
        0x080045a4:    68e0        .h      LDR      r0,[r4,#0xc]
        0x080045a6:    f7fcf89f    ....    BL       __aeabi_memcpy ; 0x80006e8
        0x080045aa:    68e1        .h      LDR      r1,[r4,#0xc]
        0x080045ac:    6c20         l      LDR      r0,[r4,#0x40]
        0x080045ae:    1a09        ..      SUBS     r1,r1,r0
        0x080045b0:    60e1        .`      STR      r1,[r4,#0xc]
        0x080045b2:    6822        "h      LDR      r2,[r4,#0]
        0x080045b4:    4291        .B      CMP      r1,r2
        0x080045b6:    d202        ..      BCS      0x80045be ; prvCopyDataToQueue + 44
        0x080045b8:    6861        ah      LDR      r1,[r4,#4]
        0x080045ba:    1a08        ..      SUBS     r0,r1,r0
        0x080045bc:    60e0        .`      STR      r0,[r4,#0xc]
        0x080045be:    2f02        ./      CMP      r7,#2
        0x080045c0:    d016        ..      BEQ      0x80045f0 ; prvCopyDataToQueue + 94
        0x080045c2:    e017        ..      B        0x80045f4 ; prvCopyDataToQueue + 98
        0x080045c4:    6820         h      LDR      r0,[r4,#0]
        0x080045c6:    b9a8        ..      CBNZ     r0,0x80045f4 ; prvCopyDataToQueue + 98
        0x080045c8:    6860        `h      LDR      r0,[r4,#4]
        0x080045ca:    f001fc5b    ..[.    BL       xTaskPriorityDisinherit ; 0x8005e84
        0x080045ce:    4606        .F      MOV      r6,r0
        0x080045d0:    2000        .       MOVS     r0,#0
        0x080045d2:    6060        ``      STR      r0,[r4,#4]
        0x080045d4:    e00e        ..      B        0x80045f4 ; prvCopyDataToQueue + 98
        0x080045d6:    68a0        .h      LDR      r0,[r4,#8]
        0x080045d8:    f7fcf886    ....    BL       __aeabi_memcpy ; 0x80006e8
        0x080045dc:    6c21        !l      LDR      r1,[r4,#0x40]
        0x080045de:    68a0        .h      LDR      r0,[r4,#8]
        0x080045e0:    4408        .D      ADD      r0,r0,r1
        0x080045e2:    60a0        .`      STR      r0,[r4,#8]
        0x080045e4:    6861        ah      LDR      r1,[r4,#4]
        0x080045e6:    4288        .B      CMP      r0,r1
        0x080045e8:    d304        ..      BCC      0x80045f4 ; prvCopyDataToQueue + 98
        0x080045ea:    6820         h      LDR      r0,[r4,#0]
        0x080045ec:    60a0        .`      STR      r0,[r4,#8]
        0x080045ee:    e001        ..      B        0x80045f4 ; prvCopyDataToQueue + 98
        0x080045f0:    b105        ..      CBZ      r5,0x80045f4 ; prvCopyDataToQueue + 98
        0x080045f2:    1e6d        m.      SUBS     r5,r5,#1
        0x080045f4:    1c6d        m.      ADDS     r5,r5,#1
        0x080045f6:    63a5        .c      STR      r5,[r4,#0x38]
        0x080045f8:    4630        0F      MOV      r0,r6
        0x080045fa:    e8bd81f0    ....    POP      {r4-r8,pc}
    i.prvDeleteTCB
    prvDeleteTCB
        0x080045fe:    b510        ..      PUSH     {r4,lr}
        0x08004600:    4604        .F      MOV      r4,r0
        0x08004602:    f8900059    ..Y.    LDRB     r0,[r0,#0x59]
        0x08004606:    b158        X.      CBZ      r0,0x8004620 ; prvDeleteTCB + 34
        0x08004608:    2801        .(      CMP      r0,#1
        0x0800460a:    d00c        ..      BEQ      0x8004626 ; prvDeleteTCB + 40
        0x0800460c:    2802        .(      CMP      r0,#2
        0x0800460e:    d00f        ..      BEQ      0x8004630 ; prvDeleteTCB + 50
        0x08004610:    2050        P       MOVS     r0,#0x50
        0x08004612:    f3808811    ....    MSR      BASEPRI,r0
        0x08004616:    f3bf8f4f    ..O.    DSB      
        0x0800461a:    f3bf8f6f    ..o.    ISB      
        0x0800461e:    e7fe        ..      B        0x800461e ; prvDeleteTCB + 32
        0x08004620:    6b20         k      LDR      r0,[r4,#0x30]
        0x08004622:    f000fcdf    ....    BL       vPortFree ; 0x8004fe4
        0x08004626:    4620         F      MOV      r0,r4
        0x08004628:    e8bd4010    ...@    POP      {r4,lr}
        0x0800462c:    f000bcda    ....    B.W      vPortFree ; 0x8004fe4
        0x08004630:    bd10        ..      POP      {r4,pc}
        0x08004632:    0000        ..      MOVS     r0,r0
    i.prvHeapInit
    prvHeapInit
        0x08004634:    4810        .H      LDR      r0,[pc,#64] ; [0x8004678] = 0x2000192c
        0x08004636:    f44f5130    O.0Q    MOV      r1,#0x2c00
        0x0800463a:    0742        B.      LSLS     r2,r0,#29
        0x0800463c:    d006        ..      BEQ      0x800464c ; prvHeapInit + 24
        0x0800463e:    1dc0        ..      ADDS     r0,r0,#7
        0x08004640:    490d        .I      LDR      r1,[pc,#52] ; [0x8004678] = 0x2000192c
        0x08004642:    f0200007     ...    BIC      r0,r0,#7
        0x08004646:    1a41        A.      SUBS     r1,r0,r1
        0x08004648:    f5c15130    ..0Q    RSB      r1,r1,#0x2c00
        0x0800464c:    4a0b        .J      LDR      r2,[pc,#44] ; [0x800467c] = 0x200000a0
        0x0800464e:    2300        .#      MOVS     r3,#0
        0x08004650:    4401        .D      ADD      r1,r1,r0
        0x08004652:    e9c20300    ....    STRD     r0,r3,[r2,#0]
        0x08004656:    3908        .9      SUBS     r1,r1,#8
        0x08004658:    3a10        .:      SUBS     r2,r2,#0x10
        0x0800465a:    f0210107    !...    BIC      r1,r1,#7
        0x0800465e:    6011        .`      STR      r1,[r2,#0]
        0x08004660:    604b        K`      STR      r3,[r1,#4]
        0x08004662:    600b        .`      STR      r3,[r1,#0]
        0x08004664:    1a0b        ..      SUBS     r3,r1,r0
        0x08004666:    e9c01300    ....    STRD     r1,r3,[r0,#0]
        0x0800466a:    6093        .`      STR      r3,[r2,#8]
        0x0800466c:    f04f4000    O..@    MOV      r0,#0x80000000
        0x08004670:    6053        S`      STR      r3,[r2,#4]
        0x08004672:    60d0        .`      STR      r0,[r2,#0xc]
        0x08004674:    4770        pG      BX       lr
    $d
        0x08004676:    0000        ..      DCW    0
        0x08004678:    2000192c    ,..     DCD    536877356
        0x0800467c:    200000a0    ...     DCD    536871072
    $t
    i.prvIdleTask
    prvIdleTask
        0x08004680:    4e14        .N      LDR      r6,[pc,#80] ; [0x80046d4] = 0x20000b34
        0x08004682:    4c15        .L      LDR      r4,[pc,#84] ; [0x80046d8] = 0x2000003c
        0x08004684:    f2a6479c    ...G    SUB      r7,r6,#0x49c
        0x08004688:    f04f5880    O..X    MOV      r8,#0x10000000
        0x0800468c:    f8df904c    ..L.    LDR      r9,[pc,#76] ; [0x80046dc] = 0xe000ed04
        0x08004690:    e012        ..      B        0x80046b8 ; prvIdleTask + 56
        0x08004692:    bf00        ..      NOP      
        0x08004694:    f000fc72    ..r.    BL       vPortEnterCritical ; 0x8004f7c
        0x08004698:    68f0        .h      LDR      r0,[r6,#0xc]
        0x0800469a:    68c5        .h      LDR      r5,[r0,#0xc]
        0x0800469c:    1d28        (.      ADDS     r0,r5,#4
        0x0800469e:    f000fc0f    ....    BL       uxListRemove ; 0x8004ec0
        0x080046a2:    6920         i      LDR      r0,[r4,#0x10]
        0x080046a4:    1e40        @.      SUBS     r0,r0,#1
        0x080046a6:    6120         a      STR      r0,[r4,#0x10]
        0x080046a8:    68e0        .h      LDR      r0,[r4,#0xc]
        0x080046aa:    1e40        @.      SUBS     r0,r0,#1
        0x080046ac:    60e0        .`      STR      r0,[r4,#0xc]
        0x080046ae:    f000fc85    ....    BL       vPortExitCritical ; 0x8004fbc
        0x080046b2:    4628        (F      MOV      r0,r5
        0x080046b4:    f7ffffa3    ....    BL       prvDeleteTCB ; 0x80045fe
        0x080046b8:    68e0        .h      LDR      r0,[r4,#0xc]
        0x080046ba:    2800        .(      CMP      r0,#0
        0x080046bc:    d1ea        ..      BNE      0x8004694 ; prvIdleTask + 20
        0x080046be:    6838        8h      LDR      r0,[r7,#0]
        0x080046c0:    2801        .(      CMP      r0,#1
        0x080046c2:    d9f9        ..      BLS      0x80046b8 ; prvIdleTask + 56
        0x080046c4:    f8c98000    ....    STR      r8,[r9,#0]
        0x080046c8:    f3bf8f4f    ..O.    DSB      
        0x080046cc:    f3bf8f6f    ..o.    ISB      
        0x080046d0:    e7f2        ..      B        0x80046b8 ; prvIdleTask + 56
    $d
        0x080046d2:    0000        ..      DCW    0
        0x080046d4:    20000b34    4..     DCD    536873780
        0x080046d8:    2000003c    <..     DCD    536870972
        0x080046dc:    e000ed04    ....    DCD    3758157060
    $t
    i.prvInitialiseMutex
    prvInitialiseMutex
        0x080046e0:    2800        .(      CMP      r0,#0
        0x080046e2:    d007        ..      BEQ      0x80046f4 ; prvInitialiseMutex + 20
        0x080046e4:    2100        .!      MOVS     r1,#0
        0x080046e6:    6041        A`      STR      r1,[r0,#4]
        0x080046e8:    6001        .`      STR      r1,[r0,#0]
        0x080046ea:    460b        .F      MOV      r3,r1
        0x080046ec:    460a        .F      MOV      r2,r1
        0x080046ee:    60c1        .`      STR      r1,[r0,#0xc]
        0x080046f0:    f001b858    ..X.    B.W      xQueueGenericSend ; 0x80057a4
        0x080046f4:    4770        pG      BX       lr
        0x080046f6:    0000        ..      MOVS     r0,r0
    i.prvInitialiseNewQueue
    prvInitialiseNewQueue
        0x080046f8:    b570        p.      PUSH     {r4-r6,lr}
        0x080046fa:    461d        .F      MOV      r5,r3
        0x080046fc:    9c04        ..      LDR      r4,[sp,#0x10]
        0x080046fe:    b151        Q.      CBZ      r1,0x8004716 ; prvInitialiseNewQueue + 30
        0x08004700:    f8c42000    ...     STR.W    r2,[r4,#0]
        0x08004704:    e9c4010f    ....    STRD     r0,r1,[r4,#0x3c]
        0x08004708:    2101        .!      MOVS     r1,#1
        0x0800470a:    4620         F      MOV      r0,r4
        0x0800470c:    f001f806    ....    BL       xQueueGenericReset ; 0x800571c
        0x08004710:    f884504c    ..LP    STRB     r5,[r4,#0x4c]
        0x08004714:    bd70        p.      POP      {r4-r6,pc}
        0x08004716:    6024        $`      STR      r4,[r4,#0]
        0x08004718:    e7f4        ..      B        0x8004704 ; prvInitialiseNewQueue + 12
    i.prvInitialiseNewTask
    prvInitialiseNewTask
        0x0800471a:    e92d47f0    -..G    PUSH     {r4-r10,lr}
        0x0800471e:    460e        .F      MOV      r6,r1
        0x08004720:    e9dd8409    ....    LDRD     r8,r4,[sp,#0x24]
        0x08004724:    4617        .F      MOV      r7,r2
        0x08004726:    4682        .F      MOV      r10,r0
        0x08004728:    0091        ..      LSLS     r1,r2,#2
        0x0800472a:    4699        .F      MOV      r9,r3
        0x0800472c:    9d08        ..      LDR      r5,[sp,#0x20]
        0x0800472e:    22a5        ."      MOVS     r2,#0xa5
        0x08004730:    6b20         k      LDR      r0,[r4,#0x30]
        0x08004732:    f7fcf850    ..P.    BL       __aeabi_memset ; 0x80007d6
        0x08004736:    f06f0103    o...    MVN      r1,#3
        0x0800473a:    6b20         k      LDR      r0,[r4,#0x30]
        0x0800473c:    eb010187    ....    ADD      r1,r1,r7,LSL #2
        0x08004740:    4408        .D      ADD      r0,r0,r1
        0x08004742:    f0200707     ...    BIC      r7,r0,#7
        0x08004746:    0778        x.      LSLS     r0,r7,#29
        0x08004748:    d007        ..      BEQ      0x800475a ; prvInitialiseNewTask + 64
        0x0800474a:    2050        P       MOVS     r0,#0x50
        0x0800474c:    f3808811    ....    MSR      BASEPRI,r0
        0x08004750:    f3bf8f4f    ..O.    DSB      
        0x08004754:    f3bf8f6f    ..o.    ISB      
        0x08004758:    e7fe        ..      B        0x8004758 ; prvInitialiseNewTask + 62
        0x0800475a:    1822        ".      ADDS     r2,r4,r0
        0x0800475c:    5c31        1\      LDRB     r1,[r6,r0]
        0x0800475e:    f8821034    ..4.    STRB     r1,[r2,#0x34]
        0x08004762:    5c31        1\      LDRB     r1,[r6,r0]
        0x08004764:    b111        ..      CBZ      r1,0x800476c ; prvInitialiseNewTask + 82
        0x08004766:    1c40        @.      ADDS     r0,r0,#1
        0x08004768:    2810        .(      CMP      r0,#0x10
        0x0800476a:    d3f6        ..      BCC      0x800475a ; prvInitialiseNewTask + 64
        0x0800476c:    2600        .&      MOVS     r6,#0
        0x0800476e:    f8846043    ..C`    STRB     r6,[r4,#0x43]
        0x08004772:    2d38        8-      CMP      r5,#0x38
        0x08004774:    d300        ..      BCC      0x8004778 ; prvInitialiseNewTask + 94
        0x08004776:    2537        7%      MOVS     r5,#0x37
        0x08004778:    62e5        .b      STR      r5,[r4,#0x2c]
        0x0800477a:    e9c45613    ...V    STRD     r5,r6,[r4,#0x4c]
        0x0800477e:    1d20         .      ADDS     r0,r4,#4
        0x08004780:    f000fbd5    ....    BL       vListInitialiseItem ; 0x8004f2e
        0x08004784:    f1040018    ....    ADD      r0,r4,#0x18
        0x08004788:    f000fbd1    ....    BL       vListInitialiseItem ; 0x8004f2e
        0x0800478c:    6124        $a      STR      r4,[r4,#0x10]
        0x0800478e:    f1c50038    ..8.    RSB      r0,r5,#0x38
        0x08004792:    6264        db      STR      r4,[r4,#0x24]
        0x08004794:    61a0        .a      STR      r0,[r4,#0x18]
        0x08004796:    6566        fe      STR      r6,[r4,#0x54]
        0x08004798:    f8846058    ..X`    STRB     r6,[r4,#0x58]
        0x0800479c:    464a        JF      MOV      r2,r9
        0x0800479e:    4651        QF      MOV      r1,r10
        0x080047a0:    4638        8F      MOV      r0,r7
        0x080047a2:    f000fa61    ..a.    BL       pxPortInitialiseStack ; 0x8004c68
        0x080047a6:    6020         `      STR      r0,[r4,#0]
        0x080047a8:    f1b80f00    ....    CMP      r8,#0
        0x080047ac:    d001        ..      BEQ      0x80047b2 ; prvInitialiseNewTask + 152
        0x080047ae:    f8c84000    ...@    STR      r4,[r8,#0]
        0x080047b2:    e8bd87f0    ....    POP      {r4-r10,pc}
        0x080047b6:    0000        ..      MOVS     r0,r0
    i.prvInsertBlockIntoFreeList
    prvInsertBlockIntoFreeList
        0x080047b8:    b530        0.      PUSH     {r4,r5,lr}
        0x080047ba:    4911        .I      LDR      r1,[pc,#68] ; [0x8004800] = 0x200000a0
        0x080047bc:    e000        ..      B        0x80047c0 ; prvInsertBlockIntoFreeList + 8
        0x080047be:    4611        .F      MOV      r1,r2
        0x080047c0:    680a        .h      LDR      r2,[r1,#0]
        0x080047c2:    4282        .B      CMP      r2,r0
        0x080047c4:    d3fb        ..      BCC      0x80047be ; prvInsertBlockIntoFreeList + 6
        0x080047c6:    684b        Kh      LDR      r3,[r1,#4]
        0x080047c8:    185c        \.      ADDS     r4,r3,r1
        0x080047ca:    4284        .B      CMP      r4,r0
        0x080047cc:    d103        ..      BNE      0x80047d6 ; prvInsertBlockIntoFreeList + 30
        0x080047ce:    6840        @h      LDR      r0,[r0,#4]
        0x080047d0:    4418        .D      ADD      r0,r0,r3
        0x080047d2:    6048        H`      STR      r0,[r1,#4]
        0x080047d4:    4608        .F      MOV      r0,r1
        0x080047d6:    6843        Ch      LDR      r3,[r0,#4]
        0x080047d8:    181c        ..      ADDS     r4,r3,r0
        0x080047da:    4294        .B      CMP      r4,r2
        0x080047dc:    d109        ..      BNE      0x80047f2 ; prvInsertBlockIntoFreeList + 58
        0x080047de:    4c08        .L      LDR      r4,[pc,#32] ; [0x8004800] = 0x200000a0
        0x080047e0:    3c10        .<      SUBS     r4,r4,#0x10
        0x080047e2:    6824        $h      LDR      r4,[r4,#0]
        0x080047e4:    42a2        .B      CMP      r2,r4
        0x080047e6:    d009        ..      BEQ      0x80047fc ; prvInsertBlockIntoFreeList + 68
        0x080047e8:    6852        Rh      LDR      r2,[r2,#4]
        0x080047ea:    441a        .D      ADD      r2,r2,r3
        0x080047ec:    6042        B`      STR      r2,[r0,#4]
        0x080047ee:    680a        .h      LDR      r2,[r1,#0]
        0x080047f0:    6812        .h      LDR      r2,[r2,#0]
        0x080047f2:    6002        .`      STR      r2,[r0,#0]
        0x080047f4:    4281        .B      CMP      r1,r0
        0x080047f6:    d000        ..      BEQ      0x80047fa ; prvInsertBlockIntoFreeList + 66
        0x080047f8:    6008        .`      STR      r0,[r1,#0]
        0x080047fa:    bd30        0.      POP      {r4,r5,pc}
        0x080047fc:    6004        .`      STR      r4,[r0,#0]
        0x080047fe:    e7f9        ..      B        0x80047f4 ; prvInsertBlockIntoFreeList + 60
    $d
        0x08004800:    200000a0    ...     DCD    536871072
    $t
    i.prvInsertTimerInActiveList
    prvInsertTimerInActiveList
        0x08004804:    b570        p.      PUSH     {r4-r6,lr}
        0x08004806:    2400        .$      MOVS     r4,#0
        0x08004808:    6041        A`      STR      r1,[r0,#4]
        0x0800480a:    4d0b        .M      LDR      r5,[pc,#44] ; [0x8004838] = 0x20000078
        0x0800480c:    6100        .a      STR      r0,[r0,#0x10]
        0x0800480e:    4291        .B      CMP      r1,r2
        0x08004810:    d806        ..      BHI      0x8004820 ; prvInsertTimerInActiveList + 28
        0x08004812:    1ad1        ..      SUBS     r1,r2,r3
        0x08004814:    6982        .i      LDR      r2,[r0,#0x18]
        0x08004816:    4291        .B      CMP      r1,r2
        0x08004818:    d206        ..      BCS      0x8004828 ; prvInsertTimerInActiveList + 36
        0x0800481a:    1d01        ..      ADDS     r1,r0,#4
        0x0800481c:    6868        hh      LDR      r0,[r5,#4]
        0x0800481e:    e007        ..      B        0x8004830 ; prvInsertTimerInActiveList + 44
        0x08004820:    429a        .B      CMP      r2,r3
        0x08004822:    d203        ..      BCS      0x800482c ; prvInsertTimerInActiveList + 40
        0x08004824:    4299        .B      CMP      r1,r3
        0x08004826:    d301        ..      BCC      0x800482c ; prvInsertTimerInActiveList + 40
        0x08004828:    2401        .$      MOVS     r4,#1
        0x0800482a:    e003        ..      B        0x8004834 ; prvInsertTimerInActiveList + 48
        0x0800482c:    1d01        ..      ADDS     r1,r0,#4
        0x0800482e:    6828        (h      LDR      r0,[r5,#0]
        0x08004830:    f000fb80    ....    BL       vListInsert ; 0x8004f34
        0x08004834:    4620         F      MOV      r0,r4
        0x08004836:    bd70        p.      POP      {r4-r6,pc}
    $d
        0x08004838:    20000078    x..     DCD    536871032
    $t
    i.prvIsQueueEmpty
    prvIsQueueEmpty
        0x0800483c:    b510        ..      PUSH     {r4,lr}
        0x0800483e:    4604        .F      MOV      r4,r0
        0x08004840:    f000fb9c    ....    BL       vPortEnterCritical ; 0x8004f7c
        0x08004844:    6ba0        .k      LDR      r0,[r4,#0x38]
        0x08004846:    b128        (.      CBZ      r0,0x8004854 ; prvIsQueueEmpty + 24
        0x08004848:    f05f0400    _...    MOVS.W   r4,#0
        0x0800484c:    f000fbb6    ....    BL       vPortExitCritical ; 0x8004fbc
        0x08004850:    4620         F      MOV      r0,r4
        0x08004852:    bd10        ..      POP      {r4,pc}
        0x08004854:    2401        .$      MOVS     r4,#1
        0x08004856:    e7f9        ..      B        0x800484c ; prvIsQueueEmpty + 16
    i.prvProcessReceivedCommands
    prvProcessReceivedCommands
        0x08004858:    b530        0.      PUSH     {r4,r5,lr}
        0x0800485a:    b089        ..      SUB      sp,sp,#0x24
        0x0800485c:    4d30        0M      LDR      r5,[pc,#192] ; [0x8004920] = 0x20000078
        0x0800485e:    e055        U.      B        0x800490c ; prvProcessReceivedCommands + 180
        0x08004860:    9804        ..      LDR      r0,[sp,#0x10]
        0x08004862:    2800        .(      CMP      r0,#0
        0x08004864:    da06        ..      BGE      0x8004874 ; prvProcessReceivedCommands + 28
        0x08004866:    e9dd0106    ....    LDRD     r0,r1,[sp,#0x18]
        0x0800486a:    9a05        ..      LDR      r2,[sp,#0x14]
        0x0800486c:    4790        .G      BLX      r2
        0x0800486e:    9804        ..      LDR      r0,[sp,#0x10]
        0x08004870:    2800        .(      CMP      r0,#0
        0x08004872:    db4b        K.      BLT      0x800490c ; prvProcessReceivedCommands + 180
        0x08004874:    9c06        ..      LDR      r4,[sp,#0x18]
        0x08004876:    6960        `i      LDR      r0,[r4,#0x14]
        0x08004878:    b110        ..      CBZ      r0,0x8004880 ; prvProcessReceivedCommands + 40
        0x0800487a:    1d20         .      ADDS     r0,r4,#4
        0x0800487c:    f000fb20    .. .    BL       uxListRemove ; 0x8004ec0
        0x08004880:    a802        ..      ADD      r0,sp,#8
        0x08004882:    f000f8b9    ....    BL       prvSampleTimeNow ; 0x80049f8
        0x08004886:    4602        .F      MOV      r2,r0
        0x08004888:    9804        ..      LDR      r0,[sp,#0x10]
        0x0800488a:    280a        .(      CMP      r0,#0xa
        0x0800488c:    d23e        >.      BCS      0x800490c ; prvProcessReceivedCommands + 180
        0x0800488e:    e8dff000    ....    TBB      [pc,r0]
    $d
        0x08004892:    0505        ..      DCW    1285
        0x08004894:    37263d05    .=&7    DCD    925252869
        0x08004898:    263d0505    ..=&    DCD    641533189
    $t
        0x0800489c:    9805        ..      LDR      r0,[sp,#0x14]
        0x0800489e:    69a1        .i      LDR      r1,[r4,#0x18]
        0x080048a0:    4603        .F      MOV      r3,r0
        0x080048a2:    4401        .D      ADD      r1,r1,r0
        0x080048a4:    4620         F      MOV      r0,r4
        0x080048a6:    f7ffffad    ....    BL       prvInsertTimerInActiveList ; 0x8004804
        0x080048aa:    b300        ..      CBZ      r0,0x80048ee ; prvProcessReceivedCommands + 150
        0x080048ac:    6a61        aj      LDR      r1,[r4,#0x24]
        0x080048ae:    4620         F      MOV      r0,r4
        0x080048b0:    4788        .G      BLX      r1
        0x080048b2:    69e0        .i      LDR      r0,[r4,#0x1c]
        0x080048b4:    2801        .(      CMP      r0,#1
        0x080048b6:    d129        ).      BNE      0x800490c ; prvProcessReceivedCommands + 180
        0x080048b8:    2000        .       MOVS     r0,#0
        0x080048ba:    9000        ..      STR      r0,[sp,#0]
        0x080048bc:    9805        ..      LDR      r0,[sp,#0x14]
        0x080048be:    69a1        .i      LDR      r1,[r4,#0x18]
        0x080048c0:    2300        .#      MOVS     r3,#0
        0x080048c2:    1842        B.      ADDS     r2,r0,r1
        0x080048c4:    4619        .F      MOV      r1,r3
        0x080048c6:    4620         F      MOV      r0,r4
        0x080048c8:    f001fc22    ..".    BL       xTimerGenericCommand ; 0x8006110
        0x080048cc:    b978        x.      CBNZ     r0,0x80048ee ; prvProcessReceivedCommands + 150
        0x080048ce:    2050        P       MOVS     r0,#0x50
        0x080048d0:    f3808811    ....    MSR      BASEPRI,r0
        0x080048d4:    f3bf8f4f    ..O.    DSB      
        0x080048d8:    f3bf8f6f    ..o.    ISB      
        0x080048dc:    e7fe        ..      B        0x80048dc ; prvProcessReceivedCommands + 132
        0x080048de:    9805        ..      LDR      r0,[sp,#0x14]
        0x080048e0:    61a0        .a      STR      r0,[r4,#0x18]
        0x080048e2:    b128        (.      CBZ      r0,0x80048f0 ; prvProcessReceivedCommands + 152
        0x080048e4:    1881        ..      ADDS     r1,r0,r2
        0x080048e6:    4613        .F      MOV      r3,r2
        0x080048e8:    4620         F      MOV      r0,r4
        0x080048ea:    f7ffff8b    ....    BL       prvInsertTimerInActiveList ; 0x8004804
        0x080048ee:    e00d        ..      B        0x800490c ; prvProcessReceivedCommands + 180
        0x080048f0:    2050        P       MOVS     r0,#0x50
        0x080048f2:    f3808811    ....    MSR      BASEPRI,r0
        0x080048f6:    f3bf8f4f    ..O.    DSB      
        0x080048fa:    f3bf8f6f    ..o.    ISB      
        0x080048fe:    e7fe        ..      B        0x80048fe ; prvProcessReceivedCommands + 166
        0x08004900:    f894002c    ..,.    LDRB     r0,[r4,#0x2c]
        0x08004904:    b910        ..      CBNZ     r0,0x800490c ; prvProcessReceivedCommands + 180
        0x08004906:    4620         F      MOV      r0,r4
        0x08004908:    f000fb6c    ..l.    BL       vPortFree ; 0x8004fe4
        0x0800490c:    2200        ."      MOVS     r2,#0
        0x0800490e:    a904        ..      ADD      r1,sp,#0x10
        0x08004910:    68a8        .h      LDR      r0,[r5,#8]
        0x08004912:    f001f855    ..U.    BL       xQueueReceive ; 0x80059c0
        0x08004916:    2800        .(      CMP      r0,#0
        0x08004918:    d1a2        ..      BNE      0x8004860 ; prvProcessReceivedCommands + 8
        0x0800491a:    b009        ..      ADD      sp,sp,#0x24
        0x0800491c:    bd30        0.      POP      {r4,r5,pc}
    $d
        0x0800491e:    0000        ..      DCW    0
        0x08004920:    20000078    x..     DCD    536871032
    $t
    i.prvProcessTimerOrBlockTask
    prvProcessTimerOrBlockTask
        0x08004924:    e92d41fc    -..A    PUSH     {r2-r8,lr}
        0x08004928:    460f        .F      MOV      r7,r1
        0x0800492a:    4605        .F      MOV      r5,r0
        0x0800492c:    f000fdc2    ....    BL       vTaskSuspendAll ; 0x80054b4
        0x08004930:    a801        ..      ADD      r0,sp,#4
        0x08004932:    f000f861    ..a.    BL       prvSampleTimeNow ; 0x80049f8
        0x08004936:    4604        .F      MOV      r4,r0
        0x08004938:    9801        ..      LDR      r0,[sp,#4]
        0x0800493a:    b118        ..      CBZ      r0,0x8004944 ; prvProcessTimerOrBlockTask + 32
        0x0800493c:    f001fb56    ..V.    BL       xTaskResumeAll ; 0x8005fec
        0x08004940:    e8bd81fc    ....    POP      {r2-r8,pc}
        0x08004944:    4e22        "N      LDR      r6,[pc,#136] ; [0x80049d0] = 0x20000078
        0x08004946:    b1af        ..      CBZ      r7,0x8004974 ; prvProcessTimerOrBlockTask + 80
        0x08004948:    6870        ph      LDR      r0,[r6,#4]
        0x0800494a:    6800        .h      LDR      r0,[r0,#0]
        0x0800494c:    b3a8        ..      CBZ      r0,0x80049ba ; prvProcessTimerOrBlockTask + 150
        0x0800494e:    2700        .'      MOVS     r7,#0
        0x08004950:    1b29        ).      SUBS     r1,r5,r4
        0x08004952:    463a        :F      MOV      r2,r7
        0x08004954:    68b0        .h      LDR      r0,[r6,#8]
        0x08004956:    f000fbc3    ....    BL       vQueueWaitForMessageRestricted ; 0x80050e0
        0x0800495a:    f001fb47    ..G.    BL       xTaskResumeAll ; 0x8005fec
        0x0800495e:    2800        .(      CMP      r0,#0
        0x08004960:    d1ee        ..      BNE      0x8004940 ; prvProcessTimerOrBlockTask + 28
        0x08004962:    491c        .I      LDR      r1,[pc,#112] ; [0x80049d4] = 0xe000ed04
        0x08004964:    f04f5080    O..P    MOV      r0,#0x10000000
        0x08004968:    6008        .`      STR      r0,[r1,#0]
        0x0800496a:    f3bf8f4f    ..O.    DSB      
        0x0800496e:    f3bf8f6f    ..o.    ISB      
        0x08004972:    e7e5        ..      B        0x8004940 ; prvProcessTimerOrBlockTask + 28
        0x08004974:    42a5        .B      CMP      r5,r4
        0x08004976:    d8eb        ..      BHI      0x8004950 ; prvProcessTimerOrBlockTask + 44
        0x08004978:    f001fb38    ..8.    BL       xTaskResumeAll ; 0x8005fec
        0x0800497c:    6830        0h      LDR      r0,[r6,#0]
        0x0800497e:    4627        'F      MOV      r7,r4
        0x08004980:    68c0        .h      LDR      r0,[r0,#0xc]
        0x08004982:    68c4        .h      LDR      r4,[r0,#0xc]
        0x08004984:    1d20         .      ADDS     r0,r4,#4
        0x08004986:    f000fa9b    ....    BL       uxListRemove ; 0x8004ec0
        0x0800498a:    69e0        .i      LDR      r0,[r4,#0x1c]
        0x0800498c:    2801        .(      CMP      r0,#1
        0x0800498e:    d110        ..      BNE      0x80049b2 ; prvProcessTimerOrBlockTask + 142
        0x08004990:    69a0        .i      LDR      r0,[r4,#0x18]
        0x08004992:    462b        +F      MOV      r3,r5
        0x08004994:    1941        A.      ADDS     r1,r0,r5
        0x08004996:    463a        :F      MOV      r2,r7
        0x08004998:    4620         F      MOV      r0,r4
        0x0800499a:    f7ffff33    ..3.    BL       prvInsertTimerInActiveList ; 0x8004804
        0x0800499e:    b140        @.      CBZ      r0,0x80049b2 ; prvProcessTimerOrBlockTask + 142
        0x080049a0:    2000        .       MOVS     r0,#0
        0x080049a2:    4603        .F      MOV      r3,r0
        0x080049a4:    4601        .F      MOV      r1,r0
        0x080049a6:    9000        ..      STR      r0,[sp,#0]
        0x080049a8:    462a        *F      MOV      r2,r5
        0x080049aa:    4620         F      MOV      r0,r4
        0x080049ac:    f001fbb0    ....    BL       xTimerGenericCommand ; 0x8006110
        0x080049b0:    b120         .      CBZ      r0,0x80049bc ; prvProcessTimerOrBlockTask + 152
        0x080049b2:    6a61        aj      LDR      r1,[r4,#0x24]
        0x080049b4:    4620         F      MOV      r0,r4
        0x080049b6:    4788        .G      BLX      r1
        0x080049b8:    e7c2        ..      B        0x8004940 ; prvProcessTimerOrBlockTask + 28
        0x080049ba:    e007        ..      B        0x80049cc ; prvProcessTimerOrBlockTask + 168
        0x080049bc:    2050        P       MOVS     r0,#0x50
        0x080049be:    f3808811    ....    MSR      BASEPRI,r0
        0x080049c2:    f3bf8f4f    ..O.    DSB      
        0x080049c6:    f3bf8f6f    ..o.    ISB      
        0x080049ca:    e7fe        ..      B        0x80049ca ; prvProcessTimerOrBlockTask + 166
        0x080049cc:    2701        .'      MOVS     r7,#1
        0x080049ce:    e7bf        ..      B        0x8004950 ; prvProcessTimerOrBlockTask + 44
    $d
        0x080049d0:    20000078    x..     DCD    536871032
        0x080049d4:    e000ed04    ....    DCD    3758157060
    $t
    i.prvResetNextTaskUnblockTime
    prvResetNextTaskUnblockTime
        0x080049d8:    4806        .H      LDR      r0,[pc,#24] ; [0x80049f4] = 0x2000003c
        0x080049da:    6841        Ah      LDR      r1,[r0,#4]
        0x080049dc:    6809        .h      LDR      r1,[r1,#0]
        0x080049de:    b129        ).      CBZ      r1,0x80049ec ; prvResetNextTaskUnblockTime + 20
        0x080049e0:    6841        Ah      LDR      r1,[r0,#4]
        0x080049e2:    68c9        .h      LDR      r1,[r1,#0xc]
        0x080049e4:    68c9        .h      LDR      r1,[r1,#0xc]
        0x080049e6:    6849        Ih      LDR      r1,[r1,#4]
        0x080049e8:    6301        .c      STR      r1,[r0,#0x30]
        0x080049ea:    4770        pG      BX       lr
        0x080049ec:    f04f31ff    O..1    MOV      r1,#0xffffffff
        0x080049f0:    e7fa        ..      B        0x80049e8 ; prvResetNextTaskUnblockTime + 16
    $d
        0x080049f2:    0000        ..      DCW    0
        0x080049f4:    2000003c    <..     DCD    536870972
    $t
    i.prvSampleTimeNow
    prvSampleTimeNow
        0x080049f8:    b570        p.      PUSH     {r4-r6,lr}
        0x080049fa:    4605        .F      MOV      r5,r0
        0x080049fc:    f001f9d8    ....    BL       xTaskGetTickCount ; 0x8005db0
        0x08004a00:    4e06        .N      LDR      r6,[pc,#24] ; [0x8004a1c] = 0x20000078
        0x08004a02:    4604        .F      MOV      r4,r0
        0x08004a04:    6930        0i      LDR      r0,[r6,#0x10]
        0x08004a06:    4284        .B      CMP      r4,r0
        0x08004a08:    d203        ..      BCS      0x8004a12 ; prvSampleTimeNow + 26
        0x08004a0a:    f000f809    ....    BL       prvSwitchTimerLists ; 0x8004a20
        0x08004a0e:    2001        .       MOVS     r0,#1
        0x08004a10:    e000        ..      B        0x8004a14 ; prvSampleTimeNow + 28
        0x08004a12:    2000        .       MOVS     r0,#0
        0x08004a14:    6028        (`      STR      r0,[r5,#0]
        0x08004a16:    4620         F      MOV      r0,r4
        0x08004a18:    6134        4a      STR      r4,[r6,#0x10]
        0x08004a1a:    bd70        p.      POP      {r4-r6,pc}
    $d
        0x08004a1c:    20000078    x..     DCD    536871032
    $t
    i.prvSwitchTimerLists
    prvSwitchTimerLists
        0x08004a20:    b5f8        ..      PUSH     {r3-r7,lr}
        0x08004a22:    4d19        .M      LDR      r5,[pc,#100] ; [0x8004a88] = 0x20000078
        0x08004a24:    e01f        ..      B        0x8004a66 ; prvSwitchTimerLists + 70
        0x08004a26:    68c0        .h      LDR      r0,[r0,#0xc]
        0x08004a28:    68c4        .h      LDR      r4,[r0,#0xc]
        0x08004a2a:    6806        .h      LDR      r6,[r0,#0]
        0x08004a2c:    1d20         .      ADDS     r0,r4,#4
        0x08004a2e:    f000fa47    ..G.    BL       uxListRemove ; 0x8004ec0
        0x08004a32:    6a61        aj      LDR      r1,[r4,#0x24]
        0x08004a34:    4620         F      MOV      r0,r4
        0x08004a36:    4788        .G      BLX      r1
        0x08004a38:    69e0        .i      LDR      r0,[r4,#0x1c]
        0x08004a3a:    2801        .(      CMP      r0,#1
        0x08004a3c:    d113        ..      BNE      0x8004a66 ; prvSwitchTimerLists + 70
        0x08004a3e:    69a0        .i      LDR      r0,[r4,#0x18]
        0x08004a40:    4430        0D      ADD      r0,r0,r6
        0x08004a42:    42b0        .B      CMP      r0,r6
        0x08004a44:    d906        ..      BLS      0x8004a54 ; prvSwitchTimerLists + 52
        0x08004a46:    6124        $a      STR      r4,[r4,#0x10]
        0x08004a48:    6060        ``      STR      r0,[r4,#4]
        0x08004a4a:    1d21        !.      ADDS     r1,r4,#4
        0x08004a4c:    6828        (h      LDR      r0,[r5,#0]
        0x08004a4e:    f000fa71    ..q.    BL       vListInsert ; 0x8004f34
        0x08004a52:    e008        ..      B        0x8004a66 ; prvSwitchTimerLists + 70
        0x08004a54:    2000        .       MOVS     r0,#0
        0x08004a56:    4603        .F      MOV      r3,r0
        0x08004a58:    4601        .F      MOV      r1,r0
        0x08004a5a:    9000        ..      STR      r0,[sp,#0]
        0x08004a5c:    4632        2F      MOV      r2,r6
        0x08004a5e:    4620         F      MOV      r0,r4
        0x08004a60:    f001fb56    ..V.    BL       xTimerGenericCommand ; 0x8006110
        0x08004a64:    b138        8.      CBZ      r0,0x8004a76 ; prvSwitchTimerLists + 86
        0x08004a66:    6828        (h      LDR      r0,[r5,#0]
        0x08004a68:    6801        .h      LDR      r1,[r0,#0]
        0x08004a6a:    2900        .)      CMP      r1,#0
        0x08004a6c:    d1db        ..      BNE      0x8004a26 ; prvSwitchTimerLists + 6
        0x08004a6e:    6869        ih      LDR      r1,[r5,#4]
        0x08004a70:    e9c51000    ....    STRD     r1,r0,[r5,#0]
        0x08004a74:    bdf8        ..      POP      {r3-r7,pc}
        0x08004a76:    2050        P       MOVS     r0,#0x50
        0x08004a78:    f3808811    ....    MSR      BASEPRI,r0
        0x08004a7c:    f3bf8f4f    ..O.    DSB      
        0x08004a80:    f3bf8f6f    ..o.    ISB      
        0x08004a84:    e7fe        ..      B        0x8004a84 ; prvSwitchTimerLists + 100
    $d
        0x08004a86:    0000        ..      DCW    0
        0x08004a88:    20000078    x..     DCD    536871032
    $t
    i.prvTaskExitError
    prvTaskExitError
        0x08004a8c:    4808        .H      LDR      r0,[pc,#32] ; [0x8004ab0] = 0x200000a8
        0x08004a8e:    6840        @h      LDR      r0,[r0,#4]
        0x08004a90:    1c40        @.      ADDS     r0,r0,#1
        0x08004a92:    f04f0050    O.P.    MOV      r0,#0x50
        0x08004a96:    f3808811    ....    MSR      BASEPRI,r0
        0x08004a9a:    d004        ..      BEQ      0x8004aa6 ; prvTaskExitError + 26
        0x08004a9c:    f3bf8f4f    ..O.    DSB      
        0x08004aa0:    f3bf8f6f    ..o.    ISB      
        0x08004aa4:    e7fe        ..      B        0x8004aa4 ; prvTaskExitError + 24
        0x08004aa6:    f3bf8f4f    ..O.    DSB      
        0x08004aaa:    f3bf8f6f    ..o.    ISB      
        0x08004aae:    e7fe        ..      B        0x8004aae ; prvTaskExitError + 34
    $d
        0x08004ab0:    200000a8    ...     DCD    536871080
    $t
    i.prvTaskIsTaskSuspended
    prvTaskIsTaskSuspended
        0x08004ab4:    2100        .!      MOVS     r1,#0
        0x08004ab6:    b150        P.      CBZ      r0,0x8004ace ; prvTaskIsTaskSuspended + 26
        0x08004ab8:    4b0a        .K      LDR      r3,[pc,#40] ; [0x8004ae4] = 0x20000b48
        0x08004aba:    6942        Bi      LDR      r2,[r0,#0x14]
        0x08004abc:    429a        .B      CMP      r2,r3
        0x08004abe:    d10f        ..      BNE      0x8004ae0 ; prvTaskIsTaskSuspended + 44
        0x08004ac0:    6a80        .j      LDR      r0,[r0,#0x28]
        0x08004ac2:    f1a30228    ..(.    SUB      r2,r3,#0x28
        0x08004ac6:    4290        .B      CMP      r0,r2
        0x08004ac8:    d00a        ..      BEQ      0x8004ae0 ; prvTaskIsTaskSuspended + 44
        0x08004aca:    b140        @.      CBZ      r0,0x8004ade ; prvTaskIsTaskSuspended + 42
        0x08004acc:    e008        ..      B        0x8004ae0 ; prvTaskIsTaskSuspended + 44
        0x08004ace:    2050        P       MOVS     r0,#0x50
        0x08004ad0:    f3808811    ....    MSR      BASEPRI,r0
        0x08004ad4:    f3bf8f4f    ..O.    DSB      
        0x08004ad8:    f3bf8f6f    ..o.    ISB      
        0x08004adc:    e7fe        ..      B        0x8004adc ; prvTaskIsTaskSuspended + 40
        0x08004ade:    2101        .!      MOVS     r1,#1
        0x08004ae0:    4608        .F      MOV      r0,r1
        0x08004ae2:    4770        pG      BX       lr
    $d
        0x08004ae4:    20000b48    H..     DCD    536873800
    $t
    i.prvTimerTask
    prvTimerTask
        0x08004ae8:    4c07        .L      LDR      r4,[pc,#28] ; [0x8004b08] = 0x20000078
        0x08004aea:    6820         h      LDR      r0,[r4,#0]
        0x08004aec:    6801        .h      LDR      r1,[r0,#0]
        0x08004aee:    b141        A.      CBZ      r1,0x8004b02 ; prvTimerTask + 26
        0x08004af0:    68c0        .h      LDR      r0,[r0,#0xc]
        0x08004af2:    2100        .!      MOVS     r1,#0
        0x08004af4:    f8d00000    ....    LDR.W    r0,[r0,#0]
        0x08004af8:    f7ffff14    ....    BL       prvProcessTimerOrBlockTask ; 0x8004924
        0x08004afc:    f7fffeac    ....    BL       prvProcessReceivedCommands ; 0x8004858
        0x08004b00:    e7f3        ..      B        0x8004aea ; prvTimerTask + 2
        0x08004b02:    2101        .!      MOVS     r1,#1
        0x08004b04:    2000        .       MOVS     r0,#0
        0x08004b06:    e7f7        ..      B        0x8004af8 ; prvTimerTask + 16
    $d
        0x08004b08:    20000078    x..     DCD    536871032
    $t
    i.prvUnlockQueue
    prvUnlockQueue
        0x08004b0c:    e92d41f0    -..A    PUSH     {r4-r8,lr}
        0x08004b10:    4604        .F      MOV      r4,r0
        0x08004b12:    f000fa33    ..3.    BL       vPortEnterCritical ; 0x8004f7c
        0x08004b16:    f9945045    ..EP    LDRSB    r5,[r4,#0x45]
        0x08004b1a:    f1040624    ..$.    ADD      r6,r4,#0x24
        0x08004b1e:    e009        ..      B        0x8004b34 ; prvUnlockQueue + 40
        0x08004b20:    6a60        `j      LDR      r0,[r4,#0x24]
        0x08004b22:    b148        H.      CBZ      r0,0x8004b38 ; prvUnlockQueue + 44
        0x08004b24:    4630        0F      MOV      r0,r6
        0x08004b26:    f001fa29    ..).    BL       xTaskRemoveFromEventList ; 0x8005f7c
        0x08004b2a:    b108        ..      CBZ      r0,0x8004b30 ; prvUnlockQueue + 36
        0x08004b2c:    f000fb70    ..p.    BL       vTaskMissedYield ; 0x8005210
        0x08004b30:    1e6d        m.      SUBS     r5,r5,#1
        0x08004b32:    b26d        m.      SXTB     r5,r5
        0x08004b34:    2d00        .-      CMP      r5,#0
        0x08004b36:    dcf3        ..      BGT      0x8004b20 ; prvUnlockQueue + 20
        0x08004b38:    f04f36ff    O..6    MOV      r6,#0xffffffff
        0x08004b3c:    f8846045    ..E`    STRB     r6,[r4,#0x45]
        0x08004b40:    f000fa3c    ..<.    BL       vPortExitCritical ; 0x8004fbc
        0x08004b44:    f000fa1a    ....    BL       vPortEnterCritical ; 0x8004f7c
        0x08004b48:    f9945044    ..DP    LDRSB    r5,[r4,#0x44]
        0x08004b4c:    f1040710    ....    ADD      r7,r4,#0x10
        0x08004b50:    e009        ..      B        0x8004b66 ; prvUnlockQueue + 90
        0x08004b52:    6920         i      LDR      r0,[r4,#0x10]
        0x08004b54:    b148        H.      CBZ      r0,0x8004b6a ; prvUnlockQueue + 94
        0x08004b56:    4638        8F      MOV      r0,r7
        0x08004b58:    f001fa10    ....    BL       xTaskRemoveFromEventList ; 0x8005f7c
        0x08004b5c:    b108        ..      CBZ      r0,0x8004b62 ; prvUnlockQueue + 86
        0x08004b5e:    f000fb57    ..W.    BL       vTaskMissedYield ; 0x8005210
        0x08004b62:    1e6d        m.      SUBS     r5,r5,#1
        0x08004b64:    b26d        m.      SXTB     r5,r5
        0x08004b66:    2d00        .-      CMP      r5,#0
        0x08004b68:    dcf3        ..      BGT      0x8004b52 ; prvUnlockQueue + 70
        0x08004b6a:    f8846044    ..D`    STRB     r6,[r4,#0x44]
        0x08004b6e:    e8bd41f0    ...A    POP      {r4-r8,lr}
        0x08004b72:    f000ba23    ..#.    B.W      vPortExitCritical ; 0x8004fbc
        0x08004b76:    0000        ..      MOVS     r0,r0
    i.pvPortMalloc
    pvPortMalloc
        0x08004b78:    e92d41f0    -..A    PUSH     {r4-r8,lr}
        0x08004b7c:    4605        .F      MOV      r5,r0
        0x08004b7e:    2700        .'      MOVS     r7,#0
        0x08004b80:    f000fc98    ....    BL       vTaskSuspendAll ; 0x80054b4
        0x08004b84:    4e31        1N      LDR      r6,[pc,#196] ; [0x8004c4c] = 0x20000090
        0x08004b86:    6830        0h      LDR      r0,[r6,#0]
        0x08004b88:    b908        ..      CBNZ     r0,0x8004b8e ; pvPortMalloc + 22
        0x08004b8a:    f7fffd53    ..S.    BL       prvHeapInit ; 0x8004634
        0x08004b8e:    68f0        .h      LDR      r0,[r6,#0xc]
        0x08004b90:    4205        .B      TST      r5,r0
        0x08004b92:    d14b        K.      BNE      0x8004c2c ; pvPortMalloc + 180
        0x08004b94:    b3c5        ..      CBZ      r5,0x8004c08 ; pvPortMalloc + 144
        0x08004b96:    3508        .5      ADDS     r5,r5,#8
        0x08004b98:    0768        h.      LSLS     r0,r5,#29
        0x08004b9a:    d00e        ..      BEQ      0x8004bba ; pvPortMalloc + 66
        0x08004b9c:    f0050007    ....    AND      r0,r5,#7
        0x08004ba0:    f1c00008    ....    RSB      r0,r0,#8
        0x08004ba4:    4405        .D      ADD      r5,r5,r0
        0x08004ba6:    0768        h.      LSLS     r0,r5,#29
        0x08004ba8:    d007        ..      BEQ      0x8004bba ; pvPortMalloc + 66
        0x08004baa:    2050        P       MOVS     r0,#0x50
        0x08004bac:    f3808811    ....    MSR      BASEPRI,r0
        0x08004bb0:    f3bf8f4f    ..O.    DSB      
        0x08004bb4:    f3bf8f6f    ..o.    ISB      
        0x08004bb8:    e7fe        ..      B        0x8004bb8 ; pvPortMalloc + 64
        0x08004bba:    b32d        -.      CBZ      r5,0x8004c08 ; pvPortMalloc + 144
        0x08004bbc:    6870        ph      LDR      r0,[r6,#4]
        0x08004bbe:    4285        .B      CMP      r5,r0
        0x08004bc0:    d834        4.      BHI      0x8004c2c ; pvPortMalloc + 180
        0x08004bc2:    4822        "H      LDR      r0,[pc,#136] ; [0x8004c4c] = 0x20000090
        0x08004bc4:    3010        .0      ADDS     r0,r0,#0x10
        0x08004bc6:    4601        .F      MOV      r1,r0
        0x08004bc8:    680c        .h      LDR      r4,[r1,#0]
        0x08004bca:    e001        ..      B        0x8004bd0 ; pvPortMalloc + 88
        0x08004bcc:    4620         F      MOV      r0,r4
        0x08004bce:    460c        .F      MOV      r4,r1
        0x08004bd0:    6861        ah      LDR      r1,[r4,#4]
        0x08004bd2:    42a9        .B      CMP      r1,r5
        0x08004bd4:    d202        ..      BCS      0x8004bdc ; pvPortMalloc + 100
        0x08004bd6:    6821        !h      LDR      r1,[r4,#0]
        0x08004bd8:    2900        .)      CMP      r1,#0
        0x08004bda:    d1f7        ..      BNE      0x8004bcc ; pvPortMalloc + 84
        0x08004bdc:    6831        1h      LDR      r1,[r6,#0]
        0x08004bde:    428c        .B      CMP      r4,r1
        0x08004be0:    d024        $.      BEQ      0x8004c2c ; pvPortMalloc + 180
        0x08004be2:    6807        .h      LDR      r7,[r0,#0]
        0x08004be4:    6821        !h      LDR      r1,[r4,#0]
        0x08004be6:    6001        .`      STR      r1,[r0,#0]
        0x08004be8:    6860        `h      LDR      r0,[r4,#4]
        0x08004bea:    3708        .7      ADDS     r7,r7,#8
        0x08004bec:    1b41        A.      SUBS     r1,r0,r5
        0x08004bee:    2910        .)      CMP      r1,#0x10
        0x08004bf0:    d90f        ..      BLS      0x8004c12 ; pvPortMalloc + 154
        0x08004bf2:    1960        `.      ADDS     r0,r4,r5
        0x08004bf4:    0742        B.      LSLS     r2,r0,#29
        0x08004bf6:    d008        ..      BEQ      0x8004c0a ; pvPortMalloc + 146
        0x08004bf8:    2050        P       MOVS     r0,#0x50
        0x08004bfa:    f3808811    ....    MSR      BASEPRI,r0
        0x08004bfe:    f3bf8f4f    ..O.    DSB      
        0x08004c02:    f3bf8f6f    ..o.    ISB      
        0x08004c06:    e7fe        ..      B        0x8004c06 ; pvPortMalloc + 142
        0x08004c08:    e010        ..      B        0x8004c2c ; pvPortMalloc + 180
        0x08004c0a:    6041        A`      STR      r1,[r0,#4]
        0x08004c0c:    6065        e`      STR      r5,[r4,#4]
        0x08004c0e:    f7fffdd3    ....    BL       prvInsertBlockIntoFreeList ; 0x80047b8
        0x08004c12:    6861        ah      LDR      r1,[r4,#4]
        0x08004c14:    6870        ph      LDR      r0,[r6,#4]
        0x08004c16:    1a40        @.      SUBS     r0,r0,r1
        0x08004c18:    6070        p`      STR      r0,[r6,#4]
        0x08004c1a:    68b2        .h      LDR      r2,[r6,#8]
        0x08004c1c:    4290        .B      CMP      r0,r2
        0x08004c1e:    d200        ..      BCS      0x8004c22 ; pvPortMalloc + 170
        0x08004c20:    60b0        .`      STR      r0,[r6,#8]
        0x08004c22:    68f0        .h      LDR      r0,[r6,#0xc]
        0x08004c24:    4301        .C      ORRS     r1,r1,r0
        0x08004c26:    2000        .       MOVS     r0,#0
        0x08004c28:    e9c40100    ....    STRD     r0,r1,[r4,#0]
        0x08004c2c:    f001f9de    ....    BL       xTaskResumeAll ; 0x8005fec
        0x08004c30:    0778        x.      LSLS     r0,r7,#29
        0x08004c32:    d007        ..      BEQ      0x8004c44 ; pvPortMalloc + 204
        0x08004c34:    2050        P       MOVS     r0,#0x50
        0x08004c36:    f3808811    ....    MSR      BASEPRI,r0
        0x08004c3a:    f3bf8f4f    ..O.    DSB      
        0x08004c3e:    f3bf8f6f    ..o.    ISB      
        0x08004c42:    e7fe        ..      B        0x8004c42 ; pvPortMalloc + 202
        0x08004c44:    4638        8F      MOV      r0,r7
        0x08004c46:    e8bd81f0    ....    POP      {r4-r8,pc}
    $d
        0x08004c4a:    0000        ..      DCW    0
        0x08004c4c:    20000090    ...     DCD    536871056
    $t
    i.pvTaskIncrementMutexHeldCount
    pvTaskIncrementMutexHeldCount
        0x08004c50:    4904        .I      LDR      r1,[pc,#16] ; [0x8004c64] = 0x2000003c
        0x08004c52:    6808        .h      LDR      r0,[r1,#0]
        0x08004c54:    b118        ..      CBZ      r0,0x8004c5e ; pvTaskIncrementMutexHeldCount + 14
        0x08004c56:    6808        .h      LDR      r0,[r1,#0]
        0x08004c58:    6d02        .m      LDR      r2,[r0,#0x50]
        0x08004c5a:    1c52        R.      ADDS     r2,r2,#1
        0x08004c5c:    6502        .e      STR      r2,[r0,#0x50]
        0x08004c5e:    6808        .h      LDR      r0,[r1,#0]
        0x08004c60:    4770        pG      BX       lr
    $d
        0x08004c62:    0000        ..      DCW    0
        0x08004c64:    2000003c    <..     DCD    536870972
    $t
    i.pxPortInitialiseStack
    pxPortInitialiseStack
        0x08004c68:    b510        ..      PUSH     {r4,lr}
        0x08004c6a:    1f03        ..      SUBS     r3,r0,#4
        0x08004c6c:    f04f7480    O..t    MOV      r4,#0x1000000
        0x08004c70:    601c        .`      STR      r4,[r3,#0]
        0x08004c72:    1f1b        ..      SUBS     r3,r3,#4
        0x08004c74:    f0210101    !...    BIC      r1,r1,#1
        0x08004c78:    6019        .`      STR      r1,[r3,#0]
        0x08004c7a:    1f19        ..      SUBS     r1,r3,#4
        0x08004c7c:    4b02        .K      LDR      r3,[pc,#8] ; [0x8004c88] = 0x8004a8d
        0x08004c7e:    600b        .`      STR      r3,[r1,#0]
        0x08004c80:    3914        .9      SUBS     r1,r1,#0x14
        0x08004c82:    3840        @8      SUBS     r0,r0,#0x40
        0x08004c84:    600a        .`      STR      r2,[r1,#0]
        0x08004c86:    bd10        ..      POP      {r4,pc}
    $d
        0x08004c88:    08004a8d    .J..    DCD    134236813
    $t
    i.random_number
    random_number
        0x08004c8c:    b570        p.      PUSH     {r4-r6,lr}
        0x08004c8e:    f7fffb9d    ....    BL       platform_timer_now ; 0x80043cc
        0x08004c92:    4a09        .J      LDR      r2,[pc,#36] ; [0x8004cb8] = 0x200000b8
        0x08004c94:    2403        .$      MOVS     r4,#3
        0x08004c96:    6811        .h      LDR      r1,[r2,#0]
        0x08004c98:    ea800301    ....    EOR      r3,r0,r1
        0x08004c9c:    fbb3f5f4    ....    UDIV     r5,r3,r4
        0x08004ca0:    fb043315    ...3    MLS      r3,r4,r5,r3
        0x08004ca4:    fa20f303     ...    LSR      r3,r0,r3
        0x08004ca8:    4419        .D      ADD      r1,r1,r3
        0x08004caa:    6011        .`      STR      r1,[r2,#0]
        0x08004cac:    e8bd4070    ..p@    POP      {r4-r6,lr}
        0x08004cb0:    4048        H@      EORS     r0,r0,r1
        0x08004cb2:    f7fdbd21    ..!.    B        do_random ; 0x80026f8
    $d
        0x08004cb6:    0000        ..      DCW    0
        0x08004cb8:    200000b8    ...     DCD    536871096
    $t
    i.random_string
    random_string
        0x08004cbc:    e92d5ff0    -.._    PUSH     {r4-r12,lr}
        0x08004cc0:    4607        .F      MOV      r7,r0
        0x08004cc2:    1c40        @.      ADDS     r0,r0,#1
        0x08004cc4:    f7fffa28    ..(.    BL       platform_memory_alloc ; 0x8004118
        0x08004cc8:    0006        ..      MOVS     r6,r0
        0x08004cca:    d00c        ..      BEQ      0x8004ce6 ; random_string + 42
        0x08004ccc:    f7ffffde    ....    BL       random_number ; 0x8004c8c
        0x08004cd0:    ea860100    ....    EOR      r1,r6,r0
        0x08004cd4:    4408        .D      ADD      r0,r0,r1
        0x08004cd6:    4681        .F      MOV      r9,r0
        0x08004cd8:    f7fdfd0e    ....    BL       do_random ; 0x80026f8
        0x08004cdc:    2400        .$      MOVS     r4,#0
        0x08004cde:    46a2        .F      MOV      r10,r4
        0x08004ce0:    f04f0b1a    O...    MOV      r11,#0x1a
        0x08004ce4:    e032        2.      B        0x8004d4c ; random_string + 144
        0x08004ce6:    2000        .       MOVS     r0,#0
        0x08004ce8:    e8bd9ff0    ....    POP      {r4-r12,pc}
        0x08004cec:    ea890000    ....    EOR      r0,r9,r0
        0x08004cf0:    f7fdfd02    ....    BL       do_random ; 0x80026f8
        0x08004cf4:    4605        .F      MOV      r5,r0
        0x08004cf6:    2003        .       MOVS     r0,#3
        0x08004cf8:    fbb5f1f0    ....    UDIV     r1,r5,r0
        0x08004cfc:    fb005011    ...P    MLS      r0,r0,r1,r5
        0x08004d00:    f1b00800    ....    SUBS     r8,r0,#0
        0x08004d04:    d006        ..      BEQ      0x8004d14 ; random_string + 88
        0x08004d06:    2801        .(      CMP      r0,#1
        0x08004d08:    d00d        ..      BEQ      0x8004d26 ; random_string + 106
        0x08004d0a:    f1b80f02    ....    CMP      r8,#2
        0x08004d0e:    d023        #.      BEQ      0x8004d58 ; random_string + 156
        0x08004d10:    2078        x       MOVS     r0,#0x78
        0x08004d12:    e012        ..      B        0x8004d3a ; random_string + 126
        0x08004d14:    4628        (F      MOV      r0,r5
        0x08004d16:    f7fdfcef    ....    BL       do_random ; 0x80026f8
        0x08004d1a:    fb90f2fb    ....    SDIV     r2,r0,r11
        0x08004d1e:    fb0b0012    ....    MLS      r0,r11,r2,r0
        0x08004d22:    3041        A0      ADDS     r0,r0,#0x41
        0x08004d24:    e009        ..      B        0x8004d3a ; random_string + 126
        0x08004d26:    f0040001    ....    AND      r0,r4,#1
        0x08004d2a:    4068        h@      EORS     r0,r0,r5
        0x08004d2c:    f7fdfce4    ....    BL       do_random ; 0x80026f8
        0x08004d30:    fb90f2fb    ....    SDIV     r2,r0,r11
        0x08004d34:    fb0b0012    ....    MLS      r0,r11,r2,r0
        0x08004d38:    3061        a0      ADDS     r0,r0,#0x61
        0x08004d3a:    490d        .I      LDR      r1,[pc,#52] ; [0x8004d70] = 0xb433e5c6
        0x08004d3c:    5530        0U      STRB     r0,[r6,r4]
        0x08004d3e:    ea850001    ....    EOR      r0,r5,r1
        0x08004d42:    ea040108    ....    AND      r1,r4,r8
        0x08004d46:    4088        .@      LSLS     r0,r0,r1
        0x08004d48:    4428        (D      ADD      r0,r0,r5
        0x08004d4a:    1c64        d.      ADDS     r4,r4,#1
        0x08004d4c:    42bc        .B      CMP      r4,r7
        0x08004d4e:    d3cd        ..      BCC      0x8004cec ; random_string + 48
        0x08004d50:    f806a007    ....    STRB     r10,[r6,r7]
        0x08004d54:    4630        0F      MOV      r0,r6
        0x08004d56:    e7c7        ..      B        0x8004ce8 ; random_string + 44
        0x08004d58:    f0040002    ....    AND      r0,r4,#2
        0x08004d5c:    4068        h@      EORS     r0,r0,r5
        0x08004d5e:    f7fdfccb    ....    BL       do_random ; 0x80026f8
        0x08004d62:    210a        .!      MOVS     r1,#0xa
        0x08004d64:    fb90f2f1    ....    SDIV     r2,r0,r1
        0x08004d68:    fb010012    ....    MLS      r0,r1,r2,r0
        0x08004d6c:    3030        00      ADDS     r0,r0,#0x30
        0x08004d6e:    e7e4        ..      B        0x8004d3a ; random_string + 126
    $d
        0x08004d70:    b433e5c6    ..3.    DCD    3023300038
    $t
    i.readChar
    readChar
        0x08004d74:    6801        .h      LDR      r1,[r0,#0]
        0x08004d76:    f8112b01    ...+    LDRB     r2,[r1],#1
        0x08004d7a:    6001        .`      STR      r1,[r0,#0]
        0x08004d7c:    4610        .F      MOV      r0,r2
        0x08004d7e:    4770        pG      BX       lr
    i.readInt
    readInt
        0x08004d80:    6801        .h      LDR      r1,[r0,#0]
        0x08004d82:    784a        Jx      LDRB     r2,[r1,#1]
        0x08004d84:    f8113b02    ...;    LDRB     r3,[r1],#2
        0x08004d88:    6001        .`      STR      r1,[r0,#0]
        0x08004d8a:    eb022203    ..."    ADD      r2,r2,r3,LSL #8
        0x08004d8e:    4610        .F      MOV      r0,r2
        0x08004d90:    4770        pG      BX       lr
    i.readMQTTLenString
    readMQTTLenString
        0x08004d92:    b5f0        ..      PUSH     {r4-r7,lr}
        0x08004d94:    4605        .F      MOV      r5,r0
        0x08004d96:    6808        .h      LDR      r0,[r1,#0]
        0x08004d98:    2600        .&      MOVS     r6,#0
        0x08004d9a:    1a10        ..      SUBS     r0,r2,r0
        0x08004d9c:    4617        .F      MOV      r7,r2
        0x08004d9e:    460c        .F      MOV      r4,r1
        0x08004da0:    2801        .(      CMP      r0,#1
        0x08004da2:    dd0c        ..      BLE      0x8004dbe ; readMQTTLenString + 44
        0x08004da4:    4608        .F      MOV      r0,r1
        0x08004da6:    f7ffffeb    ....    BL       readInt ; 0x8004d80
        0x08004daa:    6068        h`      STR      r0,[r5,#4]
        0x08004dac:    6821        !h      LDR      r1,[r4,#0]
        0x08004dae:    180a        ..      ADDS     r2,r1,r0
        0x08004db0:    42ba        .B      CMP      r2,r7
        0x08004db2:    d804        ..      BHI      0x8004dbe ; readMQTTLenString + 44
        0x08004db4:    60a9        .`      STR      r1,[r5,#8]
        0x08004db6:    6821        !h      LDR      r1,[r4,#0]
        0x08004db8:    2601        .&      MOVS     r6,#1
        0x08004dba:    4408        .D      ADD      r0,r0,r1
        0x08004dbc:    6020         `      STR      r0,[r4,#0]
        0x08004dbe:    2000        .       MOVS     r0,#0
        0x08004dc0:    6028        (`      STR      r0,[r5,#0]
        0x08004dc2:    4630        0F      MOV      r0,r6
        0x08004dc4:    bdf0        ..      POP      {r4-r7,pc}
        0x08004dc6:    0000        ..      MOVS     r0,r0
    i.smarthome_msg_handler
    smarthome_msg_handler
        0x08004dc8:    b570        p.      PUSH     {r4-r6,lr}
        0x08004dca:    6c08        .l      LDR      r0,[r1,#0x40]
        0x08004dcc:    460c        .F      MOV      r4,r1
        0x08004dce:    68c1        .h      LDR      r1,[r0,#0xc]
        0x08004dd0:    a017        ..      ADR      r0,{pc}+0x60 ; 0x8004e30
        0x08004dd2:    f7fbfa6d    ..m.    BL       __2printf ; 0x80002b0
        0x08004dd6:    6c20         l      LDR      r0,[r4,#0x40]
        0x08004dd8:    a119        ..      ADR      r1,{pc}+0x68 ; 0x8004e40
        0x08004dda:    68c0        .h      LDR      r0,[r0,#0xc]
        0x08004ddc:    f7fbfbfc    ....    BL       strstr ; 0x80005d8
        0x08004de0:    4d1e        .M      LDR      r5,[pc,#120] ; [0x8004e5c] = 0x40010800
        0x08004de2:    b120         .      CBZ      r0,0x8004dee ; smarthome_msg_handler + 38
        0x08004de4:    a01e        ..      ADR      r0,{pc}+0x7c ; 0x8004e60
        0x08004de6:    f7fbfa63    ..c.    BL       __2printf ; 0x80002b0
        0x08004dea:    2201        ."      MOVS     r2,#1
        0x08004dec:    e009        ..      B        0x8004e02 ; smarthome_msg_handler + 58
        0x08004dee:    6c20         l      LDR      r0,[r4,#0x40]
        0x08004df0:    a11e        ..      ADR      r1,{pc}+0x7c ; 0x8004e6c
        0x08004df2:    68c0        .h      LDR      r0,[r0,#0xc]
        0x08004df4:    f7fbfbf0    ....    BL       strstr ; 0x80005d8
        0x08004df8:    b148        H.      CBZ      r0,0x8004e0e ; smarthome_msg_handler + 70
        0x08004dfa:    a023        #.      ADR      r0,{pc}+0x8e ; 0x8004e88
        0x08004dfc:    f7fbfa58    ..X.    BL       __2printf ; 0x80002b0
        0x08004e00:    2200        ."      MOVS     r2,#0
        0x08004e02:    4628        (F      MOV      r0,r5
        0x08004e04:    e8bd4070    ..p@    POP      {r4-r6,lr}
        0x08004e08:    2102        .!      MOVS     r1,#2
        0x08004e0a:    f7fcb8ff    ....    B        HAL_GPIO_WritePin ; 0x800100c
        0x08004e0e:    6c20         l      LDR      r0,[r4,#0x40]
        0x08004e10:    a120         .      ADR      r1,{pc}+0x84 ; 0x8004e94
        0x08004e12:    68c0        .h      LDR      r0,[r0,#0xc]
        0x08004e14:    f7fbfbe0    ....    BL       strstr ; 0x80005d8
        0x08004e18:    2800        .(      CMP      r0,#0
        0x08004e1a:    d008        ..      BEQ      0x8004e2e ; smarthome_msg_handler + 102
        0x08004e1c:    a024        $.      ADR      r0,{pc}+0x94 ; 0x8004eb0
        0x08004e1e:    f7fbfa47    ..G.    BL       __2printf ; 0x80002b0
        0x08004e22:    4628        (F      MOV      r0,r5
        0x08004e24:    e8bd4070    ..p@    POP      {r4-r6,lr}
        0x08004e28:    2102        .!      MOVS     r1,#2
        0x08004e2a:    f7fcb8e7    ....    B        HAL_GPIO_TogglePin ; 0x8000ffc
        0x08004e2e:    bd70        p.      POP      {r4-r6,pc}
    $d
        0x08004e30:    20746547    Get     DCD    544499015
        0x08004e34:    3a67736d    msg:    DCD    979858285
        0x08004e38:    0d732520     %s.    DCD    225649952
        0x08004e3c:    0000000a    ....    DCD    10
        0x08004e40:    76656422    "dev    DCD    1986356258
        0x08004e44:    6c223a22    ":"l    DCD    1814182434
        0x08004e48:    2c226465    ed",    DCD    740451429
        0x08004e4c:    61747322    "sta    DCD    1635021602
        0x08004e50:    22737574    tus"    DCD    577992052
        0x08004e54:    2230223a    :"0"    DCD    573579834
        0x08004e58:    00000000    ....    DCD    0
        0x08004e5c:    40010800    ...@    DCD    1073809408
        0x08004e60:    2064656c    led     DCD    543450476
        0x08004e64:    0d66666f    off.    DCD    224814703
        0x08004e68:    0000000a    ....    DCD    10
        0x08004e6c:    76656422    "dev    DCD    1986356258
        0x08004e70:    6c223a22    ":"l    DCD    1814182434
        0x08004e74:    2c226465    ed",    DCD    740451429
        0x08004e78:    61747322    "sta    DCD    1635021602
        0x08004e7c:    22737574    tus"    DCD    577992052
        0x08004e80:    2231223a    :"1"    DCD    573645370
        0x08004e84:    00000000    ....    DCD    0
        0x08004e88:    2064656c    led     DCD    543450476
        0x08004e8c:    0a0d6e6f    on..    DCD    168652399
        0x08004e90:    00000000    ....    DCD    0
        0x08004e94:    76656422    "dev    DCD    1986356258
        0x08004e98:    6c223a22    ":"l    DCD    1814182434
        0x08004e9c:    2c226465    ed",    DCD    740451429
        0x08004ea0:    61747322    "sta    DCD    1635021602
        0x08004ea4:    22737574    tus"    DCD    577992052
        0x08004ea8:    2232223a    :"2"    DCD    573710906
        0x08004eac:    00000000    ....    DCD    0
        0x08004eb0:    2064656c    led     DCD    543450476
        0x08004eb4:    74697773    swit    DCD    1953068915
        0x08004eb8:    0a0d6863    ch..    DCD    168650851
        0x08004ebc:    00000000    ....    DCD    0
    $t
    i.uxListRemove
    uxListRemove
        0x08004ec0:    e9d03201    ...2    LDRD     r3,r2,[r0,#4]
        0x08004ec4:    6901        .i      LDR      r1,[r0,#0x10]
        0x08004ec6:    609a        .`      STR      r2,[r3,#8]
        0x08004ec8:    e9d02301    ...#    LDRD     r2,r3,[r0,#4]
        0x08004ecc:    605a        Z`      STR      r2,[r3,#4]
        0x08004ece:    684a        Jh      LDR      r2,[r1,#4]
        0x08004ed0:    4282        .B      CMP      r2,r0
        0x08004ed2:    d101        ..      BNE      0x8004ed8 ; uxListRemove + 24
        0x08004ed4:    6882        .h      LDR      r2,[r0,#8]
        0x08004ed6:    604a        J`      STR      r2,[r1,#4]
        0x08004ed8:    2200        ."      MOVS     r2,#0
        0x08004eda:    6102        .a      STR      r2,[r0,#0x10]
        0x08004edc:    6808        .h      LDR      r0,[r1,#0]
        0x08004ede:    1e40        @.      SUBS     r0,r0,#1
        0x08004ee0:    6008        .`      STR      r0,[r1,#0]
        0x08004ee2:    6808        .h      LDR      r0,[r1,#0]
        0x08004ee4:    4770        pG      BX       lr
        0x08004ee6:    0000        ..      MOVS     r0,r0
    i.vApplicationGetIdleTaskMemory
    vApplicationGetIdleTaskMemory
        0x08004ee8:    4b04        .K      LDR      r3,[pc,#16] ; [0x8004efc] = 0x20000c74
        0x08004eea:    6003        .`      STR      r3,[r0,#0]
        0x08004eec:    f103005c    ..\.    ADD      r0,r3,#0x5c
        0x08004ef0:    6008        .`      STR      r0,[r1,#0]
        0x08004ef2:    f44f7000    O..p    MOV      r0,#0x200
        0x08004ef6:    6010        .`      STR      r0,[r2,#0]
        0x08004ef8:    4770        pG      BX       lr
    $d
        0x08004efa:    0000        ..      DCW    0
        0x08004efc:    20000c74    t..     DCD    536874100
    $t
    i.vApplicationGetTimerTaskMemory
    vApplicationGetTimerTaskMemory
        0x08004f00:    4b04        .K      LDR      r3,[pc,#16] ; [0x8004f14] = 0x200014d0
        0x08004f02:    6003        .`      STR      r3,[r0,#0]
        0x08004f04:    f103005c    ..\.    ADD      r0,r3,#0x5c
        0x08004f08:    6008        .`      STR      r0,[r1,#0]
        0x08004f0a:    f44f7080    O..p    MOV      r0,#0x100
        0x08004f0e:    6010        .`      STR      r0,[r2,#0]
        0x08004f10:    4770        pG      BX       lr
    $d
        0x08004f12:    0000        ..      DCW    0
        0x08004f14:    200014d0    ...     DCD    536876240
    $t
    i.vListInitialise
    vListInitialise
        0x08004f18:    f1000108    ....    ADD      r1,r0,#8
        0x08004f1c:    f04f32ff    O..2    MOV      r2,#0xffffffff
        0x08004f20:    e9c01201    ....    STRD     r1,r2,[r0,#4]
        0x08004f24:    60c1        .`      STR      r1,[r0,#0xc]
        0x08004f26:    6101        .a      STR      r1,[r0,#0x10]
        0x08004f28:    2100        .!      MOVS     r1,#0
        0x08004f2a:    6001        .`      STR      r1,[r0,#0]
        0x08004f2c:    4770        pG      BX       lr
    i.vListInitialiseItem
    vListInitialiseItem
        0x08004f2e:    2100        .!      MOVS     r1,#0
        0x08004f30:    6101        .a      STR      r1,[r0,#0x10]
        0x08004f32:    4770        pG      BX       lr
    i.vListInsert
    vListInsert
        0x08004f34:    b530        0.      PUSH     {r4,r5,lr}
        0x08004f36:    680b        .h      LDR      r3,[r1,#0]
        0x08004f38:    1c5a        Z.      ADDS     r2,r3,#1
        0x08004f3a:    d002        ..      BEQ      0x8004f42 ; vListInsert + 14
        0x08004f3c:    f1000208    ....    ADD      r2,r0,#8
        0x08004f40:    e002        ..      B        0x8004f48 ; vListInsert + 20
        0x08004f42:    6902        .i      LDR      r2,[r0,#0x10]
        0x08004f44:    e004        ..      B        0x8004f50 ; vListInsert + 28
        0x08004f46:    4622        "F      MOV      r2,r4
        0x08004f48:    6854        Th      LDR      r4,[r2,#4]
        0x08004f4a:    6825        %h      LDR      r5,[r4,#0]
        0x08004f4c:    429d        .B      CMP      r5,r3
        0x08004f4e:    d9fa        ..      BLS      0x8004f46 ; vListInsert + 18
        0x08004f50:    6853        Sh      LDR      r3,[r2,#4]
        0x08004f52:    604b        K`      STR      r3,[r1,#4]
        0x08004f54:    6099        .`      STR      r1,[r3,#8]
        0x08004f56:    608a        .`      STR      r2,[r1,#8]
        0x08004f58:    6051        Q`      STR      r1,[r2,#4]
        0x08004f5a:    6108        .a      STR      r0,[r1,#0x10]
        0x08004f5c:    6801        .h      LDR      r1,[r0,#0]
        0x08004f5e:    1c49        I.      ADDS     r1,r1,#1
        0x08004f60:    6001        .`      STR      r1,[r0,#0]
        0x08004f62:    bd30        0.      POP      {r4,r5,pc}
    i.vListInsertEnd
    vListInsertEnd
        0x08004f64:    6842        Bh      LDR      r2,[r0,#4]
        0x08004f66:    604a        J`      STR      r2,[r1,#4]
        0x08004f68:    6893        .h      LDR      r3,[r2,#8]
        0x08004f6a:    608b        .`      STR      r3,[r1,#8]
        0x08004f6c:    6893        .h      LDR      r3,[r2,#8]
        0x08004f6e:    6059        Y`      STR      r1,[r3,#4]
        0x08004f70:    6091        .`      STR      r1,[r2,#8]
        0x08004f72:    6108        .a      STR      r0,[r1,#0x10]
        0x08004f74:    6801        .h      LDR      r1,[r0,#0]
        0x08004f76:    1c49        I.      ADDS     r1,r1,#1
        0x08004f78:    6001        .`      STR      r1,[r0,#0]
        0x08004f7a:    4770        pG      BX       lr
    i.vPortEnterCritical
    vPortEnterCritical
        0x08004f7c:    2050        P       MOVS     r0,#0x50
        0x08004f7e:    f3808811    ....    MSR      BASEPRI,r0
        0x08004f82:    f3bf8f4f    ..O.    DSB      
        0x08004f86:    f3bf8f6f    ..o.    ISB      
        0x08004f8a:    490a        .I      LDR      r1,[pc,#40] ; [0x8004fb4] = 0x200000a8
        0x08004f8c:    6848        Hh      LDR      r0,[r1,#4]
        0x08004f8e:    1c40        @.      ADDS     r0,r0,#1
        0x08004f90:    6048        H`      STR      r0,[r1,#4]
        0x08004f92:    2801        .(      CMP      r0,#1
        0x08004f94:    d10c        ..      BNE      0x8004fb0 ; vPortEnterCritical + 52
        0x08004f96:    4808        .H      LDR      r0,[pc,#32] ; [0x8004fb8] = 0xe000ed04
        0x08004f98:    6800        .h      LDR      r0,[r0,#0]
        0x08004f9a:    f0100fff    ....    TST      r0,#0xff
        0x08004f9e:    d007        ..      BEQ      0x8004fb0 ; vPortEnterCritical + 52
        0x08004fa0:    2050        P       MOVS     r0,#0x50
        0x08004fa2:    f3808811    ....    MSR      BASEPRI,r0
        0x08004fa6:    f3bf8f4f    ..O.    DSB      
        0x08004faa:    f3bf8f6f    ..o.    ISB      
        0x08004fae:    e7fe        ..      B        0x8004fae ; vPortEnterCritical + 50
        0x08004fb0:    4770        pG      BX       lr
    $d
        0x08004fb2:    0000        ..      DCW    0
        0x08004fb4:    200000a8    ...     DCD    536871080
        0x08004fb8:    e000ed04    ....    DCD    3758157060
    $t
    i.vPortExitCritical
    vPortExitCritical
        0x08004fbc:    4908        .I      LDR      r1,[pc,#32] ; [0x8004fe0] = 0x200000a8
        0x08004fbe:    6848        Hh      LDR      r0,[r1,#4]
        0x08004fc0:    b128        (.      CBZ      r0,0x8004fce ; vPortExitCritical + 18
        0x08004fc2:    1e40        @.      SUBS     r0,r0,#1
        0x08004fc4:    6048        H`      STR      r0,[r1,#4]
        0x08004fc6:    d101        ..      BNE      0x8004fcc ; vPortExitCritical + 16
        0x08004fc8:    f3808811    ....    MSR      BASEPRI,r0
        0x08004fcc:    4770        pG      BX       lr
        0x08004fce:    2050        P       MOVS     r0,#0x50
        0x08004fd0:    f3808811    ....    MSR      BASEPRI,r0
        0x08004fd4:    f3bf8f4f    ..O.    DSB      
        0x08004fd8:    f3bf8f6f    ..o.    ISB      
        0x08004fdc:    e7fe        ..      B        0x8004fdc ; vPortExitCritical + 32
    $d
        0x08004fde:    0000        ..      DCW    0
        0x08004fe0:    200000a8    ...     DCD    536871080
    $t
    i.vPortFree
    vPortFree
        0x08004fe4:    b570        p.      PUSH     {r4-r6,lr}
        0x08004fe6:    2800        .(      CMP      r0,#0
        0x08004fe8:    d027        '.      BEQ      0x800503a ; vPortFree + 86
        0x08004fea:    4d14        .M      LDR      r5,[pc,#80] ; [0x800503c] = 0x20000090
        0x08004fec:    f1a00408    ....    SUB      r4,r0,#8
        0x08004ff0:    6861        ah      LDR      r1,[r4,#4]
        0x08004ff2:    68e8        .h      LDR      r0,[r5,#0xc]
        0x08004ff4:    4201        .B      TST      r1,r0
        0x08004ff6:    d107        ..      BNE      0x8005008 ; vPortFree + 36
        0x08004ff8:    2050        P       MOVS     r0,#0x50
        0x08004ffa:    f3808811    ....    MSR      BASEPRI,r0
        0x08004ffe:    f3bf8f4f    ..O.    DSB      
        0x08005002:    f3bf8f6f    ..o.    ISB      
        0x08005006:    e7fe        ..      B        0x8005006 ; vPortFree + 34
        0x08005008:    6822        "h      LDR      r2,[r4,#0]
        0x0800500a:    b13a        :.      CBZ      r2,0x800501c ; vPortFree + 56
        0x0800500c:    2050        P       MOVS     r0,#0x50
        0x0800500e:    f3808811    ....    MSR      BASEPRI,r0
        0x08005012:    f3bf8f4f    ..O.    DSB      
        0x08005016:    f3bf8f6f    ..o.    ISB      
        0x0800501a:    e7fe        ..      B        0x800501a ; vPortFree + 54
        0x0800501c:    4381        .C      BICS     r1,r1,r0
        0x0800501e:    6061        a`      STR      r1,[r4,#4]
        0x08005020:    f000fa48    ..H.    BL       vTaskSuspendAll ; 0x80054b4
        0x08005024:    6860        `h      LDR      r0,[r4,#4]
        0x08005026:    6869        ih      LDR      r1,[r5,#4]
        0x08005028:    4408        .D      ADD      r0,r0,r1
        0x0800502a:    6068        h`      STR      r0,[r5,#4]
        0x0800502c:    4620         F      MOV      r0,r4
        0x0800502e:    f7fffbc3    ....    BL       prvInsertBlockIntoFreeList ; 0x80047b8
        0x08005032:    e8bd4070    ..p@    POP      {r4-r6,lr}
        0x08005036:    f000bfd9    ....    B.W      xTaskResumeAll ; 0x8005fec
        0x0800503a:    bd70        p.      POP      {r4-r6,pc}
    $d
        0x0800503c:    20000090    ...     DCD    536871056
    $t
    i.vPortSetupTimerInterrupt
    vPortSetupTimerInterrupt
        0x08005040:    f04f20e0    O..     MOV      r0,#0xe000e000
        0x08005044:    2100        .!      MOVS     r1,#0
        0x08005046:    6101        .a      STR      r1,[r0,#0x10]
        0x08005048:    6181        .a      STR      r1,[r0,#0x18]
        0x0800504a:    4905        .I      LDR      r1,[pc,#20] ; [0x8005060] = 0x20000038
        0x0800504c:    f44f727a    O.zr    MOV      r2,#0x3e8
        0x08005050:    6809        .h      LDR      r1,[r1,#0]
        0x08005052:    fbb1f1f2    ....    UDIV     r1,r1,r2
        0x08005056:    1e49        I.      SUBS     r1,r1,#1
        0x08005058:    6141        Aa      STR      r1,[r0,#0x14]
        0x0800505a:    2107        .!      MOVS     r1,#7
        0x0800505c:    6101        .a      STR      r1,[r0,#0x10]
        0x0800505e:    4770        pG      BX       lr
    $d
        0x08005060:    20000038    8..     DCD    536870968
    $t
    i.vPortValidateInterruptPriority
    vPortValidateInterruptPriority
        0x08005064:    b510        ..      PUSH     {r4,lr}
        0x08005066:    f7fbf8e3    ....    BL       vPortGetIPSR ; 0x8000230
        0x0800506a:    4911        .I      LDR      r1,[pc,#68] ; [0x80050b0] = 0x200000a8
        0x0800506c:    2810        .(      CMP      r0,#0x10
        0x0800506e:    d30e        ..      BCC      0x800508e ; vPortValidateInterruptPriority + 42
        0x08005070:    f10020e0    ...     ADD      r0,r0,#0xe000e000
        0x08005074:    f89003f0    ....    LDRB     r0,[r0,#0x3f0]
        0x08005078:    780a        .x      LDRB     r2,[r1,#0]
        0x0800507a:    4290        .B      CMP      r0,r2
        0x0800507c:    d207        ..      BCS      0x800508e ; vPortValidateInterruptPriority + 42
        0x0800507e:    2050        P       MOVS     r0,#0x50
        0x08005080:    f3808811    ....    MSR      BASEPRI,r0
        0x08005084:    f3bf8f4f    ..O.    DSB      
        0x08005088:    f3bf8f6f    ..o.    ISB      
        0x0800508c:    e7fe        ..      B        0x800508c ; vPortValidateInterruptPriority + 40
        0x0800508e:    4809        .H      LDR      r0,[pc,#36] ; [0x80050b4] = 0xe000ed0c
        0x08005090:    6800        .h      LDR      r0,[r0,#0]
        0x08005092:    6889        .h      LDR      r1,[r1,#8]
        0x08005094:    f40060e0    ...`    AND      r0,r0,#0x700
        0x08005098:    4288        .B      CMP      r0,r1
        0x0800509a:    d907        ..      BLS      0x80050ac ; vPortValidateInterruptPriority + 72
        0x0800509c:    2050        P       MOVS     r0,#0x50
        0x0800509e:    f3808811    ....    MSR      BASEPRI,r0
        0x080050a2:    f3bf8f4f    ..O.    DSB      
        0x080050a6:    f3bf8f6f    ..o.    ISB      
        0x080050aa:    e7fe        ..      B        0x80050aa ; vPortValidateInterruptPriority + 70
        0x080050ac:    bd10        ..      POP      {r4,pc}
    $d
        0x080050ae:    0000        ..      DCW    0
        0x080050b0:    200000a8    ...     DCD    536871080
        0x080050b4:    e000ed0c    ....    DCD    3758157068
    $t
    i.vQueueAddToRegistry
    vQueueAddToRegistry
        0x080050b8:    b510        ..      PUSH     {r4,lr}
        0x080050ba:    4b08        .K      LDR      r3,[pc,#32] ; [0x80050dc] = 0x20000658
        0x080050bc:    2200        ."      MOVS     r2,#0
        0x080050be:    bf00        ..      NOP      
        0x080050c0:    f8534032    S.2@    LDR      r4,[r3,r2,LSL #3]
        0x080050c4:    b11c        ..      CBZ      r4,0x80050ce ; vQueueAddToRegistry + 22
        0x080050c6:    1c52        R.      ADDS     r2,r2,#1
        0x080050c8:    2a08        .*      CMP      r2,#8
        0x080050ca:    d3f9        ..      BCC      0x80050c0 ; vQueueAddToRegistry + 8
        0x080050cc:    bd10        ..      POP      {r4,pc}
        0x080050ce:    f8431032    C.2.    STR      r1,[r3,r2,LSL #3]
        0x080050d2:    eb0301c2    ....    ADD      r1,r3,r2,LSL #3
        0x080050d6:    6048        H`      STR      r0,[r1,#4]
        0x080050d8:    bd10        ..      POP      {r4,pc}
    $d
        0x080050da:    0000        ..      DCW    0
        0x080050dc:    20000658    X..     DCD    536872536
    $t
    i.vQueueWaitForMessageRestricted
    vQueueWaitForMessageRestricted
        0x080050e0:    b570        p.      PUSH     {r4-r6,lr}
        0x080050e2:    4615        .F      MOV      r5,r2
        0x080050e4:    460e        .F      MOV      r6,r1
        0x080050e6:    4604        .F      MOV      r4,r0
        0x080050e8:    f7ffff48    ..H.    BL       vPortEnterCritical ; 0x8004f7c
        0x080050ec:    f9941044    ..D.    LDRSB    r1,[r4,#0x44]
        0x080050f0:    2000        .       MOVS     r0,#0
        0x080050f2:    1c49        I.      ADDS     r1,r1,#1
        0x080050f4:    d101        ..      BNE      0x80050fa ; vQueueWaitForMessageRestricted + 26
        0x080050f6:    f8840044    ..D.    STRB     r0,[r4,#0x44]
        0x080050fa:    f9941045    ..E.    LDRSB    r1,[r4,#0x45]
        0x080050fe:    1c49        I.      ADDS     r1,r1,#1
        0x08005100:    d101        ..      BNE      0x8005106 ; vQueueWaitForMessageRestricted + 38
        0x08005102:    f8840045    ..E.    STRB     r0,[r4,#0x45]
        0x08005106:    f7ffff59    ..Y.    BL       vPortExitCritical ; 0x8004fbc
        0x0800510a:    6ba0        .k      LDR      r0,[r4,#0x38]
        0x0800510c:    b928        (.      CBNZ     r0,0x800511a ; vQueueWaitForMessageRestricted + 58
        0x0800510e:    462a        *F      MOV      r2,r5
        0x08005110:    4631        1F      MOV      r1,r6
        0x08005112:    f1040024    ..$.    ADD      r0,r4,#0x24
        0x08005116:    f000f899    ....    BL       vTaskPlaceOnEventListRestricted ; 0x800524c
        0x0800511a:    4620         F      MOV      r0,r4
        0x0800511c:    e8bd4070    ..p@    POP      {r4-r6,lr}
        0x08005120:    f7ffbcf4    ....    B.W      prvUnlockQueue ; 0x8004b0c
    i.vTaskDelay
    vTaskDelay
        0x08005124:    b510        ..      PUSH     {r4,lr}
        0x08005126:    0002        ..      MOVS     r2,r0
        0x08005128:    d014        ..      BEQ      0x8005154 ; vTaskDelay + 48
        0x0800512a:    480f        .H      LDR      r0,[pc,#60] ; [0x8005168] = 0x2000003c
        0x0800512c:    6b80        .k      LDR      r0,[r0,#0x38]
        0x0800512e:    b138        8.      CBZ      r0,0x8005140 ; vTaskDelay + 28
        0x08005130:    2050        P       MOVS     r0,#0x50
        0x08005132:    f3808811    ....    MSR      BASEPRI,r0
        0x08005136:    f3bf8f4f    ..O.    DSB      
        0x0800513a:    f3bf8f6f    ..o.    ISB      
        0x0800513e:    e7fe        ..      B        0x800513e ; vTaskDelay + 26
        0x08005140:    f000f9b8    ....    BL       vTaskSuspendAll ; 0x80054b4
        0x08005144:    2100        .!      MOVS     r1,#0
        0x08005146:    4610        .F      MOV      r0,r2
        0x08005148:    f7fff94e    ..N.    BL       prvAddCurrentTaskToDelayedList ; 0x80043e8
        0x0800514c:    f000ff4e    ..N.    BL       xTaskResumeAll ; 0x8005fec
        0x08005150:    2800        .(      CMP      r0,#0
        0x08005152:    d107        ..      BNE      0x8005164 ; vTaskDelay + 64
        0x08005154:    4905        .I      LDR      r1,[pc,#20] ; [0x800516c] = 0xe000ed04
        0x08005156:    f04f5080    O..P    MOV      r0,#0x10000000
        0x0800515a:    6008        .`      STR      r0,[r1,#0]
        0x0800515c:    f3bf8f4f    ..O.    DSB      
        0x08005160:    f3bf8f6f    ..o.    ISB      
        0x08005164:    bd10        ..      POP      {r4,pc}
    $d
        0x08005166:    0000        ..      DCW    0
        0x08005168:    2000003c    <..     DCD    536870972
        0x0800516c:    e000ed04    ....    DCD    3758157060
    $t
    i.vTaskDelete
    vTaskDelete
        0x08005170:    b570        p.      PUSH     {r4-r6,lr}
        0x08005172:    4605        .F      MOV      r5,r0
        0x08005174:    f7ffff02    ....    BL       vPortEnterCritical ; 0x8004f7c
        0x08005178:    4c1e        .L      LDR      r4,[pc,#120] ; [0x80051f4] = 0x2000003c
        0x0800517a:    b905        ..      CBNZ     r5,0x800517e ; vTaskDelete + 14
        0x0800517c:    6825        %h      LDR      r5,[r4,#0]
        0x0800517e:    1d28        (.      ADDS     r0,r5,#4
        0x08005180:    f7fffe9e    ....    BL       uxListRemove ; 0x8004ec0
        0x08005184:    6aa8        .j      LDR      r0,[r5,#0x28]
        0x08005186:    b118        ..      CBZ      r0,0x8005190 ; vTaskDelete + 32
        0x08005188:    f1050018    ....    ADD      r0,r5,#0x18
        0x0800518c:    f7fffe98    ....    BL       uxListRemove ; 0x8004ec0
        0x08005190:    6ae0        .j      LDR      r0,[r4,#0x2c]
        0x08005192:    1c40        @.      ADDS     r0,r0,#1
        0x08005194:    62e0        .b      STR      r0,[r4,#0x2c]
        0x08005196:    6820         h      LDR      r0,[r4,#0]
        0x08005198:    4285        .B      CMP      r5,r0
        0x0800519a:    d107        ..      BNE      0x80051ac ; vTaskDelete + 60
        0x0800519c:    1d29        ).      ADDS     r1,r5,#4
        0x0800519e:    4816        .H      LDR      r0,[pc,#88] ; [0x80051f8] = 0x20000b34
        0x080051a0:    f7fffee0    ....    BL       vListInsertEnd ; 0x8004f64
        0x080051a4:    68e0        .h      LDR      r0,[r4,#0xc]
        0x080051a6:    1c40        @.      ADDS     r0,r0,#1
        0x080051a8:    60e0        .`      STR      r0,[r4,#0xc]
        0x080051aa:    e007        ..      B        0x80051bc ; vTaskDelete + 76
        0x080051ac:    6920         i      LDR      r0,[r4,#0x10]
        0x080051ae:    1e40        @.      SUBS     r0,r0,#1
        0x080051b0:    6120         a      STR      r0,[r4,#0x10]
        0x080051b2:    4628        (F      MOV      r0,r5
        0x080051b4:    f7fffa23    ..#.    BL       prvDeleteTCB ; 0x80045fe
        0x080051b8:    f7fffc0e    ....    BL       prvResetNextTaskUnblockTime ; 0x80049d8
        0x080051bc:    f7fffefe    ....    BL       vPortExitCritical ; 0x8004fbc
        0x080051c0:    69e0        .i      LDR      r0,[r4,#0x1c]
        0x080051c2:    2800        .(      CMP      r0,#0
        0x080051c4:    d014        ..      BEQ      0x80051f0 ; vTaskDelete + 128
        0x080051c6:    6820         h      LDR      r0,[r4,#0]
        0x080051c8:    4285        .B      CMP      r5,r0
        0x080051ca:    d111        ..      BNE      0x80051f0 ; vTaskDelete + 128
        0x080051cc:    6ba0        .k      LDR      r0,[r4,#0x38]
        0x080051ce:    b138        8.      CBZ      r0,0x80051e0 ; vTaskDelete + 112
        0x080051d0:    2050        P       MOVS     r0,#0x50
        0x080051d2:    f3808811    ....    MSR      BASEPRI,r0
        0x080051d6:    f3bf8f4f    ..O.    DSB      
        0x080051da:    f3bf8f6f    ..o.    ISB      
        0x080051de:    e7fe        ..      B        0x80051de ; vTaskDelete + 110
        0x080051e0:    4906        .I      LDR      r1,[pc,#24] ; [0x80051fc] = 0xe000ed04
        0x080051e2:    f04f5080    O..P    MOV      r0,#0x10000000
        0x080051e6:    6008        .`      STR      r0,[r1,#0]
        0x080051e8:    f3bf8f4f    ..O.    DSB      
        0x080051ec:    f3bf8f6f    ..o.    ISB      
        0x080051f0:    bd70        p.      POP      {r4-r6,pc}
    $d
        0x080051f2:    0000        ..      DCW    0
        0x080051f4:    2000003c    <..     DCD    536870972
        0x080051f8:    20000b34    4..     DCD    536873780
        0x080051fc:    e000ed04    ....    DCD    3758157060
    $t
    i.vTaskInternalSetTimeOutState
    vTaskInternalSetTimeOutState
        0x08005200:    4902        .I      LDR      r1,[pc,#8] ; [0x800520c] = 0x2000003c
        0x08005202:    6a8a        .j      LDR      r2,[r1,#0x28]
        0x08005204:    6002        .`      STR      r2,[r0,#0]
        0x08005206:    6949        Ii      LDR      r1,[r1,#0x14]
        0x08005208:    6041        A`      STR      r1,[r0,#4]
        0x0800520a:    4770        pG      BX       lr
    $d
        0x0800520c:    2000003c    <..     DCD    536870972
    $t
    i.vTaskMissedYield
    vTaskMissedYield
        0x08005210:    4901        .I      LDR      r1,[pc,#4] ; [0x8005218] = 0x2000003c
        0x08005212:    2001        .       MOVS     r0,#1
        0x08005214:    6248        Hb      STR      r0,[r1,#0x24]
        0x08005216:    4770        pG      BX       lr
    $d
        0x08005218:    2000003c    <..     DCD    536870972
    $t
    i.vTaskPlaceOnEventList
    vTaskPlaceOnEventList
        0x0800521c:    b510        ..      PUSH     {r4,lr}
        0x0800521e:    460c        .F      MOV      r4,r1
        0x08005220:    b150        P.      CBZ      r0,0x8005238 ; vTaskPlaceOnEventList + 28
        0x08005222:    4909        .I      LDR      r1,[pc,#36] ; [0x8005248] = 0x2000003c
        0x08005224:    6809        .h      LDR      r1,[r1,#0]
        0x08005226:    3118        .1      ADDS     r1,r1,#0x18
        0x08005228:    f7fffe84    ....    BL       vListInsert ; 0x8004f34
        0x0800522c:    4620         F      MOV      r0,r4
        0x0800522e:    e8bd4010    ...@    POP      {r4,lr}
        0x08005232:    2101        .!      MOVS     r1,#1
        0x08005234:    f7ffb8d8    ....    B        prvAddCurrentTaskToDelayedList ; 0x80043e8
        0x08005238:    2050        P       MOVS     r0,#0x50
        0x0800523a:    f3808811    ....    MSR      BASEPRI,r0
        0x0800523e:    f3bf8f4f    ..O.    DSB      
        0x08005242:    f3bf8f6f    ..o.    ISB      
        0x08005246:    e7fe        ..      B        0x8005246 ; vTaskPlaceOnEventList + 42
    $d
        0x08005248:    2000003c    <..     DCD    536870972
    $t
    i.vTaskPlaceOnEventListRestricted
    vTaskPlaceOnEventListRestricted
        0x0800524c:    b570        p.      PUSH     {r4-r6,lr}
        0x0800524e:    4614        .F      MOV      r4,r2
        0x08005250:    460d        .F      MOV      r5,r1
        0x08005252:    b168        h.      CBZ      r0,0x8005270 ; vTaskPlaceOnEventListRestricted + 36
        0x08005254:    490a        .I      LDR      r1,[pc,#40] ; [0x8005280] = 0x2000003c
        0x08005256:    6809        .h      LDR      r1,[r1,#0]
        0x08005258:    3118        .1      ADDS     r1,r1,#0x18
        0x0800525a:    f7fffe83    ....    BL       vListInsertEnd ; 0x8004f64
        0x0800525e:    b10c        ..      CBZ      r4,0x8005264 ; vTaskPlaceOnEventListRestricted + 24
        0x08005260:    f04f35ff    O..5    MOV      r5,#0xffffffff
        0x08005264:    4621        !F      MOV      r1,r4
        0x08005266:    4628        (F      MOV      r0,r5
        0x08005268:    e8bd4070    ..p@    POP      {r4-r6,lr}
        0x0800526c:    f7ffb8bc    ....    B        prvAddCurrentTaskToDelayedList ; 0x80043e8
        0x08005270:    2050        P       MOVS     r0,#0x50
        0x08005272:    f3808811    ....    MSR      BASEPRI,r0
        0x08005276:    f3bf8f4f    ..O.    DSB      
        0x0800527a:    f3bf8f6f    ..o.    ISB      
        0x0800527e:    e7fe        ..      B        0x800527e ; vTaskPlaceOnEventListRestricted + 50
    $d
        0x08005280:    2000003c    <..     DCD    536870972
    $t
    i.vTaskPriorityDisinheritAfterTimeout
    vTaskPriorityDisinheritAfterTimeout
        0x08005284:    b570        p.      PUSH     {r4-r6,lr}
        0x08005286:    0004        ..      MOVS     r4,r0
        0x08005288:    d03e        >.      BEQ      0x8005308 ; vTaskPriorityDisinheritAfterTimeout + 132
        0x0800528a:    6d22        "m      LDR      r2,[r4,#0x50]
        0x0800528c:    b1a2        ..      CBZ      r2,0x80052b8 ; vTaskPriorityDisinheritAfterTimeout + 52
        0x0800528e:    6ce0        .l      LDR      r0,[r4,#0x4c]
        0x08005290:    4288        .B      CMP      r0,r1
        0x08005292:    d300        ..      BCC      0x8005296 ; vTaskPriorityDisinheritAfterTimeout + 18
        0x08005294:    4601        .F      MOV      r1,r0
        0x08005296:    6ae0        .j      LDR      r0,[r4,#0x2c]
        0x08005298:    4288        .B      CMP      r0,r1
        0x0800529a:    d035        5.      BEQ      0x8005308 ; vTaskPriorityDisinheritAfterTimeout + 132
        0x0800529c:    2a01        .*      CMP      r2,#1
        0x0800529e:    d133        3.      BNE      0x8005308 ; vTaskPriorityDisinheritAfterTimeout + 132
        0x080052a0:    4d1a        .M      LDR      r5,[pc,#104] ; [0x800530c] = 0x2000003c
        0x080052a2:    682a        *h      LDR      r2,[r5,#0]
        0x080052a4:    4294        .B      CMP      r4,r2
        0x080052a6:    d10f        ..      BNE      0x80052c8 ; vTaskPriorityDisinheritAfterTimeout + 68
        0x080052a8:    2050        P       MOVS     r0,#0x50
        0x080052aa:    f3808811    ....    MSR      BASEPRI,r0
        0x080052ae:    f3bf8f4f    ..O.    DSB      
        0x080052b2:    f3bf8f6f    ..o.    ISB      
        0x080052b6:    e7fe        ..      B        0x80052b6 ; vTaskPriorityDisinheritAfterTimeout + 50
        0x080052b8:    2050        P       MOVS     r0,#0x50
        0x080052ba:    f3808811    ....    MSR      BASEPRI,r0
        0x080052be:    f3bf8f4f    ..O.    DSB      
        0x080052c2:    f3bf8f6f    ..o.    ISB      
        0x080052c6:    e7fe        ..      B        0x80052c6 ; vTaskPriorityDisinheritAfterTimeout + 66
        0x080052c8:    62e1        .b      STR      r1,[r4,#0x2c]
        0x080052ca:    69a2        .i      LDR      r2,[r4,#0x18]
        0x080052cc:    2a00        .*      CMP      r2,#0
        0x080052ce:    db02        ..      BLT      0x80052d6 ; vTaskPriorityDisinheritAfterTimeout + 82
        0x080052d0:    f1c10138    ..8.    RSB      r1,r1,#0x38
        0x080052d4:    61a1        .a      STR      r1,[r4,#0x18]
        0x080052d6:    4e0e        .N      LDR      r6,[pc,#56] ; [0x8005310] = 0x20000698
        0x080052d8:    eb000080    ....    ADD      r0,r0,r0,LSL #2
        0x080052dc:    6961        ai      LDR      r1,[r4,#0x14]
        0x080052de:    eb060080    ....    ADD      r0,r6,r0,LSL #2
        0x080052e2:    4281        .B      CMP      r1,r0
        0x080052e4:    d110        ..      BNE      0x8005308 ; vTaskPriorityDisinheritAfterTimeout + 132
        0x080052e6:    1d20         .      ADDS     r0,r4,#4
        0x080052e8:    f7fffdea    ....    BL       uxListRemove ; 0x8004ec0
        0x080052ec:    6ae0        .j      LDR      r0,[r4,#0x2c]
        0x080052ee:    69a9        .i      LDR      r1,[r5,#0x18]
        0x080052f0:    4288        .B      CMP      r0,r1
        0x080052f2:    d900        ..      BLS      0x80052f6 ; vTaskPriorityDisinheritAfterTimeout + 114
        0x080052f4:    61a8        .a      STR      r0,[r5,#0x18]
        0x080052f6:    eb000080    ....    ADD      r0,r0,r0,LSL #2
        0x080052fa:    eb060080    ....    ADD      r0,r6,r0,LSL #2
        0x080052fe:    1d21        !.      ADDS     r1,r4,#4
        0x08005300:    e8bd4070    ..p@    POP      {r4-r6,lr}
        0x08005304:    f7ffbe2e    ....    B.W      vListInsertEnd ; 0x8004f64
        0x08005308:    bd70        p.      POP      {r4-r6,pc}
    $d
        0x0800530a:    0000        ..      DCW    0
        0x0800530c:    2000003c    <..     DCD    536870972
        0x08005310:    20000698    ...     DCD    536872600
    $t
    i.vTaskResume
    vTaskResume
        0x08005314:    b570        p.      PUSH     {r4-r6,lr}
        0x08005316:    0004        ..      MOVS     r4,r0
        0x08005318:    d02a        *.      BEQ      0x8005370 ; vTaskResume + 92
        0x0800531a:    4d1a        .M      LDR      r5,[pc,#104] ; [0x8005384] = 0x2000003c
        0x0800531c:    6828        (h      LDR      r0,[r5,#0]
        0x0800531e:    4284        .B      CMP      r4,r0
        0x08005320:    d02e        ..      BEQ      0x8005380 ; vTaskResume + 108
        0x08005322:    f7fffe2b    ..+.    BL       vPortEnterCritical ; 0x8004f7c
        0x08005326:    4620         F      MOV      r0,r4
        0x08005328:    f7fffbc4    ....    BL       prvTaskIsTaskSuspended ; 0x8004ab4
        0x0800532c:    b1e0        ..      CBZ      r0,0x8005368 ; vTaskResume + 84
        0x0800532e:    1d20         .      ADDS     r0,r4,#4
        0x08005330:    f7fffdc6    ....    BL       uxListRemove ; 0x8004ec0
        0x08005334:    6ae0        .j      LDR      r0,[r4,#0x2c]
        0x08005336:    69a9        .i      LDR      r1,[r5,#0x18]
        0x08005338:    4288        .B      CMP      r0,r1
        0x0800533a:    d900        ..      BLS      0x800533e ; vTaskResume + 42
        0x0800533c:    61a8        .a      STR      r0,[r5,#0x18]
        0x0800533e:    4912        .I      LDR      r1,[pc,#72] ; [0x8005388] = 0x20000698
        0x08005340:    eb000080    ....    ADD      r0,r0,r0,LSL #2
        0x08005344:    eb010080    ....    ADD      r0,r1,r0,LSL #2
        0x08005348:    1d21        !.      ADDS     r1,r4,#4
        0x0800534a:    f7fffe0b    ....    BL       vListInsertEnd ; 0x8004f64
        0x0800534e:    6ae0        .j      LDR      r0,[r4,#0x2c]
        0x08005350:    6829        )h      LDR      r1,[r5,#0]
        0x08005352:    6ac9        .j      LDR      r1,[r1,#0x2c]
        0x08005354:    4288        .B      CMP      r0,r1
        0x08005356:    d307        ..      BCC      0x8005368 ; vTaskResume + 84
        0x08005358:    490c        .I      LDR      r1,[pc,#48] ; [0x800538c] = 0xe000ed04
        0x0800535a:    f04f5080    O..P    MOV      r0,#0x10000000
        0x0800535e:    6008        .`      STR      r0,[r1,#0]
        0x08005360:    f3bf8f4f    ..O.    DSB      
        0x08005364:    f3bf8f6f    ..o.    ISB      
        0x08005368:    e8bd4070    ..p@    POP      {r4-r6,lr}
        0x0800536c:    f7ffbe26    ..&.    B.W      vPortExitCritical ; 0x8004fbc
        0x08005370:    2050        P       MOVS     r0,#0x50
        0x08005372:    f3808811    ....    MSR      BASEPRI,r0
        0x08005376:    f3bf8f4f    ..O.    DSB      
        0x0800537a:    f3bf8f6f    ..o.    ISB      
        0x0800537e:    e7fe        ..      B        0x800537e ; vTaskResume + 106
        0x08005380:    bd70        p.      POP      {r4-r6,pc}
    $d
        0x08005382:    0000        ..      DCW    0
        0x08005384:    2000003c    <..     DCD    536870972
        0x08005388:    20000698    ...     DCD    536872600
        0x0800538c:    e000ed04    ....    DCD    3758157060
    $t
    i.vTaskStartScheduler
    vTaskStartScheduler
        0x08005390:    b530        0.      PUSH     {r4,r5,lr}
        0x08005392:    b087        ..      SUB      sp,sp,#0x1c
        0x08005394:    2400        .$      MOVS     r4,#0
        0x08005396:    9403        ..      STR      r4,[sp,#0xc]
        0x08005398:    aa05        ..      ADD      r2,sp,#0x14
        0x0800539a:    a904        ..      ADD      r1,sp,#0x10
        0x0800539c:    a803        ..      ADD      r0,sp,#0xc
        0x0800539e:    9404        ..      STR      r4,[sp,#0x10]
        0x080053a0:    f7fffda2    ....    BL       vApplicationGetIdleTaskMemory ; 0x8004ee8
        0x080053a4:    e9dd0103    ....    LDRD     r0,r1,[sp,#0xc]
        0x080053a8:    9400        ..      STR      r4,[sp,#0]
        0x080053aa:    e9cd1001    ....    STRD     r1,r0,[sp,#4]
        0x080053ae:    2300        .#      MOVS     r3,#0
        0x080053b0:    a115        ..      ADR      r1,{pc}+0x58 ; 0x8005408
        0x080053b2:    4817        .H      LDR      r0,[pc,#92] ; [0x8005410] = 0x8004681
        0x080053b4:    9a05        ..      LDR      r2,[sp,#0x14]
        0x080053b6:    f000fcc2    ....    BL       xTaskCreateStatic ; 0x8005d3e
        0x080053ba:    4d16        .M      LDR      r5,[pc,#88] ; [0x8005414] = 0x2000003c
        0x080053bc:    2800        .(      CMP      r0,#0
        0x080053be:    6368        hc      STR      r0,[r5,#0x34]
        0x080053c0:    d01f        ..      BEQ      0x8005402 ; vTaskStartScheduler + 114
        0x080053c2:    f000fe75    ..u.    BL       xTimerCreateTimerTask ; 0x80060b0
        0x080053c6:    2801        .(      CMP      r0,#1
        0x080053c8:    d009        ..      BEQ      0x80053de ; vTaskStartScheduler + 78
        0x080053ca:    1c40        @.      ADDS     r0,r0,#1
        0x080053cc:    d119        ..      BNE      0x8005402 ; vTaskStartScheduler + 114
        0x080053ce:    2050        P       MOVS     r0,#0x50
        0x080053d0:    f3808811    ....    MSR      BASEPRI,r0
        0x080053d4:    f3bf8f4f    ..O.    DSB      
        0x080053d8:    f3bf8f6f    ..o.    ISB      
        0x080053dc:    e7fe        ..      B        0x80053dc ; vTaskStartScheduler + 76
        0x080053de:    2050        P       MOVS     r0,#0x50
        0x080053e0:    f3808811    ....    MSR      BASEPRI,r0
        0x080053e4:    f3bf8f4f    ..O.    DSB      
        0x080053e8:    f3bf8f6f    ..o.    ISB      
        0x080053ec:    f04f30ff    O..0    MOV      r0,#0xffffffff
        0x080053f0:    6328        (c      STR      r0,[r5,#0x30]
        0x080053f2:    2001        .       MOVS     r0,#1
        0x080053f4:    61e8        .a      STR      r0,[r5,#0x1c]
        0x080053f6:    616c        la      STR      r4,[r5,#0x14]
        0x080053f8:    b007        ..      ADD      sp,sp,#0x1c
        0x080053fa:    e8bd4030    ..0@    POP      {r4,r5,lr}
        0x080053fe:    f000b8d7    ....    B.W      xPortStartScheduler ; 0x80055b0
        0x08005402:    b007        ..      ADD      sp,sp,#0x1c
        0x08005404:    bd30        0.      POP      {r4,r5,pc}
    $d
        0x08005406:    0000        ..      DCW    0
        0x08005408:    454c4449    IDLE    DCD    1162626121
        0x0800540c:    00000000    ....    DCD    0
        0x08005410:    08004681    .F..    DCD    134235777
        0x08005414:    2000003c    <..     DCD    536870972
    $t
    i.vTaskSuspend
    vTaskSuspend
        0x08005418:    b570        p.      PUSH     {r4-r6,lr}
        0x0800541a:    4604        .F      MOV      r4,r0
        0x0800541c:    f7fffdae    ....    BL       vPortEnterCritical ; 0x8004f7c
        0x08005420:    4d21        !M      LDR      r5,[pc,#132] ; [0x80054a8] = 0x2000003c
        0x08005422:    b904        ..      CBNZ     r4,0x8005426 ; vTaskSuspend + 14
        0x08005424:    682c        ,h      LDR      r4,[r5,#0]
        0x08005426:    1d20         .      ADDS     r0,r4,#4
        0x08005428:    f7fffd4a    ..J.    BL       uxListRemove ; 0x8004ec0
        0x0800542c:    6aa0        .j      LDR      r0,[r4,#0x28]
        0x0800542e:    b118        ..      CBZ      r0,0x8005438 ; vTaskSuspend + 32
        0x08005430:    f1040018    ....    ADD      r0,r4,#0x18
        0x08005434:    f7fffd44    ..D.    BL       uxListRemove ; 0x8004ec0
        0x08005438:    1d21        !.      ADDS     r1,r4,#4
        0x0800543a:    481c        .H      LDR      r0,[pc,#112] ; [0x80054ac] = 0x20000b48
        0x0800543c:    f7fffd92    ....    BL       vListInsertEnd ; 0x8004f64
        0x08005440:    f8940058    ..X.    LDRB     r0,[r4,#0x58]
        0x08005444:    2600        .&      MOVS     r6,#0
        0x08005446:    2801        .(      CMP      r0,#1
        0x08005448:    d101        ..      BNE      0x800544e ; vTaskSuspend + 54
        0x0800544a:    f8846058    ..X`    STRB     r6,[r4,#0x58]
        0x0800544e:    f7fffdb5    ....    BL       vPortExitCritical ; 0x8004fbc
        0x08005452:    69e8        .i      LDR      r0,[r5,#0x1c]
        0x08005454:    b128        (.      CBZ      r0,0x8005462 ; vTaskSuspend + 74
        0x08005456:    f7fffd91    ....    BL       vPortEnterCritical ; 0x8004f7c
        0x0800545a:    f7fffabd    ....    BL       prvResetNextTaskUnblockTime ; 0x80049d8
        0x0800545e:    f7fffdad    ....    BL       vPortExitCritical ; 0x8004fbc
        0x08005462:    6828        (h      LDR      r0,[r5,#0]
        0x08005464:    4284        .B      CMP      r4,r0
        0x08005466:    d113        ..      BNE      0x8005490 ; vTaskSuspend + 120
        0x08005468:    69e8        .i      LDR      r0,[r5,#0x1c]
        0x0800546a:    b190        ..      CBZ      r0,0x8005492 ; vTaskSuspend + 122
        0x0800546c:    6ba8        .k      LDR      r0,[r5,#0x38]
        0x0800546e:    b138        8.      CBZ      r0,0x8005480 ; vTaskSuspend + 104
        0x08005470:    2050        P       MOVS     r0,#0x50
        0x08005472:    f3808811    ....    MSR      BASEPRI,r0
        0x08005476:    f3bf8f4f    ..O.    DSB      
        0x0800547a:    f3bf8f6f    ..o.    ISB      
        0x0800547e:    e7fe        ..      B        0x800547e ; vTaskSuspend + 102
        0x08005480:    490b        .I      LDR      r1,[pc,#44] ; [0x80054b0] = 0xe000ed04
        0x08005482:    f04f5080    O..P    MOV      r0,#0x10000000
        0x08005486:    6008        .`      STR      r0,[r1,#0]
        0x08005488:    f3bf8f4f    ..O.    DSB      
        0x0800548c:    f3bf8f6f    ..o.    ISB      
        0x08005490:    bd70        p.      POP      {r4-r6,pc}
        0x08005492:    4806        .H      LDR      r0,[pc,#24] ; [0x80054ac] = 0x20000b48
        0x08005494:    6800        .h      LDR      r0,[r0,#0]
        0x08005496:    6929        )i      LDR      r1,[r5,#0x10]
        0x08005498:    4288        .B      CMP      r0,r1
        0x0800549a:    d101        ..      BNE      0x80054a0 ; vTaskSuspend + 136
        0x0800549c:    602e        .`      STR      r6,[r5,#0]
        0x0800549e:    bd70        p.      POP      {r4-r6,pc}
        0x080054a0:    e8bd4070    ..p@    POP      {r4-r6,lr}
        0x080054a4:    f000b80e    ....    B.W      vTaskSwitchContext ; 0x80054c4
    $d
        0x080054a8:    2000003c    <..     DCD    536870972
        0x080054ac:    20000b48    H..     DCD    536873800
        0x080054b0:    e000ed04    ....    DCD    3758157060
    $t
    i.vTaskSuspendAll
    vTaskSuspendAll
        0x080054b4:    4802        .H      LDR      r0,[pc,#8] ; [0x80054c0] = 0x2000003c
        0x080054b6:    6b81        .k      LDR      r1,[r0,#0x38]
        0x080054b8:    1c49        I.      ADDS     r1,r1,#1
        0x080054ba:    6381        .c      STR      r1,[r0,#0x38]
        0x080054bc:    4770        pG      BX       lr
    $d
        0x080054be:    0000        ..      DCW    0
        0x080054c0:    2000003c    <..     DCD    536870972
    $t
    i.vTaskSwitchContext
    vTaskSwitchContext
        0x080054c4:    4816        .H      LDR      r0,[pc,#88] ; [0x8005520] = 0x2000003c
        0x080054c6:    b510        ..      PUSH     {r4,lr}
        0x080054c8:    6b81        .k      LDR      r1,[r0,#0x38]
        0x080054ca:    b111        ..      CBZ      r1,0x80054d2 ; vTaskSwitchContext + 14
        0x080054cc:    2101        .!      MOVS     r1,#1
        0x080054ce:    6241        Ab      STR      r1,[r0,#0x24]
        0x080054d0:    bd10        ..      POP      {r4,pc}
        0x080054d2:    2100        .!      MOVS     r1,#0
        0x080054d4:    6241        Ab      STR      r1,[r0,#0x24]
        0x080054d6:    6981        .i      LDR      r1,[r0,#0x18]
        0x080054d8:    4a12        .J      LDR      r2,[pc,#72] ; [0x8005524] = 0x20000698
        0x080054da:    e001        ..      B        0x80054e0 ; vTaskSwitchContext + 28
        0x080054dc:    b1b9        ..      CBZ      r1,0x800550e ; vTaskSwitchContext + 74
        0x080054de:    1e49        I.      SUBS     r1,r1,#1
        0x080054e0:    eb010381    ....    ADD      r3,r1,r1,LSL #2
        0x080054e4:    f8523023    R.#0    LDR      r3,[r2,r3,LSL #2]
        0x080054e8:    2b00        .+      CMP      r3,#0
        0x080054ea:    d0f7        ..      BEQ      0x80054dc ; vTaskSwitchContext + 24
        0x080054ec:    eb010381    ....    ADD      r3,r1,r1,LSL #2
        0x080054f0:    eb020283    ....    ADD      r2,r2,r3,LSL #2
        0x080054f4:    f1020408    ....    ADD      r4,r2,#8
        0x080054f8:    6853        Sh      LDR      r3,[r2,#4]
        0x080054fa:    685b        [h      LDR      r3,[r3,#4]
        0x080054fc:    6053        S`      STR      r3,[r2,#4]
        0x080054fe:    42a3        .B      CMP      r3,r4
        0x08005500:    d101        ..      BNE      0x8005506 ; vTaskSwitchContext + 66
        0x08005502:    685b        [h      LDR      r3,[r3,#4]
        0x08005504:    6053        S`      STR      r3,[r2,#4]
        0x08005506:    68da        .h      LDR      r2,[r3,#0xc]
        0x08005508:    6002        .`      STR      r2,[r0,#0]
        0x0800550a:    6181        .a      STR      r1,[r0,#0x18]
        0x0800550c:    bd10        ..      POP      {r4,pc}
        0x0800550e:    2050        P       MOVS     r0,#0x50
        0x08005510:    f3808811    ....    MSR      BASEPRI,r0
        0x08005514:    f3bf8f4f    ..O.    DSB      
        0x08005518:    f3bf8f6f    ..o.    ISB      
        0x0800551c:    e7fe        ..      B        0x800551c ; vTaskSwitchContext + 88
    $d
        0x0800551e:    0000        ..      DCW    0
        0x08005520:    2000003c    <..     DCD    536870972
        0x08005524:    20000698    ...     DCD    536872600
    $t
    i.writeCString
    writeCString
        0x08005528:    b570        p.      PUSH     {r4-r6,lr}
        0x0800552a:    4604        .F      MOV      r4,r0
        0x0800552c:    460e        .F      MOV      r6,r1
        0x0800552e:    4608        .F      MOV      r0,r1
        0x08005530:    f7fbf864    ..d.    BL       strlen ; 0x80005fc
        0x08005534:    4605        .F      MOV      r5,r0
        0x08005536:    4601        .F      MOV      r1,r0
        0x08005538:    4620         F      MOV      r0,r4
        0x0800553a:    f000f80f    ....    BL       writeInt ; 0x800555c
        0x0800553e:    462a        *F      MOV      r2,r5
        0x08005540:    4631        1F      MOV      r1,r6
        0x08005542:    6820         h      LDR      r0,[r4,#0]
        0x08005544:    f7fbf8d0    ....    BL       __aeabi_memcpy ; 0x80006e8
        0x08005548:    6820         h      LDR      r0,[r4,#0]
        0x0800554a:    4428        (D      ADD      r0,r0,r5
        0x0800554c:    6020         `      STR      r0,[r4,#0]
        0x0800554e:    bd70        p.      POP      {r4-r6,pc}
    i.writeChar
    writeChar
        0x08005550:    6802        .h      LDR      r2,[r0,#0]
        0x08005552:    7011        .p      STRB     r1,[r2,#0]
        0x08005554:    6801        .h      LDR      r1,[r0,#0]
        0x08005556:    1c49        I.      ADDS     r1,r1,#1
        0x08005558:    6001        .`      STR      r1,[r0,#0]
        0x0800555a:    4770        pG      BX       lr
    i.writeInt
    writeInt
        0x0800555c:    b510        ..      PUSH     {r4,lr}
        0x0800555e:    17ca        ..      ASRS     r2,r1,#31
        0x08005560:    6804        .h      LDR      r4,[r0,#0]
        0x08005562:    eb016312    ...c    ADD      r3,r1,r2,LSR #24
        0x08005566:    0a1a        ..      LSRS     r2,r3,#8
        0x08005568:    7022        "p      STRB     r2,[r4,#0]
        0x0800556a:    6802        .h      LDR      r2,[r0,#0]
        0x0800556c:    1c52        R.      ADDS     r2,r2,#1
        0x0800556e:    6002        .`      STR      r2,[r0,#0]
        0x08005570:    7011        .p      STRB     r1,[r2,#0]
        0x08005572:    6801        .h      LDR      r1,[r0,#0]
        0x08005574:    1c49        I.      ADDS     r1,r1,#1
        0x08005576:    6001        .`      STR      r1,[r0,#0]
        0x08005578:    bd10        ..      POP      {r4,pc}
    i.writeMQTTString
    writeMQTTString
        0x0800557a:    b570        p.      PUSH     {r4-r6,lr}
        0x0800557c:    1e14        ..      SUBS     r4,r2,#0
        0x0800557e:    461e        .F      MOV      r6,r3
        0x08005580:    4605        .F      MOV      r5,r0
        0x08005582:    dd0b        ..      BLE      0x800559c ; writeMQTTString + 34
        0x08005584:    4611        .F      MOV      r1,r2
        0x08005586:    f7ffffe9    ....    BL       writeInt ; 0x800555c
        0x0800558a:    4622        "F      MOV      r2,r4
        0x0800558c:    4631        1F      MOV      r1,r6
        0x0800558e:    6828        (h      LDR      r0,[r5,#0]
        0x08005590:    f7fbf8aa    ....    BL       __aeabi_memcpy ; 0x80006e8
        0x08005594:    6828        (h      LDR      r0,[r5,#0]
        0x08005596:    4420         D      ADD      r0,r0,r4
        0x08005598:    6028        (`      STR      r0,[r5,#0]
        0x0800559a:    bd70        p.      POP      {r4-r6,pc}
        0x0800559c:    b119        ..      CBZ      r1,0x80055a6 ; writeMQTTString + 44
        0x0800559e:    e8bd4070    ..p@    POP      {r4-r6,lr}
        0x080055a2:    f7ffbfc1    ....    B.W      writeCString ; 0x8005528
        0x080055a6:    e8bd4070    ..p@    POP      {r4-r6,lr}
        0x080055aa:    2100        .!      MOVS     r1,#0
        0x080055ac:    f7ffbfd6    ....    B.W      writeInt ; 0x800555c
    i.xPortStartScheduler
    xPortStartScheduler
        0x080055b0:    b51c        ..      PUSH     {r2-r4,lr}
        0x080055b2:    4926        &I      LDR      r1,[pc,#152] ; [0x800564c] = 0xe000e400
        0x080055b4:    7808        .x      LDRB     r0,[r1,#0]
        0x080055b6:    9001        ..      STR      r0,[sp,#4]
        0x080055b8:    20ff        .       MOVS     r0,#0xff
        0x080055ba:    7008        .p      STRB     r0,[r1,#0]
        0x080055bc:    7808        .x      LDRB     r0,[r1,#0]
        0x080055be:    f88d0000    ....    STRB     r0,[sp,#0]
        0x080055c2:    f89d0000    ....    LDRB     r0,[sp,#0]
        0x080055c6:    f89d2000    ...     LDRB     r2,[sp,#0]
        0x080055ca:    f00000f0    ....    AND      r0,r0,#0xf0
        0x080055ce:    4290        .B      CMP      r0,r2
        0x080055d0:    d007        ..      BEQ      0x80055e2 ; xPortStartScheduler + 50
        0x080055d2:    2050        P       MOVS     r0,#0x50
        0x080055d4:    f3808811    ....    MSR      BASEPRI,r0
        0x080055d8:    f3bf8f4f    ..O.    DSB      
        0x080055dc:    f3bf8f6f    ..o.    ISB      
        0x080055e0:    e7fe        ..      B        0x80055e0 ; xPortStartScheduler + 48
        0x080055e2:    f89d0000    ....    LDRB     r0,[sp,#0]
        0x080055e6:    4b1a        .K      LDR      r3,[pc,#104] ; [0x8005650] = 0x200000a8
        0x080055e8:    f0000050    ..P.    AND      r0,r0,#0x50
        0x080055ec:    7018        .p      STRB     r0,[r3,#0]
        0x080055ee:    2007        .       MOVS     r0,#7
        0x080055f0:    6098        .`      STR      r0,[r3,#8]
        0x080055f2:    e005        ..      B        0x8005600 ; xPortStartScheduler + 80
        0x080055f4:    f89d2000    ...     LDRB     r2,[sp,#0]
        0x080055f8:    0052        R.      LSLS     r2,r2,#1
        0x080055fa:    f88d2000    ...     STRB     r2,[sp,#0]
        0x080055fe:    1e40        @.      SUBS     r0,r0,#1
        0x08005600:    f89d2000    ...     LDRB     r2,[sp,#0]
        0x08005604:    0612        ..      LSLS     r2,r2,#24
        0x08005606:    d4f5        ..      BMI      0x80055f4 ; xPortStartScheduler + 68
        0x08005608:    6098        .`      STR      r0,[r3,#8]
        0x0800560a:    2803        .(      CMP      r0,#3
        0x0800560c:    d007        ..      BEQ      0x800561e ; xPortStartScheduler + 110
        0x0800560e:    2050        P       MOVS     r0,#0x50
        0x08005610:    f3808811    ....    MSR      BASEPRI,r0
        0x08005614:    f3bf8f4f    ..O.    DSB      
        0x08005618:    f3bf8f6f    ..o.    ISB      
        0x0800561c:    e7fe        ..      B        0x800561c ; xPortStartScheduler + 108
        0x0800561e:    f44f7040    O.@p    MOV      r0,#0x300
        0x08005622:    6098        .`      STR      r0,[r3,#8]
        0x08005624:    9801        ..      LDR      r0,[sp,#4]
        0x08005626:    7008        .p      STRB     r0,[r1,#0]
        0x08005628:    480a        .H      LDR      r0,[pc,#40] ; [0x8005654] = 0xe000ed20
        0x0800562a:    6801        .h      LDR      r1,[r0,#0]
        0x0800562c:    f4410170    A.p.    ORR      r1,r1,#0xf00000
        0x08005630:    6001        .`      STR      r1,[r0,#0]
        0x08005632:    6801        .h      LDR      r1,[r0,#0]
        0x08005634:    f0414170    A.pA    ORR      r1,r1,#0xf0000000
        0x08005638:    6001        .`      STR      r1,[r0,#0]
        0x0800563a:    f7fffd01    ....    BL       vPortSetupTimerInterrupt ; 0x8005040
        0x0800563e:    2000        .       MOVS     r0,#0
        0x08005640:    6058        X`      STR      r0,[r3,#4]
        0x08005642:    f7fafdbf    ....    BL       __asm___6_port_c_39a90d8d__prvStartFirstTask ; 0x80001c4
        0x08005646:    2000        .       MOVS     r0,#0
        0x08005648:    bd1c        ..      POP      {r2-r4,pc}
    $d
        0x0800564a:    0000        ..      DCW    0
        0x0800564c:    e000e400    ....    DCD    3758154752
        0x08005650:    200000a8    ...     DCD    536871080
        0x08005654:    e000ed20     ...    DCD    3758157088
    $t
    i.xQueueCreateMutex
    xQueueCreateMutex
        0x08005658:    b510        ..      PUSH     {r4,lr}
        0x0800565a:    4602        .F      MOV      r2,r0
        0x0800565c:    2100        .!      MOVS     r1,#0
        0x0800565e:    2001        .       MOVS     r0,#1
        0x08005660:    f000f805    ....    BL       xQueueGenericCreate ; 0x800566e
        0x08005664:    4604        .F      MOV      r4,r0
        0x08005666:    f7fff83b    ..;.    BL       prvInitialiseMutex ; 0x80046e0
        0x0800566a:    4620         F      MOV      r0,r4
        0x0800566c:    bd10        ..      POP      {r4,pc}
    i.xQueueGenericCreate
    xQueueGenericCreate
        0x0800566e:    b5f8        ..      PUSH     {r3-r7,lr}
        0x08005670:    4617        .F      MOV      r7,r2
        0x08005672:    460e        .F      MOV      r6,r1
        0x08005674:    0005        ..      MOVS     r5,r0
        0x08005676:    d014        ..      BEQ      0x80056a2 ; xQueueGenericCreate + 52
        0x08005678:    b1de        ..      CBZ      r6,0x80056b2 ; xQueueGenericCreate + 68
        0x0800567a:    fb05f006    ....    MUL      r0,r5,r6
        0x0800567e:    3050        P0      ADDS     r0,r0,#0x50
        0x08005680:    f7fffa7a    ..z.    BL       pvPortMalloc ; 0x8004b78
        0x08005684:    0004        ..      MOVS     r4,r0
        0x08005686:    d00a        ..      BEQ      0x800569e ; xQueueGenericCreate + 48
        0x08005688:    2000        .       MOVS     r0,#0
        0x0800568a:    f8840046    ..F.    STRB     r0,[r4,#0x46]
        0x0800568e:    f1040250    ..P.    ADD      r2,r4,#0x50
        0x08005692:    463b        ;F      MOV      r3,r7
        0x08005694:    4631        1F      MOV      r1,r6
        0x08005696:    4628        (F      MOV      r0,r5
        0x08005698:    9400        ..      STR      r4,[sp,#0]
        0x0800569a:    f7fff82d    ..-.    BL       prvInitialiseNewQueue ; 0x80046f8
        0x0800569e:    4620         F      MOV      r0,r4
        0x080056a0:    bdf8        ..      POP      {r3-r7,pc}
        0x080056a2:    2050        P       MOVS     r0,#0x50
        0x080056a4:    f3808811    ....    MSR      BASEPRI,r0
        0x080056a8:    f3bf8f4f    ..O.    DSB      
        0x080056ac:    f3bf8f6f    ..o.    ISB      
        0x080056b0:    e7fe        ..      B        0x80056b0 ; xQueueGenericCreate + 66
        0x080056b2:    2000        .       MOVS     r0,#0
        0x080056b4:    e7e3        ..      B        0x800567e ; xQueueGenericCreate + 16
    i.xQueueGenericCreateStatic
    xQueueGenericCreateStatic
        0x080056b6:    b538        8.      PUSH     {r3-r5,lr}
        0x080056b8:    9d04        ..      LDR      r5,[sp,#0x10]
        0x080056ba:    b118        ..      CBZ      r0,0x80056c4 ; xQueueGenericCreateStatic + 14
        0x080056bc:    b153        S.      CBZ      r3,0x80056d4 ; xQueueGenericCreateStatic + 30
        0x080056be:    b1ca        ..      CBZ      r2,0x80056f4 ; xQueueGenericCreateStatic + 62
        0x080056c0:    b181        ..      CBZ      r1,0x80056e4 ; xQueueGenericCreateStatic + 46
        0x080056c2:    e020         .      B        0x8005706 ; xQueueGenericCreateStatic + 80
        0x080056c4:    2050        P       MOVS     r0,#0x50
        0x080056c6:    f3808811    ....    MSR      BASEPRI,r0
        0x080056ca:    f3bf8f4f    ..O.    DSB      
        0x080056ce:    f3bf8f6f    ..o.    ISB      
        0x080056d2:    e7fe        ..      B        0x80056d2 ; xQueueGenericCreateStatic + 28
        0x080056d4:    2050        P       MOVS     r0,#0x50
        0x080056d6:    f3808811    ....    MSR      BASEPRI,r0
        0x080056da:    f3bf8f4f    ..O.    DSB      
        0x080056de:    f3bf8f6f    ..o.    ISB      
        0x080056e2:    e7fe        ..      B        0x80056e2 ; xQueueGenericCreateStatic + 44
        0x080056e4:    2050        P       MOVS     r0,#0x50
        0x080056e6:    f3808811    ....    MSR      BASEPRI,r0
        0x080056ea:    f3bf8f4f    ..O.    DSB      
        0x080056ee:    f3bf8f6f    ..o.    ISB      
        0x080056f2:    e7fe        ..      B        0x80056f2 ; xQueueGenericCreateStatic + 60
        0x080056f4:    b139        9.      CBZ      r1,0x8005706 ; xQueueGenericCreateStatic + 80
        0x080056f6:    2050        P       MOVS     r0,#0x50
        0x080056f8:    f3808811    ....    MSR      BASEPRI,r0
        0x080056fc:    f3bf8f4f    ..O.    DSB      
        0x08005700:    f3bf8f6f    ..o.    ISB      
        0x08005704:    e7fe        ..      B        0x8005704 ; xQueueGenericCreateStatic + 78
        0x08005706:    2450        P$      MOVS     r4,#0x50
        0x08005708:    461c        .F      MOV      r4,r3
        0x0800570a:    2301        .#      MOVS     r3,#1
        0x0800570c:    f8843046    ..F0    STRB     r3,[r4,#0x46]
        0x08005710:    462b        +F      MOV      r3,r5
        0x08005712:    9400        ..      STR      r4,[sp,#0]
        0x08005714:    f7fefff0    ....    BL       prvInitialiseNewQueue ; 0x80046f8
        0x08005718:    4620         F      MOV      r0,r4
        0x0800571a:    bd38        8.      POP      {r3-r5,pc}
    i.xQueueGenericReset
    xQueueGenericReset
        0x0800571c:    b570        p.      PUSH     {r4-r6,lr}
        0x0800571e:    460d        .F      MOV      r5,r1
        0x08005720:    0004        ..      MOVS     r4,r0
        0x08005722:    d025        %.      BEQ      0x8005770 ; xQueueGenericReset + 84
        0x08005724:    f7fffc2a    ..*.    BL       vPortEnterCritical ; 0x8004f7c
        0x08005728:    e9d4200f    ...     LDRD     r2,r0,[r4,#0x3c]
        0x0800572c:    6821        !h      LDR      r1,[r4,#0]
        0x0800572e:    fb021100    ....    MLA      r1,r2,r0,r1
        0x08005732:    6061        a`      STR      r1,[r4,#4]
        0x08005734:    2100        .!      MOVS     r1,#0
        0x08005736:    63a1        .c      STR      r1,[r4,#0x38]
        0x08005738:    6821        !h      LDR      r1,[r4,#0]
        0x0800573a:    60a1        .`      STR      r1,[r4,#8]
        0x0800573c:    460a        .F      MOV      r2,r1
        0x0800573e:    e9d4010f    ....    LDRD     r0,r1,[r4,#0x3c]
        0x08005742:    1e40        @.      SUBS     r0,r0,#1
        0x08005744:    fb002101    ...!    MLA      r1,r0,r1,r2
        0x08005748:    60e1        .`      STR      r1,[r4,#0xc]
        0x0800574a:    4621        !F      MOV      r1,r4
        0x0800574c:    f04f30ff    O..0    MOV      r0,#0xffffffff
        0x08005750:    f8010f44    ..D.    STRB     r0,[r1,#0x44]!
        0x08005754:    7048        Hp      STRB     r0,[r1,#1]
        0x08005756:    f1040010    ....    ADD      r0,r4,#0x10
        0x0800575a:    b18d        ..      CBZ      r5,0x8005780 ; xQueueGenericReset + 100
        0x0800575c:    f7fffbdc    ....    BL       vListInitialise ; 0x8004f18
        0x08005760:    f1040024    ..$.    ADD      r0,r4,#0x24
        0x08005764:    f7fffbd8    ....    BL       vListInitialise ; 0x8004f18
        0x08005768:    f7fffc28    ..(.    BL       vPortExitCritical ; 0x8004fbc
        0x0800576c:    2001        .       MOVS     r0,#1
        0x0800576e:    bd70        p.      POP      {r4-r6,pc}
        0x08005770:    2050        P       MOVS     r0,#0x50
        0x08005772:    f3808811    ....    MSR      BASEPRI,r0
        0x08005776:    f3bf8f4f    ..O.    DSB      
        0x0800577a:    f3bf8f6f    ..o.    ISB      
        0x0800577e:    e7fe        ..      B        0x800577e ; xQueueGenericReset + 98
        0x08005780:    6921        !i      LDR      r1,[r4,#0x10]
        0x08005782:    2900        .)      CMP      r1,#0
        0x08005784:    d0f0        ..      BEQ      0x8005768 ; xQueueGenericReset + 76
        0x08005786:    f000fbf9    ....    BL       xTaskRemoveFromEventList ; 0x8005f7c
        0x0800578a:    2800        .(      CMP      r0,#0
        0x0800578c:    d0ec        ..      BEQ      0x8005768 ; xQueueGenericReset + 76
        0x0800578e:    4904        .I      LDR      r1,[pc,#16] ; [0x80057a0] = 0xe000ed04
        0x08005790:    f04f5080    O..P    MOV      r0,#0x10000000
        0x08005794:    6008        .`      STR      r0,[r1,#0]
        0x08005796:    f3bf8f4f    ..O.    DSB      
        0x0800579a:    f3bf8f6f    ..o.    ISB      
        0x0800579e:    e7e3        ..      B        0x8005768 ; xQueueGenericReset + 76
    $d
        0x080057a0:    e000ed04    ....    DCD    3758157060
    $t
    i.xQueueGenericSend
    xQueueGenericSend
        0x080057a4:    e92d47ff    -..G    PUSH     {r0-r10,lr}
        0x080057a8:    b082        ..      SUB      sp,sp,#8
        0x080057aa:    461d        .F      MOV      r5,r3
        0x080057ac:    468a        .F      MOV      r10,r1
        0x080057ae:    f04f0800    O...    MOV      r8,#0
        0x080057b2:    0004        ..      MOVS     r4,r0
        0x080057b4:    d003        ..      BEQ      0x80057be ; xQueueGenericSend + 26
        0x080057b6:    f1ba0f00    ....    CMP      r10,#0
        0x080057ba:    d008        ..      BEQ      0x80057ce ; xQueueGenericSend + 42
        0x080057bc:    e011        ..      B        0x80057e2 ; xQueueGenericSend + 62
        0x080057be:    2050        P       MOVS     r0,#0x50
        0x080057c0:    f3808811    ....    MSR      BASEPRI,r0
        0x080057c4:    f3bf8f4f    ..O.    DSB      
        0x080057c8:    f3bf8f6f    ..o.    ISB      
        0x080057cc:    e7fe        ..      B        0x80057cc ; xQueueGenericSend + 40
        0x080057ce:    6c20         l      LDR      r0,[r4,#0x40]
        0x080057d0:    b138        8.      CBZ      r0,0x80057e2 ; xQueueGenericSend + 62
        0x080057d2:    2050        P       MOVS     r0,#0x50
        0x080057d4:    f3808811    ....    MSR      BASEPRI,r0
        0x080057d8:    f3bf8f4f    ..O.    DSB      
        0x080057dc:    f3bf8f6f    ..o.    ISB      
        0x080057e0:    e7fe        ..      B        0x80057e0 ; xQueueGenericSend + 60
        0x080057e2:    2d02        .-      CMP      r5,#2
        0x080057e4:    d10a        ..      BNE      0x80057fc ; xQueueGenericSend + 88
        0x080057e6:    6be0        .k      LDR      r0,[r4,#0x3c]
        0x080057e8:    2801        .(      CMP      r0,#1
        0x080057ea:    d007        ..      BEQ      0x80057fc ; xQueueGenericSend + 88
        0x080057ec:    2050        P       MOVS     r0,#0x50
        0x080057ee:    f3808811    ....    MSR      BASEPRI,r0
        0x080057f2:    f3bf8f4f    ..O.    DSB      
        0x080057f6:    f3bf8f6f    ..o.    ISB      
        0x080057fa:    e7fe        ..      B        0x80057fa ; xQueueGenericSend + 86
        0x080057fc:    f000faca    ....    BL       xTaskGetSchedulerState ; 0x8005d94
        0x08005800:    4f3f        ?O      LDR      r7,[pc,#252] ; [0x8005900] = 0xe000ed04
        0x08005802:    f04f0900    O...    MOV      r9,#0
        0x08005806:    f04f5680    O..V    MOV      r6,#0x10000000
        0x0800580a:    b948        H.      CBNZ     r0,0x8005820 ; xQueueGenericSend + 124
        0x0800580c:    9804        ..      LDR      r0,[sp,#0x10]
        0x0800580e:    b138        8.      CBZ      r0,0x8005820 ; xQueueGenericSend + 124
        0x08005810:    2050        P       MOVS     r0,#0x50
        0x08005812:    f3808811    ....    MSR      BASEPRI,r0
        0x08005816:    f3bf8f4f    ..O.    DSB      
        0x0800581a:    f3bf8f6f    ..o.    ISB      
        0x0800581e:    e7fe        ..      B        0x800581e ; xQueueGenericSend + 122
        0x08005820:    f7fffbac    ....    BL       vPortEnterCritical ; 0x8004f7c
        0x08005824:    6ba0        .k      LDR      r0,[r4,#0x38]
        0x08005826:    6be1        .k      LDR      r1,[r4,#0x3c]
        0x08005828:    4288        .B      CMP      r0,r1
        0x0800582a:    d307        ..      BCC      0x800583c ; xQueueGenericSend + 152
        0x0800582c:    2d02        .-      CMP      r5,#2
        0x0800582e:    d005        ..      BEQ      0x800583c ; xQueueGenericSend + 152
        0x08005830:    9804        ..      LDR      r0,[sp,#0x10]
        0x08005832:    b1d0        ..      CBZ      r0,0x800586a ; xQueueGenericSend + 198
        0x08005834:    f1b80f00    ....    CMP      r8,#0
        0x08005838:    d01a        ..      BEQ      0x8005870 ; xQueueGenericSend + 204
        0x0800583a:    e01e        ..      B        0x800587a ; xQueueGenericSend + 214
        0x0800583c:    462a        *F      MOV      r2,r5
        0x0800583e:    4651        QF      MOV      r1,r10
        0x08005840:    4620         F      MOV      r0,r4
        0x08005842:    f7fefea6    ....    BL       prvCopyDataToQueue ; 0x8004592
        0x08005846:    6a61        aj      LDR      r1,[r4,#0x24]
        0x08005848:    b119        ..      CBZ      r1,0x8005852 ; xQueueGenericSend + 174
        0x0800584a:    f1040024    ..$.    ADD      r0,r4,#0x24
        0x0800584e:    f000fb95    ....    BL       xTaskRemoveFromEventList ; 0x8005f7c
        0x08005852:    b120         .      CBZ      r0,0x800585e ; xQueueGenericSend + 186
        0x08005854:    603e        >`      STR      r6,[r7,#0]
        0x08005856:    f3bf8f4f    ..O.    DSB      
        0x0800585a:    f3bf8f6f    ..o.    ISB      
        0x0800585e:    f7fffbad    ....    BL       vPortExitCritical ; 0x8004fbc
        0x08005862:    2001        .       MOVS     r0,#1
        0x08005864:    b006        ..      ADD      sp,sp,#0x18
        0x08005866:    e8bd87f0    ....    POP      {r4-r10,pc}
        0x0800586a:    f7fffba7    ....    BL       vPortExitCritical ; 0x8004fbc
        0x0800586e:    e022        ".      B        0x80058b6 ; xQueueGenericSend + 274
        0x08005870:    4668        hF      MOV      r0,sp
        0x08005872:    f7fffcc5    ....    BL       vTaskInternalSetTimeOutState ; 0x8005200
        0x08005876:    f04f0801    O...    MOV      r8,#1
        0x0800587a:    f7fffb9f    ....    BL       vPortExitCritical ; 0x8004fbc
        0x0800587e:    f7fffe19    ....    BL       vTaskSuspendAll ; 0x80054b4
        0x08005882:    f7fffb7b    ..{.    BL       vPortEnterCritical ; 0x8004f7c
        0x08005886:    f9940044    ..D.    LDRSB    r0,[r4,#0x44]
        0x0800588a:    1c40        @.      ADDS     r0,r0,#1
        0x0800588c:    d101        ..      BNE      0x8005892 ; xQueueGenericSend + 238
        0x0800588e:    f8849044    ..D.    STRB     r9,[r4,#0x44]
        0x08005892:    f9940045    ..E.    LDRSB    r0,[r4,#0x45]
        0x08005896:    1c40        @.      ADDS     r0,r0,#1
        0x08005898:    d101        ..      BNE      0x800589e ; xQueueGenericSend + 250
        0x0800589a:    f8849045    ..E.    STRB     r9,[r4,#0x45]
        0x0800589e:    f7fffb8d    ....    BL       vPortExitCritical ; 0x8004fbc
        0x080058a2:    a904        ..      ADD      r1,sp,#0x10
        0x080058a4:    4668        hF      MOV      r0,sp
        0x080058a6:    f000f9e3    ....    BL       xTaskCheckForTimeOut ; 0x8005c70
        0x080058aa:    b130        0.      CBZ      r0,0x80058ba ; xQueueGenericSend + 278
        0x080058ac:    4620         F      MOV      r0,r4
        0x080058ae:    f7fff92d    ..-.    BL       prvUnlockQueue ; 0x8004b0c
        0x080058b2:    f000fb9b    ....    BL       xTaskResumeAll ; 0x8005fec
        0x080058b6:    2000        .       MOVS     r0,#0
        0x080058b8:    e7d4        ..      B        0x8005864 ; xQueueGenericSend + 192
        0x080058ba:    f7fffb5f    .._.    BL       vPortEnterCritical ; 0x8004f7c
        0x080058be:    6ba0        .k      LDR      r0,[r4,#0x38]
        0x080058c0:    6be1        .k      LDR      r1,[r4,#0x3c]
        0x080058c2:    4288        .B      CMP      r0,r1
        0x080058c4:    d113        ..      BNE      0x80058ee ; xQueueGenericSend + 330
        0x080058c6:    f7fffb79    ..y.    BL       vPortExitCritical ; 0x8004fbc
        0x080058ca:    f1040010    ....    ADD      r0,r4,#0x10
        0x080058ce:    9904        ..      LDR      r1,[sp,#0x10]
        0x080058d0:    f7fffca4    ....    BL       vTaskPlaceOnEventList ; 0x800521c
        0x080058d4:    4620         F      MOV      r0,r4
        0x080058d6:    f7fff919    ....    BL       prvUnlockQueue ; 0x8004b0c
        0x080058da:    f000fb87    ....    BL       xTaskResumeAll ; 0x8005fec
        0x080058de:    2800        .(      CMP      r0,#0
        0x080058e0:    d19e        ..      BNE      0x8005820 ; xQueueGenericSend + 124
        0x080058e2:    603e        >`      STR      r6,[r7,#0]
        0x080058e4:    f3bf8f4f    ..O.    DSB      
        0x080058e8:    f3bf8f6f    ..o.    ISB      
        0x080058ec:    e798        ..      B        0x8005820 ; xQueueGenericSend + 124
        0x080058ee:    f7fffb65    ..e.    BL       vPortExitCritical ; 0x8004fbc
        0x080058f2:    4620         F      MOV      r0,r4
        0x080058f4:    f7fff90a    ....    BL       prvUnlockQueue ; 0x8004b0c
        0x080058f8:    f000fb78    ..x.    BL       xTaskResumeAll ; 0x8005fec
        0x080058fc:    e790        ..      B        0x8005820 ; xQueueGenericSend + 124
    $d
        0x080058fe:    0000        ..      DCW    0
        0x08005900:    e000ed04    ....    DCD    3758157060
    $t
    i.xQueueGenericSendFromISR
    xQueueGenericSendFromISR
        0x08005904:    e92d47f0    -..G    PUSH     {r4-r10,lr}
        0x08005908:    461f        .F      MOV      r7,r3
        0x0800590a:    4690        .F      MOV      r8,r2
        0x0800590c:    4689        .F      MOV      r9,r1
        0x0800590e:    0004        ..      MOVS     r4,r0
        0x08005910:    d003        ..      BEQ      0x800591a ; xQueueGenericSendFromISR + 22
        0x08005912:    f1b90f00    ....    CMP      r9,#0
        0x08005916:    d008        ..      BEQ      0x800592a ; xQueueGenericSendFromISR + 38
        0x08005918:    e011        ..      B        0x800593e ; xQueueGenericSendFromISR + 58
        0x0800591a:    2050        P       MOVS     r0,#0x50
        0x0800591c:    f3808811    ....    MSR      BASEPRI,r0
        0x08005920:    f3bf8f4f    ..O.    DSB      
        0x08005924:    f3bf8f6f    ..o.    ISB      
        0x08005928:    e7fe        ..      B        0x8005928 ; xQueueGenericSendFromISR + 36
        0x0800592a:    6c20         l      LDR      r0,[r4,#0x40]
        0x0800592c:    b138        8.      CBZ      r0,0x800593e ; xQueueGenericSendFromISR + 58
        0x0800592e:    2050        P       MOVS     r0,#0x50
        0x08005930:    f3808811    ....    MSR      BASEPRI,r0
        0x08005934:    f3bf8f4f    ..O.    DSB      
        0x08005938:    f3bf8f6f    ..o.    ISB      
        0x0800593c:    e7fe        ..      B        0x800593c ; xQueueGenericSendFromISR + 56
        0x0800593e:    2f02        ./      CMP      r7,#2
        0x08005940:    d10a        ..      BNE      0x8005958 ; xQueueGenericSendFromISR + 84
        0x08005942:    6be0        .k      LDR      r0,[r4,#0x3c]
        0x08005944:    2801        .(      CMP      r0,#1
        0x08005946:    d007        ..      BEQ      0x8005958 ; xQueueGenericSendFromISR + 84
        0x08005948:    2050        P       MOVS     r0,#0x50
        0x0800594a:    f3808811    ....    MSR      BASEPRI,r0
        0x0800594e:    f3bf8f4f    ..O.    DSB      
        0x08005952:    f3bf8f6f    ..o.    ISB      
        0x08005956:    e7fe        ..      B        0x8005956 ; xQueueGenericSendFromISR + 82
        0x08005958:    f7fffb84    ....    BL       vPortValidateInterruptPriority ; 0x8005064
        0x0800595c:    2050        P       MOVS     r0,#0x50
        0x0800595e:    f3ef8611    ....    MRS      r6,BASEPRI
        0x08005962:    f3808811    ....    MSR      BASEPRI,r0
        0x08005966:    f3bf8f4f    ..O.    DSB      
        0x0800596a:    f3bf8f6f    ..o.    ISB      
        0x0800596e:    6ba0        .k      LDR      r0,[r4,#0x38]
        0x08005970:    6be1        .k      LDR      r1,[r4,#0x3c]
        0x08005972:    4288        .B      CMP      r0,r1
        0x08005974:    d306        ..      BCC      0x8005984 ; xQueueGenericSendFromISR + 128
        0x08005976:    2f02        ./      CMP      r7,#2
        0x08005978:    d004        ..      BEQ      0x8005984 ; xQueueGenericSendFromISR + 128
        0x0800597a:    2000        .       MOVS     r0,#0
        0x0800597c:    f3868811    ....    MSR      BASEPRI,r6
        0x08005980:    e8bd87f0    ....    POP      {r4-r10,pc}
        0x08005984:    f9945045    ..EP    LDRSB    r5,[r4,#0x45]
        0x08005988:    463a        :F      MOV      r2,r7
        0x0800598a:    4649        IF      MOV      r1,r9
        0x0800598c:    4620         F      MOV      r0,r4
        0x0800598e:    f7fefe00    ....    BL       prvCopyDataToQueue ; 0x8004592
        0x08005992:    1c68        h.      ADDS     r0,r5,#1
        0x08005994:    d004        ..      BEQ      0x80059a0 ; xQueueGenericSendFromISR + 156
        0x08005996:    1c6d        m.      ADDS     r5,r5,#1
        0x08005998:    f8845045    ..EP    STRB     r5,[r4,#0x45]
        0x0800599c:    2001        .       MOVS     r0,#1
        0x0800599e:    e7ed        ..      B        0x800597c ; xQueueGenericSendFromISR + 120
        0x080059a0:    6a60        `j      LDR      r0,[r4,#0x24]
        0x080059a2:    2800        .(      CMP      r0,#0
        0x080059a4:    d0fa        ..      BEQ      0x800599c ; xQueueGenericSendFromISR + 152
        0x080059a6:    f1040024    ..$.    ADD      r0,r4,#0x24
        0x080059aa:    f000fae7    ....    BL       xTaskRemoveFromEventList ; 0x8005f7c
        0x080059ae:    2800        .(      CMP      r0,#0
        0x080059b0:    d0f4        ..      BEQ      0x800599c ; xQueueGenericSendFromISR + 152
        0x080059b2:    f1b80f00    ....    CMP      r8,#0
        0x080059b6:    d0f1        ..      BEQ      0x800599c ; xQueueGenericSendFromISR + 152
        0x080059b8:    2101        .!      MOVS     r1,#1
        0x080059ba:    f8c81000    ....    STR      r1,[r8,#0]
        0x080059be:    e7ed        ..      B        0x800599c ; xQueueGenericSendFromISR + 152
    i.xQueueReceive
    xQueueReceive
        0x080059c0:    e92d47f7    -..G    PUSH     {r0-r2,r4-r10,lr}
        0x080059c4:    2600        .&      MOVS     r6,#0
        0x080059c6:    b083        ..      SUB      sp,sp,#0xc
        0x080059c8:    468a        .F      MOV      r10,r1
        0x080059ca:    0004        ..      MOVS     r4,r0
        0x080059cc:    d003        ..      BEQ      0x80059d6 ; xQueueReceive + 22
        0x080059ce:    f1ba0f00    ....    CMP      r10,#0
        0x080059d2:    d008        ..      BEQ      0x80059e6 ; xQueueReceive + 38
        0x080059d4:    e011        ..      B        0x80059fa ; xQueueReceive + 58
        0x080059d6:    2050        P       MOVS     r0,#0x50
        0x080059d8:    f3808811    ....    MSR      BASEPRI,r0
        0x080059dc:    f3bf8f4f    ..O.    DSB      
        0x080059e0:    f3bf8f6f    ..o.    ISB      
        0x080059e4:    e7fe        ..      B        0x80059e4 ; xQueueReceive + 36
        0x080059e6:    6c20         l      LDR      r0,[r4,#0x40]
        0x080059e8:    b138        8.      CBZ      r0,0x80059fa ; xQueueReceive + 58
        0x080059ea:    2050        P       MOVS     r0,#0x50
        0x080059ec:    f3808811    ....    MSR      BASEPRI,r0
        0x080059f0:    f3bf8f4f    ..O.    DSB      
        0x080059f4:    f3bf8f6f    ..o.    ISB      
        0x080059f8:    e7fe        ..      B        0x80059f8 ; xQueueReceive + 56
        0x080059fa:    f000f9cb    ....    BL       xTaskGetSchedulerState ; 0x8005d94
        0x080059fe:    f8df80f4    ....    LDR      r8,[pc,#244] ; [0x8005af4] = 0xe000ed04
        0x08005a02:    f04f0900    O...    MOV      r9,#0
        0x08005a06:    f04f5780    O..W    MOV      r7,#0x10000000
        0x08005a0a:    b948        H.      CBNZ     r0,0x8005a20 ; xQueueReceive + 96
        0x08005a0c:    9805        ..      LDR      r0,[sp,#0x14]
        0x08005a0e:    b138        8.      CBZ      r0,0x8005a20 ; xQueueReceive + 96
        0x08005a10:    2050        P       MOVS     r0,#0x50
        0x08005a12:    f3808811    ....    MSR      BASEPRI,r0
        0x08005a16:    f3bf8f4f    ..O.    DSB      
        0x08005a1a:    f3bf8f6f    ..o.    ISB      
        0x08005a1e:    e7fe        ..      B        0x8005a1e ; xQueueReceive + 94
        0x08005a20:    f7fffaac    ....    BL       vPortEnterCritical ; 0x8004f7c
        0x08005a24:    6ba5        .k      LDR      r5,[r4,#0x38]
        0x08005a26:    b1c5        ..      CBZ      r5,0x8005a5a ; xQueueReceive + 154
        0x08005a28:    4651        QF      MOV      r1,r10
        0x08005a2a:    4620         F      MOV      r0,r4
        0x08005a2c:    f7fefd9e    ....    BL       prvCopyDataFromQueue ; 0x800456c
        0x08005a30:    1e6d        m.      SUBS     r5,r5,#1
        0x08005a32:    63a5        .c      STR      r5,[r4,#0x38]
        0x08005a34:    6920         i      LDR      r0,[r4,#0x10]
        0x08005a36:    b150        P.      CBZ      r0,0x8005a4e ; xQueueReceive + 142
        0x08005a38:    f1040010    ....    ADD      r0,r4,#0x10
        0x08005a3c:    f000fa9e    ....    BL       xTaskRemoveFromEventList ; 0x8005f7c
        0x08005a40:    b128        (.      CBZ      r0,0x8005a4e ; xQueueReceive + 142
        0x08005a42:    f8c87000    ...p    STR      r7,[r8,#0]
        0x08005a46:    f3bf8f4f    ..O.    DSB      
        0x08005a4a:    f3bf8f6f    ..o.    ISB      
        0x08005a4e:    f7fffab5    ....    BL       vPortExitCritical ; 0x8004fbc
        0x08005a52:    2001        .       MOVS     r0,#1
        0x08005a54:    b006        ..      ADD      sp,sp,#0x18
        0x08005a56:    e8bd87f0    ....    POP      {r4-r10,pc}
        0x08005a5a:    9805        ..      LDR      r0,[sp,#0x14]
        0x08005a5c:    b108        ..      CBZ      r0,0x8005a62 ; xQueueReceive + 162
        0x08005a5e:    b11e        ..      CBZ      r6,0x8005a68 ; xQueueReceive + 168
        0x08005a60:    e006        ..      B        0x8005a70 ; xQueueReceive + 176
        0x08005a62:    f7fffaab    ....    BL       vPortExitCritical ; 0x8004fbc
        0x08005a66:    e027        '.      B        0x8005ab8 ; xQueueReceive + 248
        0x08005a68:    4668        hF      MOV      r0,sp
        0x08005a6a:    f7fffbc9    ....    BL       vTaskInternalSetTimeOutState ; 0x8005200
        0x08005a6e:    2601        .&      MOVS     r6,#1
        0x08005a70:    f7fffaa4    ....    BL       vPortExitCritical ; 0x8004fbc
        0x08005a74:    f7fffd1e    ....    BL       vTaskSuspendAll ; 0x80054b4
        0x08005a78:    f7fffa80    ....    BL       vPortEnterCritical ; 0x8004f7c
        0x08005a7c:    f9940044    ..D.    LDRSB    r0,[r4,#0x44]
        0x08005a80:    1c40        @.      ADDS     r0,r0,#1
        0x08005a82:    d101        ..      BNE      0x8005a88 ; xQueueReceive + 200
        0x08005a84:    f8849044    ..D.    STRB     r9,[r4,#0x44]
        0x08005a88:    f9940045    ..E.    LDRSB    r0,[r4,#0x45]
        0x08005a8c:    1c40        @.      ADDS     r0,r0,#1
        0x08005a8e:    d101        ..      BNE      0x8005a94 ; xQueueReceive + 212
        0x08005a90:    f8849045    ..E.    STRB     r9,[r4,#0x45]
        0x08005a94:    f7fffa92    ....    BL       vPortExitCritical ; 0x8004fbc
        0x08005a98:    a905        ..      ADD      r1,sp,#0x14
        0x08005a9a:    4668        hF      MOV      r0,sp
        0x08005a9c:    f000f8e8    ....    BL       xTaskCheckForTimeOut ; 0x8005c70
        0x08005aa0:    2800        .(      CMP      r0,#0
        0x08005aa2:    4620         F      MOV      r0,r4
        0x08005aa4:    d00a        ..      BEQ      0x8005abc ; xQueueReceive + 252
        0x08005aa6:    f7fff831    ..1.    BL       prvUnlockQueue ; 0x8004b0c
        0x08005aaa:    f000fa9f    ....    BL       xTaskResumeAll ; 0x8005fec
        0x08005aae:    4620         F      MOV      r0,r4
        0x08005ab0:    f7fefec4    ....    BL       prvIsQueueEmpty ; 0x800483c
        0x08005ab4:    2800        .(      CMP      r0,#0
        0x08005ab6:    d0b3        ..      BEQ      0x8005a20 ; xQueueReceive + 96
        0x08005ab8:    2000        .       MOVS     r0,#0
        0x08005aba:    e7cb        ..      B        0x8005a54 ; xQueueReceive + 148
        0x08005abc:    f7fefebe    ....    BL       prvIsQueueEmpty ; 0x800483c
        0x08005ac0:    b190        ..      CBZ      r0,0x8005ae8 ; xQueueReceive + 296
        0x08005ac2:    f1040024    ..$.    ADD      r0,r4,#0x24
        0x08005ac6:    9905        ..      LDR      r1,[sp,#0x14]
        0x08005ac8:    f7fffba8    ....    BL       vTaskPlaceOnEventList ; 0x800521c
        0x08005acc:    4620         F      MOV      r0,r4
        0x08005ace:    f7fff81d    ....    BL       prvUnlockQueue ; 0x8004b0c
        0x08005ad2:    f000fa8b    ....    BL       xTaskResumeAll ; 0x8005fec
        0x08005ad6:    2800        .(      CMP      r0,#0
        0x08005ad8:    d1a2        ..      BNE      0x8005a20 ; xQueueReceive + 96
        0x08005ada:    f8c87000    ...p    STR      r7,[r8,#0]
        0x08005ade:    f3bf8f4f    ..O.    DSB      
        0x08005ae2:    f3bf8f6f    ..o.    ISB      
        0x08005ae6:    e79b        ..      B        0x8005a20 ; xQueueReceive + 96
        0x08005ae8:    4620         F      MOV      r0,r4
        0x08005aea:    f7fff80f    ....    BL       prvUnlockQueue ; 0x8004b0c
        0x08005aee:    f000fa7d    ..}.    BL       xTaskResumeAll ; 0x8005fec
        0x08005af2:    e795        ..      B        0x8005a20 ; xQueueReceive + 96
    $d
        0x08005af4:    e000ed04    ....    DCD    3758157060
    $t
    i.xQueueSemaphoreTake
    xQueueSemaphoreTake
        0x08005af8:    e92d43f3    -..C    PUSH     {r0,r1,r4-r9,lr}
        0x08005afc:    2600        .&      MOVS     r6,#0
        0x08005afe:    b083        ..      SUB      sp,sp,#0xc
        0x08005b00:    0004        ..      MOVS     r4,r0
        0x08005b02:    4635        5F      MOV      r5,r6
        0x08005b04:    d009        ..      BEQ      0x8005b1a ; xQueueSemaphoreTake + 34
        0x08005b06:    6c20         l      LDR      r0,[r4,#0x40]
        0x08005b08:    b178        x.      CBZ      r0,0x8005b2a ; xQueueSemaphoreTake + 50
        0x08005b0a:    2050        P       MOVS     r0,#0x50
        0x08005b0c:    f3808811    ....    MSR      BASEPRI,r0
        0x08005b10:    f3bf8f4f    ..O.    DSB      
        0x08005b14:    f3bf8f6f    ..o.    ISB      
        0x08005b18:    e7fe        ..      B        0x8005b18 ; xQueueSemaphoreTake + 32
        0x08005b1a:    2050        P       MOVS     r0,#0x50
        0x08005b1c:    f3808811    ....    MSR      BASEPRI,r0
        0x08005b20:    f3bf8f4f    ..O.    DSB      
        0x08005b24:    f3bf8f6f    ..o.    ISB      
        0x08005b28:    e7fe        ..      B        0x8005b28 ; xQueueSemaphoreTake + 48
        0x08005b2a:    f000f933    ..3.    BL       xTaskGetSchedulerState ; 0x8005d94
        0x08005b2e:    f8df813c    ..<.    LDR      r8,[pc,#316] ; [0x8005c6c] = 0xe000ed04
        0x08005b32:    f04f0900    O...    MOV      r9,#0
        0x08005b36:    f04f5780    O..W    MOV      r7,#0x10000000
        0x08005b3a:    b948        H.      CBNZ     r0,0x8005b50 ; xQueueSemaphoreTake + 88
        0x08005b3c:    9804        ..      LDR      r0,[sp,#0x10]
        0x08005b3e:    b138        8.      CBZ      r0,0x8005b50 ; xQueueSemaphoreTake + 88
        0x08005b40:    2050        P       MOVS     r0,#0x50
        0x08005b42:    f3808811    ....    MSR      BASEPRI,r0
        0x08005b46:    f3bf8f4f    ..O.    DSB      
        0x08005b4a:    f3bf8f6f    ..o.    ISB      
        0x08005b4e:    e7fe        ..      B        0x8005b4e ; xQueueSemaphoreTake + 86
        0x08005b50:    f7fffa14    ....    BL       vPortEnterCritical ; 0x8004f7c
        0x08005b54:    6ba0        .k      LDR      r0,[r4,#0x38]
        0x08005b56:    b1c8        ..      CBZ      r0,0x8005b8c ; xQueueSemaphoreTake + 148
        0x08005b58:    1e40        @.      SUBS     r0,r0,#1
        0x08005b5a:    63a0        .c      STR      r0,[r4,#0x38]
        0x08005b5c:    6820         h      LDR      r0,[r4,#0]
        0x08005b5e:    b910        ..      CBNZ     r0,0x8005b66 ; xQueueSemaphoreTake + 110
        0x08005b60:    f7fff876    ..v.    BL       pvTaskIncrementMutexHeldCount ; 0x8004c50
        0x08005b64:    6060        ``      STR      r0,[r4,#4]
        0x08005b66:    6920         i      LDR      r0,[r4,#0x10]
        0x08005b68:    b150        P.      CBZ      r0,0x8005b80 ; xQueueSemaphoreTake + 136
        0x08005b6a:    f1040010    ....    ADD      r0,r4,#0x10
        0x08005b6e:    f000fa05    ....    BL       xTaskRemoveFromEventList ; 0x8005f7c
        0x08005b72:    b128        (.      CBZ      r0,0x8005b80 ; xQueueSemaphoreTake + 136
        0x08005b74:    f8c87000    ...p    STR      r7,[r8,#0]
        0x08005b78:    f3bf8f4f    ..O.    DSB      
        0x08005b7c:    f3bf8f6f    ..o.    ISB      
        0x08005b80:    f7fffa1c    ....    BL       vPortExitCritical ; 0x8004fbc
        0x08005b84:    2001        .       MOVS     r0,#1
        0x08005b86:    b005        ..      ADD      sp,sp,#0x14
        0x08005b88:    e8bd83f0    ....    POP      {r4-r9,pc}
        0x08005b8c:    9804        ..      LDR      r0,[sp,#0x10]
        0x08005b8e:    b108        ..      CBZ      r0,0x8005b94 ; xQueueSemaphoreTake + 156
        0x08005b90:    b166        f.      CBZ      r6,0x8005bac ; xQueueSemaphoreTake + 180
        0x08005b92:    e00f        ..      B        0x8005bb4 ; xQueueSemaphoreTake + 188
        0x08005b94:    b13d        =.      CBZ      r5,0x8005ba6 ; xQueueSemaphoreTake + 174
        0x08005b96:    2050        P       MOVS     r0,#0x50
        0x08005b98:    f3808811    ....    MSR      BASEPRI,r0
        0x08005b9c:    f3bf8f4f    ..O.    DSB      
        0x08005ba0:    f3bf8f6f    ..o.    ISB      
        0x08005ba4:    e7fe        ..      B        0x8005ba4 ; xQueueSemaphoreTake + 172
        0x08005ba6:    f7fffa09    ....    BL       vPortExitCritical ; 0x8004fbc
        0x08005baa:    e05d        ].      B        0x8005c68 ; xQueueSemaphoreTake + 368
        0x08005bac:    4668        hF      MOV      r0,sp
        0x08005bae:    f7fffb27    ..'.    BL       vTaskInternalSetTimeOutState ; 0x8005200
        0x08005bb2:    2601        .&      MOVS     r6,#1
        0x08005bb4:    f7fffa02    ....    BL       vPortExitCritical ; 0x8004fbc
        0x08005bb8:    f7fffc7c    ..|.    BL       vTaskSuspendAll ; 0x80054b4
        0x08005bbc:    f7fff9de    ....    BL       vPortEnterCritical ; 0x8004f7c
        0x08005bc0:    f9940044    ..D.    LDRSB    r0,[r4,#0x44]
        0x08005bc4:    1c40        @.      ADDS     r0,r0,#1
        0x08005bc6:    d101        ..      BNE      0x8005bcc ; xQueueSemaphoreTake + 212
        0x08005bc8:    f8849044    ..D.    STRB     r9,[r4,#0x44]
        0x08005bcc:    f9940045    ..E.    LDRSB    r0,[r4,#0x45]
        0x08005bd0:    1c40        @.      ADDS     r0,r0,#1
        0x08005bd2:    d101        ..      BNE      0x8005bd8 ; xQueueSemaphoreTake + 224
        0x08005bd4:    f8849045    ..E.    STRB     r9,[r4,#0x45]
        0x08005bd8:    f7fff9f0    ....    BL       vPortExitCritical ; 0x8004fbc
        0x08005bdc:    a904        ..      ADD      r1,sp,#0x10
        0x08005bde:    4668        hF      MOV      r0,sp
        0x08005be0:    f000f846    ..F.    BL       xTaskCheckForTimeOut ; 0x8005c70
        0x08005be4:    2800        .(      CMP      r0,#0
        0x08005be6:    4620         F      MOV      r0,r4
        0x08005be8:    d012        ..      BEQ      0x8005c10 ; xQueueSemaphoreTake + 280
        0x08005bea:    f7feff8f    ....    BL       prvUnlockQueue ; 0x8004b0c
        0x08005bee:    f000f9fd    ....    BL       xTaskResumeAll ; 0x8005fec
        0x08005bf2:    4620         F      MOV      r0,r4
        0x08005bf4:    f7fefe22    ..".    BL       prvIsQueueEmpty ; 0x800483c
        0x08005bf8:    2800        .(      CMP      r0,#0
        0x08005bfa:    d0a9        ..      BEQ      0x8005b50 ; xQueueSemaphoreTake + 88
        0x08005bfc:    b39d        ..      CBZ      r5,0x8005c66 ; xQueueSemaphoreTake + 366
        0x08005bfe:    f7fff9bd    ....    BL       vPortEnterCritical ; 0x8004f7c
        0x08005c02:    6a60        `j      LDR      r0,[r4,#0x24]
        0x08005c04:    b350        P.      CBZ      r0,0x8005c5c ; xQueueSemaphoreTake + 356
        0x08005c06:    6b20         k      LDR      r0,[r4,#0x30]
        0x08005c08:    6800        .h      LDR      r0,[r0,#0]
        0x08005c0a:    f1c00138    ..8.    RSB      r1,r0,#0x38
        0x08005c0e:    e026        &.      B        0x8005c5e ; xQueueSemaphoreTake + 358
        0x08005c10:    f7fefe14    ....    BL       prvIsQueueEmpty ; 0x800483c
        0x08005c14:    b1e0        ..      CBZ      r0,0x8005c50 ; xQueueSemaphoreTake + 344
        0x08005c16:    6820         h      LDR      r0,[r4,#0]
        0x08005c18:    b938        8.      CBNZ     r0,0x8005c2a ; xQueueSemaphoreTake + 306
        0x08005c1a:    f7fff9af    ....    BL       vPortEnterCritical ; 0x8004f7c
        0x08005c1e:    6860        `h      LDR      r0,[r4,#4]
        0x08005c20:    f000f970    ..p.    BL       xTaskPriorityInherit ; 0x8005f04
        0x08005c24:    4605        .F      MOV      r5,r0
        0x08005c26:    f7fff9c9    ....    BL       vPortExitCritical ; 0x8004fbc
        0x08005c2a:    f1040024    ..$.    ADD      r0,r4,#0x24
        0x08005c2e:    9904        ..      LDR      r1,[sp,#0x10]
        0x08005c30:    f7fffaf4    ....    BL       vTaskPlaceOnEventList ; 0x800521c
        0x08005c34:    4620         F      MOV      r0,r4
        0x08005c36:    f7feff69    ..i.    BL       prvUnlockQueue ; 0x8004b0c
        0x08005c3a:    f000f9d7    ....    BL       xTaskResumeAll ; 0x8005fec
        0x08005c3e:    2800        .(      CMP      r0,#0
        0x08005c40:    d186        ..      BNE      0x8005b50 ; xQueueSemaphoreTake + 88
        0x08005c42:    f8c87000    ...p    STR      r7,[r8,#0]
        0x08005c46:    f3bf8f4f    ..O.    DSB      
        0x08005c4a:    f3bf8f6f    ..o.    ISB      
        0x08005c4e:    e77f        ..      B        0x8005b50 ; xQueueSemaphoreTake + 88
        0x08005c50:    4620         F      MOV      r0,r4
        0x08005c52:    f7feff5b    ..[.    BL       prvUnlockQueue ; 0x8004b0c
        0x08005c56:    f000f9c9    ....    BL       xTaskResumeAll ; 0x8005fec
        0x08005c5a:    e779        y.      B        0x8005b50 ; xQueueSemaphoreTake + 88
        0x08005c5c:    2100        .!      MOVS     r1,#0
        0x08005c5e:    6860        `h      LDR      r0,[r4,#4]
        0x08005c60:    f7fffb10    ....    BL       vTaskPriorityDisinheritAfterTimeout ; 0x8005284
        0x08005c64:    e79f        ..      B        0x8005ba6 ; xQueueSemaphoreTake + 174
        0x08005c66:    e7ff        ..      B        0x8005c68 ; xQueueSemaphoreTake + 368
        0x08005c68:    2000        .       MOVS     r0,#0
        0x08005c6a:    e78c        ..      B        0x8005b86 ; xQueueSemaphoreTake + 142
    $d
        0x08005c6c:    e000ed04    ....    DCD    3758157060
    $t
    i.xTaskCheckForTimeOut
    xTaskCheckForTimeOut
        0x08005c70:    e92d41f0    -..A    PUSH     {r4-r8,lr}
        0x08005c74:    460c        .F      MOV      r4,r1
        0x08005c76:    0005        ..      MOVS     r5,r0
        0x08005c78:    d011        ..      BEQ      0x8005c9e ; xTaskCheckForTimeOut + 46
        0x08005c7a:    b1c4        ..      CBZ      r4,0x8005cae ; xTaskCheckForTimeOut + 62
        0x08005c7c:    f7fff97e    ..~.    BL       vPortEnterCritical ; 0x8004f7c
        0x08005c80:    4b17        .K      LDR      r3,[pc,#92] ; [0x8005ce0] = 0x2000003c
        0x08005c82:    695a        Zi      LDR      r2,[r3,#0x14]
        0x08005c84:    686e        nh      LDR      r6,[r5,#4]
        0x08005c86:    6820         h      LDR      r0,[r4,#0]
        0x08005c88:    1b91        ..      SUBS     r1,r2,r6
        0x08005c8a:    1c47        G.      ADDS     r7,r0,#1
        0x08005c8c:    d017        ..      BEQ      0x8005cbe ; xTaskCheckForTimeOut + 78
        0x08005c8e:    682f        /h      LDR      r7,[r5,#0]
        0x08005c90:    6a9b        .j      LDR      r3,[r3,#0x28]
        0x08005c92:    429f        .B      CMP      r7,r3
        0x08005c94:    d019        ..      BEQ      0x8005cca ; xTaskCheckForTimeOut + 90
        0x08005c96:    4296        .B      CMP      r6,r2
        0x08005c98:    d817        ..      BHI      0x8005cca ; xTaskCheckForTimeOut + 90
        0x08005c9a:    2401        .$      MOVS     r4,#1
        0x08005c9c:    e010        ..      B        0x8005cc0 ; xTaskCheckForTimeOut + 80
        0x08005c9e:    2050        P       MOVS     r0,#0x50
        0x08005ca0:    f3808811    ....    MSR      BASEPRI,r0
        0x08005ca4:    f3bf8f4f    ..O.    DSB      
        0x08005ca8:    f3bf8f6f    ..o.    ISB      
        0x08005cac:    e7fe        ..      B        0x8005cac ; xTaskCheckForTimeOut + 60
        0x08005cae:    2050        P       MOVS     r0,#0x50
        0x08005cb0:    f3808811    ....    MSR      BASEPRI,r0
        0x08005cb4:    f3bf8f4f    ..O.    DSB      
        0x08005cb8:    f3bf8f6f    ..o.    ISB      
        0x08005cbc:    e7fe        ..      B        0x8005cbc ; xTaskCheckForTimeOut + 76
        0x08005cbe:    2400        .$      MOVS     r4,#0
        0x08005cc0:    f7fff97c    ..|.    BL       vPortExitCritical ; 0x8004fbc
        0x08005cc4:    4620         F      MOV      r0,r4
        0x08005cc6:    e8bd81f0    ....    POP      {r4-r8,pc}
        0x08005cca:    4288        .B      CMP      r0,r1
        0x08005ccc:    d905        ..      BLS      0x8005cda ; xTaskCheckForTimeOut + 106
        0x08005cce:    1a40        @.      SUBS     r0,r0,r1
        0x08005cd0:    6020         `      STR      r0,[r4,#0]
        0x08005cd2:    4628        (F      MOV      r0,r5
        0x08005cd4:    f7fffa94    ....    BL       vTaskInternalSetTimeOutState ; 0x8005200
        0x08005cd8:    e7f1        ..      B        0x8005cbe ; xTaskCheckForTimeOut + 78
        0x08005cda:    2000        .       MOVS     r0,#0
        0x08005cdc:    6020         `      STR      r0,[r4,#0]
        0x08005cde:    e7dc        ..      B        0x8005c9a ; xTaskCheckForTimeOut + 42
    $d
        0x08005ce0:    2000003c    <..     DCD    536870972
    $t
    i.xTaskCreate
    xTaskCreate
        0x08005ce4:    e92d5fff    -.._    PUSH     {r0-r12,lr}
        0x08005ce8:    4683        .F      MOV      r11,r0
        0x08005cea:    e9dd870e    ....    LDRD     r8,r7,[sp,#0x38]
        0x08005cee:    4699        .F      MOV      r9,r3
        0x08005cf0:    4616        .F      MOV      r6,r2
        0x08005cf2:    468a        .F      MOV      r10,r1
        0x08005cf4:    0090        ..      LSLS     r0,r2,#2
        0x08005cf6:    f7feff3f    ..?.    BL       pvPortMalloc ; 0x8004b78
        0x08005cfa:    0005        ..      MOVS     r5,r0
        0x08005cfc:    d01c        ..      BEQ      0x8005d38 ; xTaskCreate + 84
        0x08005cfe:    205c        \       MOVS     r0,#0x5c
        0x08005d00:    f7feff3a    ..:.    BL       pvPortMalloc ; 0x8004b78
        0x08005d04:    0004        ..      MOVS     r4,r0
        0x08005d06:    d014        ..      BEQ      0x8005d32 ; xTaskCreate + 78
        0x08005d08:    2000        .       MOVS     r0,#0
        0x08005d0a:    6325        %c      STR      r5,[r4,#0x30]
        0x08005d0c:    f8840059    ..Y.    STRB     r0,[r4,#0x59]
        0x08005d10:    e9cd4002    ...@    STRD     r4,r0,[sp,#8]
        0x08005d14:    e9cd8700    ....    STRD     r8,r7,[sp,#0]
        0x08005d18:    464b        KF      MOV      r3,r9
        0x08005d1a:    4632        2F      MOV      r2,r6
        0x08005d1c:    4651        QF      MOV      r1,r10
        0x08005d1e:    4658        XF      MOV      r0,r11
        0x08005d20:    f7fefcfb    ....    BL       prvInitialiseNewTask ; 0x800471a
        0x08005d24:    4620         F      MOV      r0,r4
        0x08005d26:    f7fefb8d    ....    BL       prvAddNewTaskToReadyList ; 0x8004444
        0x08005d2a:    2001        .       MOVS     r0,#1
        0x08005d2c:    b004        ..      ADD      sp,sp,#0x10
        0x08005d2e:    e8bd9ff0    ....    POP      {r4-r12,pc}
        0x08005d32:    4628        (F      MOV      r0,r5
        0x08005d34:    f7fff956    ..V.    BL       vPortFree ; 0x8004fe4
        0x08005d38:    f04f30ff    O..0    MOV      r0,#0xffffffff
        0x08005d3c:    e7f6        ..      B        0x8005d2c ; xTaskCreate + 72
    i.xTaskCreateStatic
    xTaskCreateStatic
        0x08005d3e:    b5f0        ..      PUSH     {r4-r7,lr}
        0x08005d40:    b085        ..      SUB      sp,sp,#0x14
        0x08005d42:    e9dd640b    ...d    LDRD     r6,r4,[sp,#0x2c]
        0x08005d46:    9d0a        ..      LDR      r5,[sp,#0x28]
        0x08005d48:    b1a6        ..      CBZ      r6,0x8005d74 ; xTaskCreateStatic + 54
        0x08005d4a:    b1dc        ..      CBZ      r4,0x8005d84 ; xTaskCreateStatic + 70
        0x08005d4c:    275c        \'      MOVS     r7,#0x5c
        0x08005d4e:    9700        ..      STR      r7,[sp,#0]
        0x08005d50:    6326        &c      STR      r6,[r4,#0x30]
        0x08005d52:    2602        .&      MOVS     r6,#2
        0x08005d54:    f8846059    ..Y`    STRB     r6,[r4,#0x59]
        0x08005d58:    2600        .&      MOVS     r6,#0
        0x08005d5a:    af04        ..      ADD      r7,sp,#0x10
        0x08005d5c:    e9cd4602    ...F    STRD     r4,r6,[sp,#8]
        0x08005d60:    e9cd5700    ...W    STRD     r5,r7,[sp,#0]
        0x08005d64:    f7fefcd9    ....    BL       prvInitialiseNewTask ; 0x800471a
        0x08005d68:    4620         F      MOV      r0,r4
        0x08005d6a:    f7fefb6b    ..k.    BL       prvAddNewTaskToReadyList ; 0x8004444
        0x08005d6e:    9804        ..      LDR      r0,[sp,#0x10]
        0x08005d70:    b005        ..      ADD      sp,sp,#0x14
        0x08005d72:    bdf0        ..      POP      {r4-r7,pc}
        0x08005d74:    2050        P       MOVS     r0,#0x50
        0x08005d76:    f3808811    ....    MSR      BASEPRI,r0
        0x08005d7a:    f3bf8f4f    ..O.    DSB      
        0x08005d7e:    f3bf8f6f    ..o.    ISB      
        0x08005d82:    e7fe        ..      B        0x8005d82 ; xTaskCreateStatic + 68
        0x08005d84:    2050        P       MOVS     r0,#0x50
        0x08005d86:    f3808811    ....    MSR      BASEPRI,r0
        0x08005d8a:    f3bf8f4f    ..O.    DSB      
        0x08005d8e:    f3bf8f6f    ..o.    ISB      
        0x08005d92:    e7fe        ..      B        0x8005d92 ; xTaskCreateStatic + 84
    i.xTaskGetSchedulerState
    xTaskGetSchedulerState
        0x08005d94:    4805        .H      LDR      r0,[pc,#20] ; [0x8005dac] = 0x2000003c
        0x08005d96:    69c1        .i      LDR      r1,[r0,#0x1c]
        0x08005d98:    b119        ..      CBZ      r1,0x8005da2 ; xTaskGetSchedulerState + 14
        0x08005d9a:    6b80        .k      LDR      r0,[r0,#0x38]
        0x08005d9c:    b118        ..      CBZ      r0,0x8005da6 ; xTaskGetSchedulerState + 18
        0x08005d9e:    2000        .       MOVS     r0,#0
        0x08005da0:    4770        pG      BX       lr
        0x08005da2:    2001        .       MOVS     r0,#1
        0x08005da4:    4770        pG      BX       lr
        0x08005da6:    2002        .       MOVS     r0,#2
        0x08005da8:    4770        pG      BX       lr
    $d
        0x08005daa:    0000        ..      DCW    0
        0x08005dac:    2000003c    <..     DCD    536870972
    $t
    i.xTaskGetTickCount
    xTaskGetTickCount
        0x08005db0:    4801        .H      LDR      r0,[pc,#4] ; [0x8005db8] = 0x2000003c
        0x08005db2:    6940        @i      LDR      r0,[r0,#0x14]
        0x08005db4:    4770        pG      BX       lr
    $d
        0x08005db6:    0000        ..      DCW    0
        0x08005db8:    2000003c    <..     DCD    536870972
    $t
    i.xTaskIncrementTick
    xTaskIncrementTick
        0x08005dbc:    e92d41f0    -..A    PUSH     {r4-r8,lr}
        0x08005dc0:    4c2e        .L      LDR      r4,[pc,#184] ; [0x8005e7c] = 0x2000003c
        0x08005dc2:    2700        .'      MOVS     r7,#0
        0x08005dc4:    6ba0        .k      LDR      r0,[r4,#0x38]
        0x08005dc6:    b140        @.      CBZ      r0,0x8005dda ; xTaskIncrementTick + 30
        0x08005dc8:    6a20         j      LDR      r0,[r4,#0x20]
        0x08005dca:    1c40        @.      ADDS     r0,r0,#1
        0x08005dcc:    6220         b      STR      r0,[r4,#0x20]
        0x08005dce:    6a60        `j      LDR      r0,[r4,#0x24]
        0x08005dd0:    b100        ..      CBZ      r0,0x8005dd4 ; xTaskIncrementTick + 24
        0x08005dd2:    2701        .'      MOVS     r7,#1
        0x08005dd4:    4638        8F      MOV      r0,r7
        0x08005dd6:    e8bd81f0    ....    POP      {r4-r8,pc}
        0x08005dda:    6966        fi      LDR      r6,[r4,#0x14]
        0x08005ddc:    1c76        v.      ADDS     r6,r6,#1
        0x08005dde:    6166        fa      STR      r6,[r4,#0x14]
        0x08005de0:    d113        ..      BNE      0x8005e0a ; xTaskIncrementTick + 78
        0x08005de2:    6860        `h      LDR      r0,[r4,#4]
        0x08005de4:    6800        .h      LDR      r0,[r0,#0]
        0x08005de6:    b138        8.      CBZ      r0,0x8005df8 ; xTaskIncrementTick + 60
        0x08005de8:    2050        P       MOVS     r0,#0x50
        0x08005dea:    f3808811    ....    MSR      BASEPRI,r0
        0x08005dee:    f3bf8f4f    ..O.    DSB      
        0x08005df2:    f3bf8f6f    ..o.    ISB      
        0x08005df6:    e7fe        ..      B        0x8005df6 ; xTaskIncrementTick + 58
        0x08005df8:    6860        `h      LDR      r0,[r4,#4]
        0x08005dfa:    68a1        .h      LDR      r1,[r4,#8]
        0x08005dfc:    6061        a`      STR      r1,[r4,#4]
        0x08005dfe:    60a0        .`      STR      r0,[r4,#8]
        0x08005e00:    6aa0        .j      LDR      r0,[r4,#0x28]
        0x08005e02:    1c40        @.      ADDS     r0,r0,#1
        0x08005e04:    62a0        .b      STR      r0,[r4,#0x28]
        0x08005e06:    f7fefde7    ....    BL       prvResetNextTaskUnblockTime ; 0x80049d8
        0x08005e0a:    6b20         k      LDR      r0,[r4,#0x30]
        0x08005e0c:    f8df8070    ..p.    LDR      r8,[pc,#112] ; [0x8005e80] = 0x20000698
        0x08005e10:    4286        .B      CMP      r6,r0
        0x08005e12:    d309        ..      BCC      0x8005e28 ; xTaskIncrementTick + 108
        0x08005e14:    6860        `h      LDR      r0,[r4,#4]
        0x08005e16:    6800        .h      LDR      r0,[r0,#0]
        0x08005e18:    b180        ..      CBZ      r0,0x8005e3c ; xTaskIncrementTick + 128
        0x08005e1a:    6860        `h      LDR      r0,[r4,#4]
        0x08005e1c:    68c0        .h      LDR      r0,[r0,#0xc]
        0x08005e1e:    68c5        .h      LDR      r5,[r0,#0xc]
        0x08005e20:    6868        hh      LDR      r0,[r5,#4]
        0x08005e22:    4286        .B      CMP      r6,r0
        0x08005e24:    d20d        ..      BCS      0x8005e42 ; xTaskIncrementTick + 134
        0x08005e26:    6320         c      STR      r0,[r4,#0x30]
        0x08005e28:    6820         h      LDR      r0,[r4,#0]
        0x08005e2a:    6ac0        .j      LDR      r0,[r0,#0x2c]
        0x08005e2c:    eb000180    ....    ADD      r1,r0,r0,LSL #2
        0x08005e30:    f8580021    X.!.    LDR      r0,[r8,r1,LSL #2]
        0x08005e34:    2801        .(      CMP      r0,#1
        0x08005e36:    d9ca        ..      BLS      0x8005dce ; xTaskIncrementTick + 18
        0x08005e38:    2701        .'      MOVS     r7,#1
        0x08005e3a:    e7c8        ..      B        0x8005dce ; xTaskIncrementTick + 18
        0x08005e3c:    f04f30ff    O..0    MOV      r0,#0xffffffff
        0x08005e40:    e7f1        ..      B        0x8005e26 ; xTaskIncrementTick + 106
        0x08005e42:    1d28        (.      ADDS     r0,r5,#4
        0x08005e44:    f7fff83c    ..<.    BL       uxListRemove ; 0x8004ec0
        0x08005e48:    6aa8        .j      LDR      r0,[r5,#0x28]
        0x08005e4a:    b118        ..      CBZ      r0,0x8005e54 ; xTaskIncrementTick + 152
        0x08005e4c:    f1050018    ....    ADD      r0,r5,#0x18
        0x08005e50:    f7fff836    ..6.    BL       uxListRemove ; 0x8004ec0
        0x08005e54:    6ae8        .j      LDR      r0,[r5,#0x2c]
        0x08005e56:    69a1        .i      LDR      r1,[r4,#0x18]
        0x08005e58:    4288        .B      CMP      r0,r1
        0x08005e5a:    d900        ..      BLS      0x8005e5e ; xTaskIncrementTick + 162
        0x08005e5c:    61a0        .a      STR      r0,[r4,#0x18]
        0x08005e5e:    eb000180    ....    ADD      r1,r0,r0,LSL #2
        0x08005e62:    eb080081    ....    ADD      r0,r8,r1,LSL #2
        0x08005e66:    1d29        ).      ADDS     r1,r5,#4
        0x08005e68:    f7fff87c    ..|.    BL       vListInsertEnd ; 0x8004f64
        0x08005e6c:    6ae8        .j      LDR      r0,[r5,#0x2c]
        0x08005e6e:    6821        !h      LDR      r1,[r4,#0]
        0x08005e70:    6ac9        .j      LDR      r1,[r1,#0x2c]
        0x08005e72:    4288        .B      CMP      r0,r1
        0x08005e74:    d3ce        ..      BCC      0x8005e14 ; xTaskIncrementTick + 88
        0x08005e76:    2701        .'      MOVS     r7,#1
        0x08005e78:    e7cc        ..      B        0x8005e14 ; xTaskIncrementTick + 88
    $d
        0x08005e7a:    0000        ..      DCW    0
        0x08005e7c:    2000003c    <..     DCD    536870972
        0x08005e80:    20000698    ...     DCD    536872600
    $t
    i.xTaskPriorityDisinherit
    xTaskPriorityDisinherit
        0x08005e84:    b570        p.      PUSH     {r4-r6,lr}
        0x08005e86:    0004        ..      MOVS     r4,r0
        0x08005e88:    f04f0100    O...    MOV      r1,#0
        0x08005e8c:    d033        3.      BEQ      0x8005ef6 ; xTaskPriorityDisinherit + 114
        0x08005e8e:    4d1b        .M      LDR      r5,[pc,#108] ; [0x8005efc] = 0x2000003c
        0x08005e90:    6828        (h      LDR      r0,[r5,#0]
        0x08005e92:    4284        .B      CMP      r4,r0
        0x08005e94:    d007        ..      BEQ      0x8005ea6 ; xTaskPriorityDisinherit + 34
        0x08005e96:    2050        P       MOVS     r0,#0x50
        0x08005e98:    f3808811    ....    MSR      BASEPRI,r0
        0x08005e9c:    f3bf8f4f    ..O.    DSB      
        0x08005ea0:    f3bf8f6f    ..o.    ISB      
        0x08005ea4:    e7fe        ..      B        0x8005ea4 ; xTaskPriorityDisinherit + 32
        0x08005ea6:    6d20         m      LDR      r0,[r4,#0x50]
        0x08005ea8:    b138        8.      CBZ      r0,0x8005eba ; xTaskPriorityDisinherit + 54
        0x08005eaa:    1e40        @.      SUBS     r0,r0,#1
        0x08005eac:    6520         e      STR      r0,[r4,#0x50]
        0x08005eae:    6ce3        .l      LDR      r3,[r4,#0x4c]
        0x08005eb0:    6ae2        .j      LDR      r2,[r4,#0x2c]
        0x08005eb2:    429a        .B      CMP      r2,r3
        0x08005eb4:    d01f        ..      BEQ      0x8005ef6 ; xTaskPriorityDisinherit + 114
        0x08005eb6:    b140        @.      CBZ      r0,0x8005eca ; xTaskPriorityDisinherit + 70
        0x08005eb8:    e01d        ..      B        0x8005ef6 ; xTaskPriorityDisinherit + 114
        0x08005eba:    2050        P       MOVS     r0,#0x50
        0x08005ebc:    f3808811    ....    MSR      BASEPRI,r0
        0x08005ec0:    f3bf8f4f    ..O.    DSB      
        0x08005ec4:    f3bf8f6f    ..o.    ISB      
        0x08005ec8:    e7fe        ..      B        0x8005ec8 ; xTaskPriorityDisinherit + 68
        0x08005eca:    1d20         .      ADDS     r0,r4,#4
        0x08005ecc:    f7fefff8    ....    BL       uxListRemove ; 0x8004ec0
        0x08005ed0:    6ce0        .l      LDR      r0,[r4,#0x4c]
        0x08005ed2:    62e0        .b      STR      r0,[r4,#0x2c]
        0x08005ed4:    f1c00038    ..8.    RSB      r0,r0,#0x38
        0x08005ed8:    61a0        .a      STR      r0,[r4,#0x18]
        0x08005eda:    6ae0        .j      LDR      r0,[r4,#0x2c]
        0x08005edc:    69a9        .i      LDR      r1,[r5,#0x18]
        0x08005ede:    4288        .B      CMP      r0,r1
        0x08005ee0:    d900        ..      BLS      0x8005ee4 ; xTaskPriorityDisinherit + 96
        0x08005ee2:    61a8        .a      STR      r0,[r5,#0x18]
        0x08005ee4:    4906        .I      LDR      r1,[pc,#24] ; [0x8005f00] = 0x20000698
        0x08005ee6:    eb000080    ....    ADD      r0,r0,r0,LSL #2
        0x08005eea:    eb010080    ....    ADD      r0,r1,r0,LSL #2
        0x08005eee:    1d21        !.      ADDS     r1,r4,#4
        0x08005ef0:    f7fff838    ..8.    BL       vListInsertEnd ; 0x8004f64
        0x08005ef4:    2101        .!      MOVS     r1,#1
        0x08005ef6:    4608        .F      MOV      r0,r1
        0x08005ef8:    bd70        p.      POP      {r4-r6,pc}
    $d
        0x08005efa:    0000        ..      DCW    0
        0x08005efc:    2000003c    <..     DCD    536870972
        0x08005f00:    20000698    ...     DCD    536872600
    $t
    i.xTaskPriorityInherit
    xTaskPriorityInherit
        0x08005f04:    b570        p.      PUSH     {r4-r6,lr}
        0x08005f06:    0004        ..      MOVS     r4,r0
        0x08005f08:    f04f0000    O...    MOV      r0,#0
        0x08005f0c:    d02b        +.      BEQ      0x8005f66 ; xTaskPriorityInherit + 98
        0x08005f0e:    4d19        .M      LDR      r5,[pc,#100] ; [0x8005f74] = 0x2000003c
        0x08005f10:    6ae1        .j      LDR      r1,[r4,#0x2c]
        0x08005f12:    682a        *h      LDR      r2,[r5,#0]
        0x08005f14:    6ad2        .j      LDR      r2,[r2,#0x2c]
        0x08005f16:    4291        .B      CMP      r1,r2
        0x08005f18:    d226        &.      BCS      0x8005f68 ; xTaskPriorityInherit + 100
        0x08005f1a:    69a0        .i      LDR      r0,[r4,#0x18]
        0x08005f1c:    2800        .(      CMP      r0,#0
        0x08005f1e:    db04        ..      BLT      0x8005f2a ; xTaskPriorityInherit + 38
        0x08005f20:    6828        (h      LDR      r0,[r5,#0]
        0x08005f22:    6ac0        .j      LDR      r0,[r0,#0x2c]
        0x08005f24:    f1c00038    ..8.    RSB      r0,r0,#0x38
        0x08005f28:    61a0        .a      STR      r0,[r4,#0x18]
        0x08005f2a:    4e13        .N      LDR      r6,[pc,#76] ; [0x8005f78] = 0x20000698
        0x08005f2c:    eb010181    ....    ADD      r1,r1,r1,LSL #2
        0x08005f30:    6960        `i      LDR      r0,[r4,#0x14]
        0x08005f32:    eb060181    ....    ADD      r1,r6,r1,LSL #2
        0x08005f36:    4288        .B      CMP      r0,r1
        0x08005f38:    d111        ..      BNE      0x8005f5e ; xTaskPriorityInherit + 90
        0x08005f3a:    1d20         .      ADDS     r0,r4,#4
        0x08005f3c:    f7feffc0    ....    BL       uxListRemove ; 0x8004ec0
        0x08005f40:    6828        (h      LDR      r0,[r5,#0]
        0x08005f42:    6ac0        .j      LDR      r0,[r0,#0x2c]
        0x08005f44:    62e0        .b      STR      r0,[r4,#0x2c]
        0x08005f46:    69a9        .i      LDR      r1,[r5,#0x18]
        0x08005f48:    4288        .B      CMP      r0,r1
        0x08005f4a:    d900        ..      BLS      0x8005f4e ; xTaskPriorityInherit + 74
        0x08005f4c:    61a8        .a      STR      r0,[r5,#0x18]
        0x08005f4e:    eb000080    ....    ADD      r0,r0,r0,LSL #2
        0x08005f52:    eb060080    ....    ADD      r0,r6,r0,LSL #2
        0x08005f56:    1d21        !.      ADDS     r1,r4,#4
        0x08005f58:    f7fff804    ....    BL       vListInsertEnd ; 0x8004f64
        0x08005f5c:    e002        ..      B        0x8005f64 ; xTaskPriorityInherit + 96
        0x08005f5e:    6828        (h      LDR      r0,[r5,#0]
        0x08005f60:    6ac0        .j      LDR      r0,[r0,#0x2c]
        0x08005f62:    62e0        .b      STR      r0,[r4,#0x2c]
        0x08005f64:    2001        .       MOVS     r0,#1
        0x08005f66:    bd70        p.      POP      {r4-r6,pc}
        0x08005f68:    6ce1        .l      LDR      r1,[r4,#0x4c]
        0x08005f6a:    682a        *h      LDR      r2,[r5,#0]
        0x08005f6c:    6ad2        .j      LDR      r2,[r2,#0x2c]
        0x08005f6e:    4291        .B      CMP      r1,r2
        0x08005f70:    d3f8        ..      BCC      0x8005f64 ; xTaskPriorityInherit + 96
        0x08005f72:    bd70        p.      POP      {r4-r6,pc}
    $d
        0x08005f74:    2000003c    <..     DCD    536870972
        0x08005f78:    20000698    ...     DCD    536872600
    $t
    i.xTaskRemoveFromEventList
    xTaskRemoveFromEventList
        0x08005f7c:    b570        p.      PUSH     {r4-r6,lr}
        0x08005f7e:    68c0        .h      LDR      r0,[r0,#0xc]
        0x08005f80:    68c4        .h      LDR      r4,[r0,#0xc]
        0x08005f82:    b154        T.      CBZ      r4,0x8005f9a ; xTaskRemoveFromEventList + 30
        0x08005f84:    f1040018    ....    ADD      r0,r4,#0x18
        0x08005f88:    4606        .F      MOV      r6,r0
        0x08005f8a:    f7feff99    ....    BL       uxListRemove ; 0x8004ec0
        0x08005f8e:    4d14        .M      LDR      r5,[pc,#80] ; [0x8005fe0] = 0x2000003c
        0x08005f90:    6ba8        .k      LDR      r0,[r5,#0x38]
        0x08005f92:    b150        P.      CBZ      r0,0x8005faa ; xTaskRemoveFromEventList + 46
        0x08005f94:    4631        1F      MOV      r1,r6
        0x08005f96:    4813        .H      LDR      r0,[pc,#76] ; [0x8005fe4] = 0x20000b20
        0x08005f98:    e015        ..      B        0x8005fc6 ; xTaskRemoveFromEventList + 74
        0x08005f9a:    2050        P       MOVS     r0,#0x50
        0x08005f9c:    f3808811    ....    MSR      BASEPRI,r0
        0x08005fa0:    f3bf8f4f    ..O.    DSB      
        0x08005fa4:    f3bf8f6f    ..o.    ISB      
        0x08005fa8:    e7fe        ..      B        0x8005fa8 ; xTaskRemoveFromEventList + 44
        0x08005faa:    1d20         .      ADDS     r0,r4,#4
        0x08005fac:    f7feff88    ....    BL       uxListRemove ; 0x8004ec0
        0x08005fb0:    6ae0        .j      LDR      r0,[r4,#0x2c]
        0x08005fb2:    69a9        .i      LDR      r1,[r5,#0x18]
        0x08005fb4:    4288        .B      CMP      r0,r1
        0x08005fb6:    d900        ..      BLS      0x8005fba ; xTaskRemoveFromEventList + 62
        0x08005fb8:    61a8        .a      STR      r0,[r5,#0x18]
        0x08005fba:    490b        .I      LDR      r1,[pc,#44] ; [0x8005fe8] = 0x20000698
        0x08005fbc:    eb000080    ....    ADD      r0,r0,r0,LSL #2
        0x08005fc0:    eb010080    ....    ADD      r0,r1,r0,LSL #2
        0x08005fc4:    1d21        !.      ADDS     r1,r4,#4
        0x08005fc6:    f7feffcd    ....    BL       vListInsertEnd ; 0x8004f64
        0x08005fca:    6ae0        .j      LDR      r0,[r4,#0x2c]
        0x08005fcc:    6829        )h      LDR      r1,[r5,#0]
        0x08005fce:    6ac9        .j      LDR      r1,[r1,#0x2c]
        0x08005fd0:    4288        .B      CMP      r0,r1
        0x08005fd2:    d902        ..      BLS      0x8005fda ; xTaskRemoveFromEventList + 94
        0x08005fd4:    2001        .       MOVS     r0,#1
        0x08005fd6:    6268        hb      STR      r0,[r5,#0x24]
        0x08005fd8:    bd70        p.      POP      {r4-r6,pc}
        0x08005fda:    2000        .       MOVS     r0,#0
        0x08005fdc:    bd70        p.      POP      {r4-r6,pc}
    $d
        0x08005fde:    0000        ..      DCW    0
        0x08005fe0:    2000003c    <..     DCD    536870972
        0x08005fe4:    20000b20     ..     DCD    536873760
        0x08005fe8:    20000698    ...     DCD    536872600
    $t
    i.xTaskResumeAll
    xTaskResumeAll
        0x08005fec:    e92d47f0    -..G    PUSH     {r4-r10,lr}
        0x08005ff0:    4d2c        ,M      LDR      r5,[pc,#176] ; [0x80060a4] = 0x2000003c
        0x08005ff2:    2400        .$      MOVS     r4,#0
        0x08005ff4:    4627        'F      MOV      r7,r4
        0x08005ff6:    6ba8        .k      LDR      r0,[r5,#0x38]
        0x08005ff8:    b138        8.      CBZ      r0,0x800600a ; xTaskResumeAll + 30
        0x08005ffa:    f7feffbf    ....    BL       vPortEnterCritical ; 0x8004f7c
        0x08005ffe:    6ba8        .k      LDR      r0,[r5,#0x38]
        0x08006000:    1e40        @.      SUBS     r0,r0,#1
        0x08006002:    63a8        .c      STR      r0,[r5,#0x38]
        0x08006004:    6ba8        .k      LDR      r0,[r5,#0x38]
        0x08006006:    b140        @.      CBZ      r0,0x800601a ; xTaskResumeAll + 46
        0x08006008:    e046        F.      B        0x8006098 ; xTaskResumeAll + 172
        0x0800600a:    2050        P       MOVS     r0,#0x50
        0x0800600c:    f3808811    ....    MSR      BASEPRI,r0
        0x08006010:    f3bf8f4f    ..O.    DSB      
        0x08006014:    f3bf8f6f    ..o.    ISB      
        0x08006018:    e7fe        ..      B        0x8006018 ; xTaskResumeAll + 44
        0x0800601a:    6929        )i      LDR      r1,[r5,#0x10]
        0x0800601c:    4e22        "N      LDR      r6,[pc,#136] ; [0x80060a8] = 0x20000b20
        0x0800601e:    2001        .       MOVS     r0,#1
        0x08006020:    b3d1        ..      CBZ      r1,0x8006098 ; xTaskResumeAll + 172
        0x08006022:    f5a66991    ...i    SUB      r9,r6,#0x488
        0x08006026:    4680        .F      MOV      r8,r0
        0x08006028:    6830        0h      LDR      r0,[r6,#0]
        0x0800602a:    b1e0        ..      CBZ      r0,0x8006066 ; xTaskResumeAll + 122
        0x0800602c:    68f0        .h      LDR      r0,[r6,#0xc]
        0x0800602e:    68c4        .h      LDR      r4,[r0,#0xc]
        0x08006030:    f1040018    ....    ADD      r0,r4,#0x18
        0x08006034:    f7feff44    ..D.    BL       uxListRemove ; 0x8004ec0
        0x08006038:    1d20         .      ADDS     r0,r4,#4
        0x0800603a:    f7feff41    ..A.    BL       uxListRemove ; 0x8004ec0
        0x0800603e:    6ae0        .j      LDR      r0,[r4,#0x2c]
        0x08006040:    69a9        .i      LDR      r1,[r5,#0x18]
        0x08006042:    4288        .B      CMP      r0,r1
        0x08006044:    d900        ..      BLS      0x8006048 ; xTaskResumeAll + 92
        0x08006046:    61a8        .a      STR      r0,[r5,#0x18]
        0x08006048:    eb000180    ....    ADD      r1,r0,r0,LSL #2
        0x0800604c:    eb090081    ....    ADD      r0,r9,r1,LSL #2
        0x08006050:    1d21        !.      ADDS     r1,r4,#4
        0x08006052:    f7feff87    ....    BL       vListInsertEnd ; 0x8004f64
        0x08006056:    6ae0        .j      LDR      r0,[r4,#0x2c]
        0x08006058:    6829        )h      LDR      r1,[r5,#0]
        0x0800605a:    6ac9        .j      LDR      r1,[r1,#0x2c]
        0x0800605c:    4288        .B      CMP      r0,r1
        0x0800605e:    d3e3        ..      BCC      0x8006028 ; xTaskResumeAll + 60
        0x08006060:    f8c58024    ..$.    STR      r8,[r5,#0x24]
        0x08006064:    e7e0        ..      B        0x8006028 ; xTaskResumeAll + 60
        0x08006066:    b10c        ..      CBZ      r4,0x800606c ; xTaskResumeAll + 128
        0x08006068:    f7fefcb6    ....    BL       prvResetNextTaskUnblockTime ; 0x80049d8
        0x0800606c:    6a2c        ,j      LDR      r4,[r5,#0x20]
        0x0800606e:    b14c        L.      CBZ      r4,0x8006084 ; xTaskResumeAll + 152
        0x08006070:    ea4f0608    O...    MOV.W    r6,r8
        0x08006074:    f7fffea2    ....    BL       xTaskIncrementTick ; 0x8005dbc
        0x08006078:    b100        ..      CBZ      r0,0x800607c ; xTaskResumeAll + 144
        0x0800607a:    626e        nb      STR      r6,[r5,#0x24]
        0x0800607c:    1e64        d.      SUBS     r4,r4,#1
        0x0800607e:    d1f9        ..      BNE      0x8006074 ; xTaskResumeAll + 136
        0x08006080:    2000        .       MOVS     r0,#0
        0x08006082:    6228        (b      STR      r0,[r5,#0x20]
        0x08006084:    6a68        hj      LDR      r0,[r5,#0x24]
        0x08006086:    b138        8.      CBZ      r0,0x8006098 ; xTaskResumeAll + 172
        0x08006088:    4908        .I      LDR      r1,[pc,#32] ; [0x80060ac] = 0xe000ed04
        0x0800608a:    2701        .'      MOVS     r7,#1
        0x0800608c:    0738        8.      LSLS     r0,r7,#28
        0x0800608e:    6008        .`      STR      r0,[r1,#0]
        0x08006090:    f3bf8f4f    ..O.    DSB      
        0x08006094:    f3bf8f6f    ..o.    ISB      
        0x08006098:    f7feff90    ....    BL       vPortExitCritical ; 0x8004fbc
        0x0800609c:    4638        8F      MOV      r0,r7
        0x0800609e:    e8bd87f0    ....    POP      {r4-r10,pc}
    $d
        0x080060a2:    0000        ..      DCW    0
        0x080060a4:    2000003c    <..     DCD    536870972
        0x080060a8:    20000b20     ..     DCD    536873760
        0x080060ac:    e000ed04    ....    DCD    3758157060
    $t
    i.xTimerCreateTimerTask
    xTimerCreateTimerTask
        0x080060b0:    b510        ..      PUSH     {r4,lr}
        0x080060b2:    b086        ..      SUB      sp,sp,#0x18
        0x080060b4:    f7fefa2e    ....    BL       prvCheckForValidListAndQueue ; 0x8004514
        0x080060b8:    4c11        .L      LDR      r4,[pc,#68] ; [0x8006100] = 0x20000078
        0x080060ba:    68a0        .h      LDR      r0,[r4,#8]
        0x080060bc:    b1b8        ..      CBZ      r0,0x80060ee ; xTimerCreateTimerTask + 62
        0x080060be:    2000        .       MOVS     r0,#0
        0x080060c0:    9003        ..      STR      r0,[sp,#0xc]
        0x080060c2:    9004        ..      STR      r0,[sp,#0x10]
        0x080060c4:    aa05        ..      ADD      r2,sp,#0x14
        0x080060c6:    a904        ..      ADD      r1,sp,#0x10
        0x080060c8:    a803        ..      ADD      r0,sp,#0xc
        0x080060ca:    f7feff19    ....    BL       vApplicationGetTimerTaskMemory ; 0x8004f00
        0x080060ce:    e9dd2103    ...!    LDRD     r2,r1,[sp,#0xc]
        0x080060d2:    2002        .       MOVS     r0,#2
        0x080060d4:    e88d0007    ....    STM      sp,{r0-r2}
        0x080060d8:    2300        .#      MOVS     r3,#0
        0x080060da:    a10a        ..      ADR      r1,{pc}+0x2a ; 0x8006104
        0x080060dc:    480b        .H      LDR      r0,[pc,#44] ; [0x800610c] = 0x8004ae9
        0x080060de:    9a05        ..      LDR      r2,[sp,#0x14]
        0x080060e0:    f7fffe2d    ..-.    BL       xTaskCreateStatic ; 0x8005d3e
        0x080060e4:    60e0        .`      STR      r0,[r4,#0xc]
        0x080060e6:    b110        ..      CBZ      r0,0x80060ee ; xTimerCreateTimerTask + 62
        0x080060e8:    b006        ..      ADD      sp,sp,#0x18
        0x080060ea:    2001        .       MOVS     r0,#1
        0x080060ec:    bd10        ..      POP      {r4,pc}
        0x080060ee:    2050        P       MOVS     r0,#0x50
        0x080060f0:    f3808811    ....    MSR      BASEPRI,r0
        0x080060f4:    f3bf8f4f    ..O.    DSB      
        0x080060f8:    f3bf8f6f    ..o.    ISB      
        0x080060fc:    e7fe        ..      B        0x80060fc ; xTimerCreateTimerTask + 76
    $d
        0x080060fe:    0000        ..      DCW    0
        0x08006100:    20000078    x..     DCD    536871032
        0x08006104:    20726d54    Tmr     DCD    544370004
        0x08006108:    00637653    Svc.    DCD    6518355
        0x0800610c:    08004ae9    .J..    DCD    134236905
    $t
    i.xTimerGenericCommand
    xTimerGenericCommand
        0x08006110:    e92d41ff    -..A    PUSH     {r0-r8,lr}
        0x08006114:    461e        .F      MOV      r6,r3
        0x08006116:    4613        .F      MOV      r3,r2
        0x08006118:    0002        ..      MOVS     r2,r0
        0x0800611a:    9d0a        ..      LDR      r5,[sp,#0x28]
        0x0800611c:    f04f0000    O...    MOV      r0,#0
        0x08006120:    d016        ..      BEQ      0x8006150 ; xTimerGenericCommand + 64
        0x08006122:    4c14        .L      LDR      r4,[pc,#80] ; [0x8006174] = 0x20000078
        0x08006124:    68a7        .h      LDR      r7,[r4,#8]
        0x08006126:    2f00        ./      CMP      r7,#0
        0x08006128:    d00f        ..      BEQ      0x800614a ; xTimerGenericCommand + 58
        0x0800612a:    e9cd1300    ....    STRD     r1,r3,[sp,#0]
        0x0800612e:    9202        ..      STR      r2,[sp,#8]
        0x08006130:    2906        .)      CMP      r1,#6
        0x08006132:    da17        ..      BGE      0x8006164 ; xTimerGenericCommand + 84
        0x08006134:    f7fffe2e    ....    BL       xTaskGetSchedulerState ; 0x8005d94
        0x08006138:    2802        .(      CMP      r0,#2
        0x0800613a:    f04f0300    O...    MOV      r3,#0
        0x0800613e:    d00f        ..      BEQ      0x8006160 ; xTimerGenericCommand + 80
        0x08006140:    2200        ."      MOVS     r2,#0
        0x08006142:    4669        iF      MOV      r1,sp
        0x08006144:    68a0        .h      LDR      r0,[r4,#8]
        0x08006146:    f7fffb2d    ..-.    BL       xQueueGenericSend ; 0x80057a4
        0x0800614a:    b004        ..      ADD      sp,sp,#0x10
        0x0800614c:    e8bd81f0    ....    POP      {r4-r8,pc}
        0x08006150:    2050        P       MOVS     r0,#0x50
        0x08006152:    f3808811    ....    MSR      BASEPRI,r0
        0x08006156:    f3bf8f4f    ..O.    DSB      
        0x0800615a:    f3bf8f6f    ..o.    ISB      
        0x0800615e:    e7fe        ..      B        0x800615e ; xTimerGenericCommand + 78
        0x08006160:    462a        *F      MOV      r2,r5
        0x08006162:    e7ee        ..      B        0x8006142 ; xTimerGenericCommand + 50
        0x08006164:    2300        .#      MOVS     r3,#0
        0x08006166:    4632        2F      MOV      r2,r6
        0x08006168:    4669        iF      MOV      r1,sp
        0x0800616a:    4638        8F      MOV      r0,r7
        0x0800616c:    f7fffbca    ....    BL       xQueueGenericSendFromISR ; 0x8005904
        0x08006170:    e7eb        ..      B        0x800614a ; xTimerGenericCommand + 58
    $d
        0x08006172:    0000        ..      DCW    0
        0x08006174:    20000078    x..     DCD    536871032
    $d.realdata
    .constdata
        0x08006178:    73696874    this    DCD    1936287860
        0x0800617c:    20736920     is     DCD    544434464
        0x08006180:    656d2061    a me    DCD    1701650529
        0x08006184:    67617373    ssag    DCD    1734439795
        0x08006188:    6f662065    e fo    DCD    1868963941
        0x0800618c:    65742072    r te    DCD    1702109298
        0x08006190:    00007473    st..    DCD    29811
        0x08006194:    00000000    ....    DCD    0
        0x08006198:    00000000    ....    DCD    0
        0x0800619c:    00000000    ....    DCD    0
    .constdata
    MyTask_attributes
        0x080061a0:    080064fc    .d..    DCD    134243580
        0x080061a4:    00000000    ....    DCD    0
        0x080061a8:    00000000    ....    DCD    0
        0x080061ac:    00000000    ....    DCD    0
        0x080061b0:    00000000    ....    DCD    0
        0x080061b4:    00000800    ....    DCD    2048
        0x080061b8:    00000005    ....    DCD    5
        0x080061bc:    00000000    ....    DCD    0
        0x080061c0:    00000000    ....    DCD    0
    .constdata
    AHBPrescTable
        0x080061c4:    00000000    ....    DCD    0
        0x080061c8:    00000000    ....    DCD    0
        0x080061cc:    04030201    ....    DCD    67305985
        0x080061d0:    09080706    ....    DCD    151521030
    .constdata
    APBPrescTable
        0x080061d4:    00000000    ....    DCD    0
        0x080061d8:    04030201    ....    DCD    67305985
    .constdata
    __FUNCTION__
        0x080061dc:    61666564    defa    DCD    1634100580
        0x080061e0:    5f746c75    ult_    DCD    1601465461
        0x080061e4:    5f67736d    msg_    DCD    1600615277
        0x080061e8:    646e6168    hand    DCD    1684955496
        0x080061ec:    0072656c    ler.    DCD    7497068
    __FUNCTION__
        0x080061f0:    7474716d    mqtt    DCD    1953788269
        0x080061f4:    6b63615f    _ack    DCD    1801675103
        0x080061f8:    6e61685f    _han    DCD    1851877471
        0x080061fc:    72656c64    dler    DCD    1919249508
        0x08006200:    7365725f    _res    DCD    1936028255
        0x08006204:    00646e65    end.    DCD    6581861
    __FUNCTION__
        0x08006208:    7474716d    mqtt    DCD    1953788269
        0x0800620c:    67736d5f    _msg    DCD    1735617887
        0x08006210:    6e61685f    _han    DCD    1851877471
        0x08006214:    72656c64    dler    DCD    1919249508
        0x08006218:    5f73695f    _is_    DCD    1601399135
        0x0800621c:    73697865    exis    DCD    1936291941
        0x08006220:    0074        t.      DCW    116
    __FUNCTION__
        0x08006222:    716d        mq      DCW    29037
        0x08006224:    635f7474    tt_c    DCD    1667200116
        0x08006228:    6e61656c    lean    DCD    1851876716
        0x0800622c:    7365735f    _ses    DCD    1936028511
        0x08006230:    6e6f6973    sion    DCD    1852795251
        0x08006234:    00          .       DCB    0
    __FUNCTION__
        0x08006235:    6d7174      mqt     DCB    109,113,116
        0x08006238:    72745f74    t_tr    DCD    1920229236
        0x0800623c:    65725f79    y_re    DCD    1701994361
        0x08006240:    73627573    subs    DCD    1935832435
        0x08006244:    62697263    crib    DCD    1651077731
        0x08006248:    0065        e.      DCW    101
    __FUNCTION__
        0x0800624a:    716d        mq      DCW    29037
        0x0800624c:    745f7474    tt_t    DCD    1952412788
        0x08006250:    645f7972    ry_d    DCD    1683978610
        0x08006254:    65725f6f    o_re    DCD    1701994351
        0x08006258:    6e6e6f63    conn    DCD    1852731235
        0x0800625c:    00746365    ect.    DCD    7627621
    __FUNCTION__
        0x08006260:    7474716d    mqtt    DCD    1953788269
        0x08006264:    6569795f    _yie    DCD    1701411167
        0x08006268:    646c        ld      DCW    25708
        0x0800626a:    00          .       DCB    0
    __FUNCTION__
        0x0800626b:    6d          m       DCB    109
        0x0800626c:    5f747471    qtt_    DCD    1601467505
        0x08006270:    6c656979    yiel    DCD    1818585465
        0x08006274:    68745f64    d_th    DCD    1752457060
        0x08006278:    64616572    read    DCD    1684104562
        0x0800627c:    00          .       DCB    0
    __FUNCTION__
        0x0800627d:    6d7174      mqt     DCB    109,113,116
        0x08006280:    6f635f74    t_co    DCD    1868783476
        0x08006284:    63656e6e    nnec    DCD    1667591790
        0x08006288:    69775f74    t_wi    DCD    1769430900
        0x0800628c:    725f6874    th_r    DCD    1918855284
        0x08006290:    6c757365    esul    DCD    1819636581
        0x08006294:    00007374    ts..    DCD    29556
        0x08006298:    4354514d    MQTC    DCD    1129599309
        0x0800629c:    00000000    ....    DCD    0
        0x080062a0:    00000004    ....    DCD    4
        0x080062a4:    00000000    ....    DCD    0
        0x080062a8:    00000000    ....    DCD    0
        0x080062ac:    00000000    ....    DCD    0
        0x080062b0:    0001003c    <...    DCD    65596
        0x080062b4:    5754514d    MQTW    DCD    1465143629
        0x080062b8:    00000000    ....    DCD    0
        0x080062bc:    00000000    ....    DCD    0
        0x080062c0:    00000000    ....    DCD    0
        0x080062c4:    00000000    ....    DCD    0
        0x080062c8:    00000000    ....    DCD    0
        0x080062cc:    00000000    ....    DCD    0
        0x080062d0:    00000000    ....    DCD    0
        0x080062d4:    00000000    ....    DCD    0
        0x080062d8:    00000000    ....    DCD    0
        0x080062dc:    00000000    ....    DCD    0
        0x080062e0:    00000000    ....    DCD    0
        0x080062e4:    00000000    ....    DCD    0
        0x080062e8:    00000000    ....    DCD    0
        0x080062ec:    00000000    ....    DCD    0
    __FUNCTION__
        0x080062f0:    7474716d    mqtt    DCD    1953788269
        0x080062f4:    696e695f    _ini    DCD    1768843615
        0x080062f8:    0074        t.      DCW    116
    __FUNCTION__
        0x080062fa:    716d        mq      DCW    29037
        0x080062fc:    735f7474    tt_s    DCD    1935635572
        0x08006300:    635f7465    et_c    DCD    1667200101
        0x08006304:    6e65696c    lien    DCD    1852139884
        0x08006308:    64695f74    t_id    DCD    1684627316
        0x0800630c:    00          .       DCB    0
    __FUNCTION__
        0x0800630d:    6d7174      mqt     DCB    109,113,116
        0x08006310:    65735f74    t_se    DCD    1702059892
        0x08006314:    73755f74    t_us    DCD    1937071988
        0x08006318:    6e5f7265    er_n    DCD    1851748965
        0x0800631c:    00656d61    ame.    DCD    6647137
    __FUNCTION__
        0x08006320:    7474716d    mqtt    DCD    1953788269
        0x08006324:    7465735f    _set    DCD    1952805727
        0x08006328:    7361705f    _pas    DCD    1935765599
        0x0800632c:    726f7773    swor    DCD    1919907699
        0x08006330:    0064        d.      DCW    100
    __FUNCTION__
        0x08006332:    716d        mq      DCW    29037
        0x08006334:    735f7474    tt_s    DCD    1935635572
        0x08006338:    685f7465    et_h    DCD    1751086181
        0x0800633c:    0074736f    ost.    DCD    7631727
    __FUNCTION__
        0x08006340:    7474716d    mqtt    DCD    1953788269
        0x08006344:    7465735f    _set    DCD    1952805727
        0x08006348:    726f705f    _por    DCD    1919905887
        0x0800634c:    0074        t.      DCW    116
    __FUNCTION__
        0x0800634e:    716d        mq      DCW    29037
        0x08006350:    735f7474    tt_s    DCD    1935635572
        0x08006354:    635f7465    et_c    DCD    1667200101
        0x08006358:    0061        a.      DCW    97
    __FUNCTION__
        0x0800635a:    716d        mq      DCW    29037
        0x0800635c:    735f7474    tt_s    DCD    1935635572
        0x08006360:    725f7465    et_r    DCD    1918858341
        0x08006364:    6e6f6365    econ    DCD    1852793701
        0x08006368:    7463656e    nect    DCD    1952671086
        0x0800636c:    7461645f    _dat    DCD    1952539743
        0x08006370:    0061        a.      DCW    97
    __FUNCTION__
        0x08006372:    716d        mq      DCW    29037
        0x08006374:    735f7474    tt_s    DCD    1935635572
        0x08006378:    6b5f7465    et_k    DCD    1801417829
        0x0800637c:    5f706565    eep_    DCD    1601201509
        0x08006380:    76696c61    aliv    DCD    1986620513
        0x08006384:    6e695f65    e_in    DCD    1852399461
        0x08006388:    76726574    terv    DCD    1987208564
        0x0800638c:    6c61        al      DCW    27745
        0x0800638e:    00          .       DCB    0
    __FUNCTION__
        0x0800638f:    6d          m       DCB    109
        0x08006390:    5f747471    qtt_    DCD    1601467505
        0x08006394:    5f746573    set_    DCD    1601463667
        0x08006398:    6c6c6977    will    DCD    1819044215
        0x0800639c:    616c665f    _fla    DCD    1634494047
        0x080063a0:    0067        g.      DCW    103
    __FUNCTION__
        0x080063a2:    716d        mq      DCW    29037
        0x080063a4:    735f7474    tt_s    DCD    1935635572
        0x080063a8:    635f7465    et_c    DCD    1667200101
        0x080063ac:    6e61656c    lean    DCD    1851876716
        0x080063b0:    7365735f    _ses    DCD    1936028511
        0x080063b4:    6e6f6973    sion    DCD    1852795251
        0x080063b8:    00          .       DCB    0
    __FUNCTION__
        0x080063b9:    6d7174      mqt     DCB    109,113,116
        0x080063bc:    65735f74    t_se    DCD    1702059892
        0x080063c0:    65765f74    t_ve    DCD    1702256500
        0x080063c4:    6f697372    rsio    DCD    1869181810
        0x080063c8:    006e        n.      DCW    110
    __FUNCTION__
        0x080063ca:    716d        mq      DCW    29037
        0x080063cc:    735f7474    tt_s    DCD    1935635572
        0x080063d0:    635f7465    et_c    DCD    1667200101
        0x080063d4:    745f646d    md_t    DCD    1952408685
        0x080063d8:    6f656d69    imeo    DCD    1868918121
        0x080063dc:    7475        ut      DCW    29813
        0x080063de:    00          .       DCB    0
    __FUNCTION__
        0x080063df:    6d          m       DCB    109
        0x080063e0:    5f747471    qtt_    DCD    1601467505
        0x080063e4:    5f746573    set_    DCD    1601463667
        0x080063e8:    64616572    read    DCD    1684104562
        0x080063ec:    6675625f    _buf    DCD    1718968927
        0x080063f0:    7a69735f    _siz    DCD    2053731167
        0x080063f4:    0065        e.      DCW    101
    __FUNCTION__
        0x080063f6:    716d        mq      DCW    29037
        0x080063f8:    735f7474    tt_s    DCD    1935635572
        0x080063fc:    775f7465    et_w    DCD    2002744421
        0x08006400:    65746972    rite    DCD    1702127986
        0x08006404:    6675625f    _buf    DCD    1718968927
        0x08006408:    7a69735f    _siz    DCD    2053731167
        0x0800640c:    0065        e.      DCW    101
    __FUNCTION__
        0x0800640e:    716d        mq      DCW    29037
        0x08006410:    735f7474    tt_s    DCD    1935635572
        0x08006414:    725f7465    et_r    DCD    1918858341
        0x08006418:    6e6f6365    econ    DCD    1852793701
        0x0800641c:    7463656e    nect    DCD    1952671086
        0x08006420:    7972745f    _try    DCD    2037544031
        0x08006424:    7275645f    _dur    DCD    1920296031
        0x08006428:    6f697461    atio    DCD    1869182049
        0x0800642c:    006e        n.      DCW    110
    __FUNCTION__
        0x0800642e:    716d        mq      DCW    29037
        0x08006430:    735f7474    tt_s    DCD    1935635572
        0x08006434:    725f7465    et_r    DCD    1918858341
        0x08006438:    6e6f6365    econ    DCD    1852793701
        0x0800643c:    7463656e    nect    DCD    1952671086
        0x08006440:    6e61685f    _han    DCD    1851877471
        0x08006444:    72656c64    dler    DCD    1919249508
        0x08006448:    00          .       DCB    0
    __FUNCTION__
        0x08006449:    6d7174      mqt     DCB    109,113,116
        0x0800644c:    65735f74    t_se    DCD    1702059892
        0x08006450:    6e695f74    t_in    DCD    1852399476
        0x08006454:    63726574    terc    DCD    1668441460
        0x08006458:    6f747065    epto    DCD    1869901925
        0x0800645c:    61685f72    r_ha    DCD    1634230130
        0x08006460:    656c646e    ndle    DCD    1701602414
        0x08006464:    0072        r.      DCW    114
    __FUNCTION__
        0x08006466:    716d        mq      DCW    29037
        0x08006468:    6b5f7474    tt_k    DCD    1801417844
        0x0800646c:    5f706565    eep_    DCD    1601201509
        0x08006470:    76696c61    aliv    DCD    1986620513
        0x08006474:    0065        e.      DCW    101
    __FUNCTION__
        0x08006476:    716d        mq      DCW    29037
        0x08006478:    725f7474    tt_r    DCD    1918858356
        0x0800647c:    61656c65    elea    DCD    1634036837
        0x08006480:    6573        se      DCW    25971
        0x08006482:    00          .       DCB    0
    __FUNCTION__
        0x08006483:    6d          m       DCB    109
        0x08006484:    5f747471    qtt_    DCD    1601467505
        0x08006488:    6c627570    publ    DCD    1818391920
        0x0800648c:    00687369    ish.    DCD    6845289
    __FUNCTION__
        0x08006490:    7474716d    mqtt    DCD    1953788269
        0x08006494:    73696c5f    _lis    DCD    1936288863
        0x08006498:    75735f74    t_su    DCD    1970495348
        0x0800649c:    72637362    bscr    DCD    1919120226
        0x080064a0:    5f656269    ibe_    DCD    1600479849
        0x080064a4:    69706f74    topi    DCD    1768976244
        0x080064a8:    0063        c.      DCW    99
    __FUNCTION__
        0x080064aa:    716d        mq      DCW    29037
        0x080064ac:    735f7474    tt_s    DCD    1935635572
        0x080064b0:    775f7465    et_w    DCD    2002744421
        0x080064b4:    5f6c6c69    ill_    DCD    1600941161
        0x080064b8:    6974706f    opti    DCD    1769238639
        0x080064bc:    00736e6f    ons.    DCD    7564911
    .constdata
    uc_hextab
        0x080064c0:    33323130    0123    DCD    858927408
        0x080064c4:    37363534    4567    DCD    926299444
        0x080064c8:    42413938    89AB    DCD    1111570744
        0x080064cc:    46454443    CDEF    DCD    1178944579
        0x080064d0:    00583040    @0X.    DCD    5779520
    lc_hextab
        0x080064d4:    33323130    0123    DCD    858927408
        0x080064d8:    37363534    4567    DCD    926299444
        0x080064dc:    62613938    89ab    DCD    1650538808
        0x080064e0:    66656463    cdef    DCD    1717920867
        0x080064e4:    00783040    @0x.    DCD    7876672
    .constdata
    maptable
        0x080064e8:    08000004    ....    DCD    134217732
        0x080064ec:    00000000    ....    DCD    0
        0x080064f0:    02000000    ....    DCD    33554432
        0x080064f4:    00000100    ....    DCD    256
        0x080064f8:    00000010    ....    DCD    16
    .conststring
        0x080064fc:    6154794d    MyTa    DCD    1632926029
        0x08006500:    00006b73    sk..    DCD    27507
    .conststring
        0x08006504:    253a7325    %s:%    DCD    624587557
        0x08006508:    73252064    d %s    DCD    1931812964
        0x0800650c:    2e2e2928    ()..    DCD    774777128
        0x08006510:    67736d2e    .msg    DCD    1735617838
        0x08006514:    6e61685f    _han    DCD    1851877471
        0x08006518:    72656c64    dler    DCD    1919249508
        0x0800651c:    6f743e2d    ->to    DCD    1869889069
        0x08006520:    5f636970    pic_    DCD    1600350576
        0x08006524:    746c6966    filt    DCD    1953261926
        0x08006528:    203a7265    er:     DCD    540701285
        0x0800652c:    202c7325    %s,     DCD    539783973
        0x08006530:    646e6168    hand    DCD    1684955496
        0x08006534:    2d72656c    ler-    DCD    762471788
        0x08006538:    706f743e    >top    DCD    1886352446
        0x0800653c:    665f6369    ic_f    DCD    1717527401
        0x08006540:    65746c69    ilte    DCD    1702128745
        0x08006544:    25203a72    r: %    DCD    622869106
        0x08006548:    00000073    s...    DCD    115
    Region$$Table$$Base
        0x0800654c:    0800656c    le..    DCD    134243692
        0x08006550:    20000000    ...     DCD    536870912
        0x08006554:    000000c0    ....    DCD    192
        0x08006558:    08000128    (...    DCD    134218024
        0x0800655c:    0800662c    ,f..    DCD    134243884
        0x08006560:    200000c0    ...     DCD    536871104
        0x08006564:    00004bb0    .K..    DCD    19376
        0x08006568:    08000144    D...    DCD    134218052
    Region$$Table$$Limit

** Section #2 'RW_IRAM1' (SHT_PROGBITS) [SHF_ALLOC + SHF_WRITE]
    Size   : 192 bytes (alignment 4)
    Address: 0x20000000


** Section #3 'RW_IRAM1' (SHT_NOBITS) [SHF_ALLOC + SHF_WRITE]
    Size   : 19376 bytes (alignment 8)
    Address: 0x200000c0


** Section #4 '.debug_abbrev' (SHT_PROGBITS)
    Size   : 1476 bytes


** Section #5 '.debug_frame' (SHT_PROGBITS)
    Size   : 8448 bytes


** Section #6 '.debug_info' (SHT_PROGBITS)
    Size   : 164928 bytes


** Section #7 '.debug_line' (SHT_PROGBITS)
    Size   : 60520 bytes


** Section #8 '.debug_loc' (SHT_PROGBITS)
    Size   : 28072 bytes


** Section #9 '.debug_macinfo' (SHT_PROGBITS)
    Size   : 492252 bytes


** Section #10 '.debug_pubnames' (SHT_PROGBITS)
    Size   : 9368 bytes


** Section #11 '.symtab' (SHT_SYMTAB)
    Size   : 22160 bytes (alignment 4)
    String table #12 '.strtab'
    Last local symbol no. 1007


** Section #12 '.strtab' (SHT_STRTAB)
    Size   : 20544 bytes


** Section #13 '.note' (SHT_NOTE)
    Size   : 28 bytes (alignment 4)


** Section #14 '.comment' (SHT_PROGBITS)
    Size   : 74952 bytes


** Section #15 '.shstrtab' (SHT_STRTAB)
    Size   : 156 bytes


address     size       variable name                            type
0x200000bc  0x4        bufptr                                   pointer to unsigned char

address     size       variable name                            type
0x200000b8  0x4        last_seed                                unsigned int

address     size       variable name                            type
0x200000b4  0x4        g_remain_len                             int

address     size       variable name                            type
0x200000a8  0x1        ucMaxSysCallPriority                     uint8_t

address     size       variable name                            type
0x200000b0  0x4        ulMaxPRIGROUPValue                       uint32_t

address     size       variable name                            type
0x200000ac  0x4        uxCriticalNesting                        UBaseType_t

address     size       variable name                            type
0x20000090  0x4        pxEnd                                    pointer to BlockLink_t

address     size       variable name                            type
0x2000192c  0x2c00     ucHeap                                   array[11264] of uint8_t

address     size       variable name                            type
0x2000009c  0x4        xBlockAllocatedBit                       size_t

address     size       variable name                            type
0x20000094  0x4        xFreeBytesRemaining                      size_t

address     size       variable name                            type
0x20000098  0x4        xMinimumEverFreeBytesRemaining           size_t

address     size       variable name                            type
0x200000a0  0x8        xStart                                   BlockLink_t
0x200000a0  0x4        xStart.pxNextFreeBlock                   pointer to A_BLOCK_LINK
0x200000a4  0x4        xStart.xBlockSize                        size_t

address     size       variable name                            type
0x20000cd0  0x800      Idle_Stack                               array[512] of StackType_t

address     size       variable name                            type
0x20000c74  0x5c       Idle_TCB                                 StaticTask_t
0x20000c74  0x4        Idle_TCB.pxDummy1                        pointer to unknown Type 
0x20000c78  0x28       Idle_TCB.xDummy3                         array[2] of StaticListItem_t
0x20000ca0  0x4        Idle_TCB.uxDummy5                        UBaseType_t
0x20000ca4  0x4        Idle_TCB.pxDummy6                        pointer to unknown Type 
0x20000ca8  0x10       Idle_TCB.ucDummy7                        array[16] of uint8_t
0x20000cb8  0x8        Idle_TCB.uxDummy10                       array[2] of UBaseType_t
0x20000cc0  0x8        Idle_TCB.uxDummy12                       array[2] of UBaseType_t
0x20000cc8  0x4        Idle_TCB.ulDummy18                       uint32_t
0x20000ccc  0x1        Idle_TCB.ucDummy19                       uint8_t
0x20000ccd  0x1        Idle_TCB.uxDummy20                       uint8_t

address     size       variable name                            type
0x2000008c  0x4        KernelState                              osKernelState_t

address     size       variable name                            type
0x2000152c  0x400      Timer_Stack                              array[256] of StackType_t

address     size       variable name                            type
0x200014d0  0x5c       Timer_TCB                                StaticTask_t
0x200014d0  0x4        Timer_TCB.pxDummy1                       pointer to unknown Type 
0x200014d4  0x28       Timer_TCB.xDummy3                        array[2] of StaticListItem_t
0x200014fc  0x4        Timer_TCB.uxDummy5                       UBaseType_t
0x20001500  0x4        Timer_TCB.pxDummy6                       pointer to unknown Type 
0x20001504  0x10       Timer_TCB.ucDummy7                       array[16] of uint8_t
0x20001514  0x8        Timer_TCB.uxDummy10                      array[2] of UBaseType_t
0x2000151c  0x8        Timer_TCB.uxDummy12                      array[2] of UBaseType_t
0x20001524  0x4        Timer_TCB.ulDummy18                      uint32_t
0x20001528  0x1        Timer_TCB.ucDummy19                      uint8_t
0x20001529  0x1        Timer_TCB.uxDummy20                      uint8_t

address     size       variable name                            type
0x20000078  0x4        pxCurrentTimerList                       pointer to List_t

address     size       variable name                            type
0x2000007c  0x4        pxOverflowTimerList                      pointer to List_t

address     size       variable name                            type
0x20000b5c  0x14       xActiveTimerList1                        List_t
0x20000b5c  0x4        xActiveTimerList1.uxNumberOfItems        volatile UBaseType_t
0x20000b60  0x4        xActiveTimerList1.pxIndex                pointer to ListItem_t
0x20000b64  0xc        xActiveTimerList1.xListEnd               MiniListItem_t
0x20000b64  0x4        xActiveTimerList1.xListEnd.xItemValue    TickType_t
0x20000b68  0x4        xActiveTimerList1.xListEnd.pxNext        pointer to xLIST_ITEM
0x20000b6c  0x4        xActiveTimerList1.xListEnd.pxPrevious    pointer to xLIST_ITEM

address     size       variable name                            type
0x20000b70  0x14       xActiveTimerList2                        List_t
0x20000b70  0x4        xActiveTimerList2.uxNumberOfItems        volatile UBaseType_t
0x20000b74  0x4        xActiveTimerList2.pxIndex                pointer to ListItem_t
0x20000b78  0xc        xActiveTimerList2.xListEnd               MiniListItem_t
0x20000b78  0x4        xActiveTimerList2.xListEnd.xItemValue    TickType_t
0x20000b7c  0x4        xActiveTimerList2.xListEnd.pxNext        pointer to xLIST_ITEM
0x20000b80  0x4        xActiveTimerList2.xListEnd.pxPrevious    pointer to xLIST_ITEM

address     size       variable name                            type
0x20000080  0x4        xTimerQueue                              QueueHandle_t

address     size       variable name                            type
0x20000084  0x4        xTimerTaskHandle                         TaskHandle_t

address     size       variable name                            type
0x2000003c  0x4        pxCurrentTCB                             volatile pointer to TCB_t

address     size       variable name                            type
0x20000040  0x4        pxDelayedTaskList                        volatile pointer to List_t

address     size       variable name                            type
0x20000044  0x4        pxOverflowDelayedTaskList                volatile pointer to List_t

address     size       variable name                            type
0x20000698  0x460      pxReadyTasksLists                        array[56] of List_t

address     size       variable name                            type
0x2000004c  0x4        uxCurrentNumberOfTasks                   volatile UBaseType_t

address     size       variable name                            type
0x20000048  0x4        uxDeletedTasksWaitingCleanUp             volatile UBaseType_t

address     size       variable name                            type
0x2000005c  0x4        uxPendedTicks                            volatile UBaseType_t

address     size       variable name                            type
0x20000074  0x4        uxSchedulerSuspended                     volatile UBaseType_t

address     size       variable name                            type
0x20000068  0x4        uxTaskNumber                             UBaseType_t

address     size       variable name                            type
0x20000054  0x4        uxTopReadyPriority                       volatile UBaseType_t

address     size       variable name                            type
0x20000af8  0x14       xDelayedTaskList1                        List_t
0x20000af8  0x4        xDelayedTaskList1.uxNumberOfItems        volatile UBaseType_t
0x20000afc  0x4        xDelayedTaskList1.pxIndex                pointer to ListItem_t
0x20000b00  0xc        xDelayedTaskList1.xListEnd               MiniListItem_t
0x20000b00  0x4        xDelayedTaskList1.xListEnd.xItemValue    TickType_t
0x20000b04  0x4        xDelayedTaskList1.xListEnd.pxNext        pointer to xLIST_ITEM
0x20000b08  0x4        xDelayedTaskList1.xListEnd.pxPrevious    pointer to xLIST_ITEM

address     size       variable name                            type
0x20000b0c  0x14       xDelayedTaskList2                        List_t
0x20000b0c  0x4        xDelayedTaskList2.uxNumberOfItems        volatile UBaseType_t
0x20000b10  0x4        xDelayedTaskList2.pxIndex                pointer to ListItem_t
0x20000b14  0xc        xDelayedTaskList2.xListEnd               MiniListItem_t
0x20000b14  0x4        xDelayedTaskList2.xListEnd.xItemValue    TickType_t
0x20000b18  0x4        xDelayedTaskList2.xListEnd.pxNext        pointer to xLIST_ITEM
0x20000b1c  0x4        xDelayedTaskList2.xListEnd.pxPrevious    pointer to xLIST_ITEM

address     size       variable name                            type
0x20000070  0x4        xIdleTaskHandle                          TaskHandle_t

address     size       variable name                            type
0x2000006c  0x4        xNextTaskUnblockTime                     volatile TickType_t

address     size       variable name                            type
0x20000064  0x4        xNumOfOverflows                          volatile BaseType_t

address     size       variable name                            type
0x20000b20  0x14       xPendingReadyList                        List_t
0x20000b20  0x4        xPendingReadyList.uxNumberOfItems        volatile UBaseType_t
0x20000b24  0x4        xPendingReadyList.pxIndex                pointer to ListItem_t
0x20000b28  0xc        xPendingReadyList.xListEnd               MiniListItem_t
0x20000b28  0x4        xPendingReadyList.xListEnd.xItemValue    TickType_t
0x20000b2c  0x4        xPendingReadyList.xListEnd.pxNext        pointer to xLIST_ITEM
0x20000b30  0x4        xPendingReadyList.xListEnd.pxPrevious    pointer to xLIST_ITEM

address     size       variable name                            type
0x20000058  0x4        xSchedulerRunning                        volatile BaseType_t

address     size       variable name                            type
0x20000b48  0x14       xSuspendedTaskList                       List_t
0x20000b48  0x4        xSuspendedTaskList.uxNumberOfItems       volatile UBaseType_t
0x20000b4c  0x4        xSuspendedTaskList.pxIndex               pointer to ListItem_t
0x20000b50  0xc        xSuspendedTaskList.xListEnd              MiniListItem_t
0x20000b50  0x4        xSuspendedTaskList.xListEnd.xItemValue   TickType_t
0x20000b54  0x4        xSuspendedTaskList.xListEnd.pxNext       pointer to xLIST_ITEM
0x20000b58  0x4        xSuspendedTaskList.xListEnd.pxPrevious   pointer to xLIST_ITEM

address     size       variable name                            type
0x20000b34  0x14       xTasksWaitingTermination                 List_t
0x20000b34  0x4        xTasksWaitingTermination.uxNumberOfItems volatile UBaseType_t
0x20000b38  0x4        xTasksWaitingTermination.pxIndex         pointer to ListItem_t
0x20000b3c  0xc        xTasksWaitingTermination.xListEnd        MiniListItem_t
0x20000b3c  0x4        xTasksWaitingTermination.xListEnd.xItemValue TickType_t
0x20000b40  0x4        xTasksWaitingTermination.xListEnd.pxNext pointer to xLIST_ITEM
0x20000b44  0x4        xTasksWaitingTermination.xListEnd.pxPrevious pointer to xLIST_ITEM

address     size       variable name                            type
0x20000050  0x4        xTickCount                               volatile TickType_t

address     size       variable name                            type
0x20000060  0x4        xYieldPending                            volatile BaseType_t

address     size       variable name                            type
0x20000658  0x40       xQueueRegistry                           array[8] of QueueRegistryItem_t

address     size       variable name                            type
0x080061c4  0x10       AHBPrescTable                            array[16] of const uint8_t

address     size       variable name                            type
0x080061d4  0x8        APBPrescTable                            array[8] of const uint8_t

address     size       variable name                            type
0x20000038  0x4        SystemCoreClock                          uint32_t

address     size       variable name                            type
0x20000034  0x4        uwTick                                   volatile uint32_t

address     size       variable name                            type
0x2000002c  0x1        uwTickFreq                               HAL_TickFreqTypeDef

address     size       variable name                            type
0x20000030  0x4        uwTickPrio                               uint32_t

address     size       variable name                            type
0x20000610  0x48       htim1                                    TIM_HandleTypeDef
0x20000610  0x4        htim1.Instance                           pointer to TIM_TypeDef
0x20000614  0x18       htim1.Init                               TIM_Base_InitTypeDef
0x20000614  0x4        htim1.Init.Prescaler                     uint32_t
0x20000618  0x4        htim1.Init.CounterMode                   uint32_t
0x2000061c  0x4        htim1.Init.Period                        uint32_t
0x20000620  0x4        htim1.Init.ClockDivision                 uint32_t
0x20000624  0x4        htim1.Init.RepetitionCounter             uint32_t
0x20000628  0x4        htim1.Init.AutoReloadPreload             uint32_t
0x2000062c  0x1      * htim1.Channel                            HAL_TIM_ActiveChannel
0x20000630  0x1c       htim1.hdma                               array[7] of pointer to DMA_HandleTypeDef
0x2000064c  0x1        htim1.Lock                               HAL_LockTypeDef
0x2000064d  0x1        htim1.State                              volatile HAL_TIM_StateTypeDef
0x2000064e  0x4        htim1.ChannelState                       array[4] of volatile HAL_TIM_ChannelStateTypeDef
0x20000652  0x4        htim1.ChannelNState                      array[4] of volatile HAL_TIM_ChannelStateTypeDef
0x20000656  0x1        htim1.DMABurstState                      volatile HAL_TIM_DMABurstStateTypeDef

address     size       variable name                            type
0x20000024  0x4        __stdin                                  FILE
0x20000024  0x4        __stdin.a                                int

address     size       variable name                            type
0x20000028  0x4        __stdout                                 FILE
0x20000028  0x4        __stdout.a                               int

address     size       variable name                            type
0x20000010  0x4        g_DataBuffIndex                          int

address     size       variable name                            type
0x20000014  0x4        g_DataLen                                int

address     size       variable name                            type
0x20000210  0x200      g_ESP8266DataBuff                        array[512] of char

address     size       variable name                            type
0x20000410  0x200      g_ESP8266PacketBuff                      array[512] of char

address     size       variable name                            type
0x20000018  0x4        g_PacketR                                int

address     size       variable name                            type
0x2000001c  0x4        g_PacketW                                int

address     size       variable name                            type
0x2000000e  0x1        g_status                                 AT_STATUS

address     size       variable name                            type
0x20000188  0x44       huart1                                   UART_HandleTypeDef
0x20000188  0x4        huart1.Instance                          pointer to USART_TypeDef
0x2000018c  0x1c       huart1.Init                              UART_InitTypeDef
0x2000018c  0x4        huart1.Init.BaudRate                     uint32_t
0x20000190  0x4        huart1.Init.WordLength                   uint32_t
0x20000194  0x4        huart1.Init.StopBits                     uint32_t
0x20000198  0x4        huart1.Init.Parity                       uint32_t
0x2000019c  0x4        huart1.Init.Mode                         uint32_t
0x200001a0  0x4        huart1.Init.HwFlowCtl                    uint32_t
0x200001a4  0x4        huart1.Init.OverSampling                 uint32_t
0x200001a8  0x4        huart1.pTxBuffPtr                        pointer to uint8_t
0x200001ac  0x2        huart1.TxXferSize                        uint16_t
0x200001ae  0x2        huart1.TxXferCount                       volatile uint16_t
0x200001b0  0x4        huart1.pRxBuffPtr                        pointer to uint8_t
0x200001b4  0x2        huart1.RxXferSize                        uint16_t
0x200001b6  0x2        huart1.RxXferCount                       volatile uint16_t
0x200001b8  0x4        huart1.ReceptionType                     volatile HAL_UART_RxTypeTypeDef
0x200001bc  0x4        huart1.hdmatx                            pointer to DMA_HandleTypeDef
0x200001c0  0x4        huart1.hdmarx                            pointer to DMA_HandleTypeDef
0x200001c4  0x1        huart1.Lock                              HAL_LockTypeDef
0x200001c5  0x1        huart1.gState                            volatile HAL_UART_StateTypeDef
0x200001c6  0x1      * huart1.RxState                           volatile HAL_UART_StateTypeDef
0x200001c8  0x4        huart1.ErrorCode                         volatile uint32_t

address     size       variable name                            type
0x200001cc  0x44       huart2                                   UART_HandleTypeDef
0x200001cc  0x4        huart2.Instance                          pointer to USART_TypeDef
0x200001d0  0x1c       huart2.Init                              UART_InitTypeDef
0x200001d0  0x4        huart2.Init.BaudRate                     uint32_t
0x200001d4  0x4        huart2.Init.WordLength                   uint32_t
0x200001d8  0x4        huart2.Init.StopBits                     uint32_t
0x200001dc  0x4        huart2.Init.Parity                       uint32_t
0x200001e0  0x4        huart2.Init.Mode                         uint32_t
0x200001e4  0x4        huart2.Init.HwFlowCtl                    uint32_t
0x200001e8  0x4        huart2.Init.OverSampling                 uint32_t
0x200001ec  0x4        huart2.pTxBuffPtr                        pointer to uint8_t
0x200001f0  0x2        huart2.TxXferSize                        uint16_t
0x200001f2  0x2        huart2.TxXferCount                       volatile uint16_t
0x200001f4  0x4        huart2.pRxBuffPtr                        pointer to uint8_t
0x200001f8  0x2        huart2.RxXferSize                        uint16_t
0x200001fa  0x2        huart2.RxXferCount                       volatile uint16_t
0x200001fc  0x4        huart2.ReceptionType                     volatile HAL_UART_RxTypeTypeDef
0x20000200  0x4        huart2.hdmatx                            pointer to DMA_HandleTypeDef
0x20000204  0x4        huart2.hdmarx                            pointer to DMA_HandleTypeDef
0x20000208  0x1        huart2.Lock                              HAL_LockTypeDef
0x20000209  0x1        huart2.gState                            volatile HAL_UART_StateTypeDef
0x2000020a  0x1      * huart2.RxState                           volatile HAL_UART_StateTypeDef
0x2000020c  0x4        huart2.ErrorCode                         volatile uint32_t

address     size       variable name                            type
0x2000000c  0x1        rx_data                                  uint8_t

address     size       variable name                            type
0x2000000d  0x1        rx_len                                   uint8_t

address     size       variable name                            type
0x200000c0  0xc8       usart_rx_buf                             array[200] of uint8_t

address     size       variable name                            type
0x20000008  0x4        MyTaskHandle                             osThreadId_t

address     size       variable name                            type
0x080061a0  0x24       MyTask_attributes                        const osThreadAttr_t
0x080061a0  0x4        MyTask_attributes.name                   pointer to const char
0x080061a4  0x4        MyTask_attributes.attr_bits              uint32_t
0x080061a8  0x4        MyTask_attributes.cb_mem                 pointer to unknown Type 
0x080061ac  0x4        MyTask_attributes.cb_size                uint32_t
0x080061b0  0x4        MyTask_attributes.stack_mem              pointer to unknown Type 
0x080061b4  0x4        MyTask_attributes.stack_size             uint32_t
0x080061b8  0x4        MyTask_attributes.priority               osPriority_t
0x080061bc  0x4        MyTask_attributes.tz_module              TZ_ModuleId_t
0x080061c0  0x4        MyTask_attributes.reserved               uint32_t

address     size       variable name                            type
0x00000000  0x4        defaultTaskHandle                        osThreadId_t

address     size       variable name                            type
0x00000000  0x24       defaultTask_attributes                   const osThreadAttr_t
0x00000000  0x4        defaultTask_attributes.name              pointer to const char
0x00000004  0x4        defaultTask_attributes.attr_bits         uint32_t
0x00000008  0x4        defaultTask_attributes.cb_mem            pointer to unknown Type 
0x0000000c  0x4        defaultTask_attributes.cb_size           uint32_t
0x00000010  0x4        defaultTask_attributes.stack_mem         pointer to unknown Type 
0x00000014  0x4        defaultTask_attributes.stack_size        uint32_t
0x00000018  0x4        defaultTask_attributes.priority          osPriority_t
0x0000001c  0x4        defaultTask_attributes.tz_module         TZ_ModuleId_t
0x00000020  0x4        defaultTask_attributes.reserved          uint32_t

address     size       variable name                            type
0x20000004  0x1        key_flag                                 uint8_t

address     size       variable name                            type
0x20000000  0x4        client                                   pointer to mqtt_client_t

